(lp0
V\u5931\u8054
p1
aV\u52b1\u5fd7
p2
aV\u51fa\u6765
p3
aV\u7b2c\u4e8c
p4
aV\u8fd8\u8981
p5
aV\u65b0\u751f
p6
aV\u6682\u505c
p7
aV\u5e73\u5b89
p8
aV\u9006\u5883
p9
aV\u6781\u9650
p10
aV\u575a\u5b9a
p11
aV\u9a91\u8f66
p12
aV\u5206\u6570
p13
aV\u559d\u5b8c
p14
aV\u5931\u604b
p15
aV\u6625\u8282
p16
aV\u52b3\u8d44
p17
aV\u4e24\u5468
p18
aV\u5267\u672c
p19
aV\u767e\u5ddd
p20
aV\u60ca\u95fb
p21
aV\u6c34\u5bb6
p22
aV\u4e00\u95e8
p23
aV\u4ec0\u4e48\u6837
p24
aV\u4e2d\u56fd\u961f
p25
aV\u53d1\u751f
p26
aV\u5bd2\u5047
p27
aV\u4e70\u8f66
p28
aV\u505a\u70b9
p29
aV\u5f80\u4e8b
p30
aV\u521d\u4e2d
p31
aV\u670d\u52a1\u5668
p32
aV\u91cd\u542f
p33
aV\u592a\u70c2
p34
aV\u7814\u7a76\u9662
p35
aV\u60ca\u559c
p36
aV\u4e0b\u5468
p37
aV\u55d3\u5b50\u75bc
p38
aV\u524d\u5929
p39
aV\u5144\u5f1f\u59d0\u59b9
p40
aV\u597d\u4e86\u5417
p41
aV\u9996\u6b4c
p42
aV\u679c\u679c
p43
aV\u7bee\u7403
p44
aV\u54c1\u724c
p45
aV\u54c8\u6c14
p46
aV\u516c\u6d4b
p47
aV\u591a\u5e74
p48
aV\u79bb\u6821
p49
aV\u9017\u6bd4
p50
aV\u5206\u7ec4
p51
aV\u8fd9\u671f
p52
aV\u6c99\u53d1
p53
aV\u6e38\u6cf3
p54
aV\u4fee\u6539
p55
aV\u7ed9\u6211\u53d1
p56
aV\u770b\u4f3c
p57
aV\u5173\u7cfb
p58
aV\u96be\u5403
p59
aV\u4eff\u4f5b
p60
aV\u9c9c\u82b1
p61
aV\u613f\u591c\u5b89
p62
aV\u4e16\u7eaa
p63
aV\u60c5\u611f
p64
aV\u897f\u85cf
p65
aV\u5410\u8840
p66
aVdeadline
p67
aV\u8ff7\u8ff7\u7cca\u7cca
p68
aV\u7f6a\u8fc7
p69
aV\u63a5\u8fd1
p70
aV\u6ca1\u5fc3\u6ca1\u80ba
p71
aV\u795e\u70e6
p72
aV\u5609\u5e74\u534e
p73
aV\u5750\u5730\u94c1
p74
aV\u7b2c\u4e00
p75
aV\u6362\u6765
p76
aV\u5403\u8d27
p77
aV\u4e8b\u7269
p78
aV\u89c9\u9192
p79
aV\u5165\u7761
p80
aV\u4e00\u53d1
p81
aV\u8001\u864e
p82
aV\u661f\u671f\u4e94
p83
aV\u5973\u751f\u8282
p84
aV\u8d5e\u540c
p85
aV\u5916\u5957
p86
aV\u53a6\u95e8
p87
aV\u610f\u5473\u7740
p88
aV\u773c\u4e2d
p89
aV\u9a7e\u7167
p90
aV\u59d0\u59d0
p91
aV\u9f3b\u5b50
p92
aV\u770b\u8fc7
p93
aV\u5b9e\u9a8c\u5ba4
p94
aV\u7f8e\u7f8e
p95
aV\u8c0e\u8a00
p96
aV\u516c\u8def
p97
aV\u4e3a\u4e86
p98
aV\u6280\u672f
p99
aV\u771f\u7231
p100
aV\u5927\u6218
p101
aV\u5c3d\u60c5
p102
aV\u6674\u95f4\u591a\u4e91
p103
aV\u4e0a\u5929
p104
aV\u4eba\u4f1a
p105
aV\u513f\u7ae5\u8282
p106
aV\u60c5\u51b5
p107
aV\u505c\u6b62
p108
aVnet
p109
aV\u89e3\u51b3\u95ee\u9898
p110
aV\u4e13\u5229
p111
aV\u6444\u5f71
p112
aV\u89c1\u8bc1
p113
aVTAT
p114
aV\u4f9d\u8d56
p115
aV\u6d0b\u6d0b
p116
aV\u4ee3\u8d2d
p117
aV\u89c1\u8bc6
p118
aV\u4e94\u5e74
p119
aV\u59d0\u59b9
p120
aV\u5728\u5bb6
p121
aV\u4e0d\u7528
p122
aV\u5317\u8857
p123
aV\u4e00\u70b9\u70b9
p124
aV\u5c0f\u82f9\u679c
p125
aV\u5fb7\u56fd\u961f
p126
aV\u6b6a\u6b6a
p127
aV\u7cfb\u5217
p128
aV100
p129
aV\u7b2c\u4e5d
p130
aV\u98df\u5802
p131
aV\u4ec0\u9ebc
p132
aV\u77ed\u5267
p133
aV\u6b23\u8d4f
p134
aV\u6e05\u534e\u56ed
p135
aV\u771f\u7279
p136
aV\u6f2b\u6f2b
p137
aV\u65b0\u95fb
p138
aV\u65e0\u5948
p139
aV\u4e0d\u7ba1\u600e\u6837
p140
aV\u4e50\u961f
p141
aV\u8001\u662f
p142
aV\u7403\u8863
p143
aV\u53ef\u60dc
p144
aV\u4ea7\u54c1
p145
aV\u6b4c\u8bcd
p146
aV\u5316\u673a
p147
aV\u4e0d\u9519
p148
aV\u5973\u670b\u53cb
p149
aV\u4e0d\u7ed9\u529b
p150
aV\u5b89\u9759
p151
aV\u4fdd\u7f57
p152
aV\u91cc\u9762
p153
aV\u770b\u4e66
p154
aV\u53ef\u6076
p155
aV\u7ec8\u7a76
p156
aV\u795d\u4f60\u4eec
p157
aV\u8d76\u5feb
p158
aV\u6700\u540e
p159
aV45
p160
aV\u4e00\u5206\u949f
p161
aV\u62ff\u5230
p162
aV\u4eba\u4eba
p163
aV\u9057\u61be
p164
aV\u671f\u671b
p165
aV\u6323\u94b1
p166
aV\u70b9\u6ef4
p167
aV\u53ef\u7b11
p168
aV\u574e\u5777
p169
aV\u5403\u96f6\u98df
p170
aV\u8d70\u8d70
p171
aV\u4e00\u6b21
p172
aV\u5230\u5bb6
p173
aV\u5e3d\u5b50
p174
aV\u5403\u996d
p175
aV\u62d4\u7259
p176
aV\u529b\u91cf
p177
aV\u94fe\u63a5
p178
aV\u6253\u54c8\u6b20
p179
aV\u51ef\u6587
p180
aV\u7a7f\u8d8a
p181
aV\u5927\u56fe
p182
aV\u718a\u732b
p183
aV\u661f\u5ea7
p184
aV\u5305\u88f9
p185
aV\u6e56\u4eba
p186
aV\u6d17\u8863\u670d
p187
aV\u61d2\u89c9
p188
aV\u9524\u5b50
p189
aV\u4eba\u4eec
p190
aV\u5927\u8857
p191
aV\u4e03\u6708
p192
aV\u4fee\u590d
p193
aV\u767d\u8272
p194
aV\u770b\u4e2a
p195
aV\u592a\u51b7
p196
aVhaha
p197
aV\u753b\u9762
p198
aV\u52ff\u6270
p199
aV\u5fae\u76d8
p200
aV\u6848\u4f8b
p201
aV\u65e0\u6570\u6b21
p202
aV\u5feb\u4e50
p203
aV\u8003\u751f
p204
aV\u8bfb\u4e66
p205
aV\u609f\u5149
p206
aV\u4ee5\u4e3a
p207
aV90
p208
aVhold
p209
aV95
p210
aV\u611f\u6069\u8282
p211
aV\u5357\u697c
p212
aV\u6b63\u5f0f
p213
aV\u770b\u6e05
p214
aV\u4e00\u6b65
p215
aVmm
p216
aV\u5ba2\u670d
p217
aV\u518d\u6b21
p218
aV\u8fd9\u65f6\u5019
p219
aV\u5965\u8fd0
p220
aV\u505a\u51fa
p221
aV\u8bbf\u8c08
p222
aV\u4e70\u4e2a
p223
aV\u6211\u5988
p224
aVta
p225
aV\u4e00\u90e8
p226
aV\u96be\u8fc7
p227
aV\u660e\u5929
p228
aV\u6b27\u6d32
p229
aV\u5766\u7136
p230
aV555
p231
aV\u516b\u6708
p232
aV\u518d\u4e5f\u4e0d\u4f1a
p233
aV\u4f18\u96c5
p234
aV\u5206\u5f00
p235
aV\u7ea2\u51cc\u8def
p236
aV\u4e09\u4e9a
p237
aV\u7231\u60c5
p238
aV\u665a\u4f1a
p239
aV\u548b\u6574
p240
aV\u672a\u6765
p241
aV\u60ca\u5446
p242
aV\u66b4\u8e81
p243
aV\u4e00\u5768
p244
aVwin8
p245
aV\u5723\u8bde\u8282
p246
aV\u60f3\u5410\u69fd
p247
aV\u4e00\u60f3
p248
aV\u5237\u5c4f
p249
aV\u4e24\u5929
p250
aV\u53f0\u6e7e
p251
aV\u5c0f\u5b9d
p252
aV\u7b2c\u4e00\u6b21
p253
aV\u6539\u53d8
p254
aV\u4e00\u8bb0
p255
aV\u4e00\u6bb5
p256
aV\u5c0f\u80d6
p257
aV\u8d70\u8def
p258
aV\u8001\u677f
p259
aV\u5fae\u535a\u9886
p260
aV\u5815\u843d
p261
aV\u6e05\u660e
p262
aV\u5f88\u8d5e
p263
aV\u4e2d\u56fd\u7bee\u7403
p264
aV\u52a0\u4e2a
p265
aV\u5835\u5f97
p266
aV\u70ed\u4e4e
p267
aV\u6253\u96f7
p268
aV\u8de8\u5e74
p269
aV\u5410\u69fd
p270
aV\u5144\u5f1f
p271
aV\u767d\u7f8a\u5ea7
p272
aV\u6211\u5927
p273
aV\u7b80\u5355
p274
aV\u5fc3\u7d2f
p275
aV\u62e5\u62b1
p276
aV\u53d7\u4e0d\u4e86
p277
aV\u79d1\u76ee
p278
aV\u5584\u826f
p279
aV\u4e0d\u7406
p280
aV\u5165\u624b
p281
aV\u9519\u8bef
p282
aV\u4e0d\u540c
p283
aV......
p284
aV\u8f6f\u9662
p285
aV\u5c0f\u5c41\u5b69
p286
aV\u9752\u5c9b
p287
aV\u5fcd\u53d7
p288
aV\u60b2\u5267
p289
aV1001
p290
aV\u4e0d\u4f1a
p291
aV\u5468\u6770\u4f26
p292
aV\u5de5\u4f5c\u5ba4
p293
aV__
p294
aV\u90a3\u5929
p295
aV\u867d\u7136
p296
aV\u957f\u65f6\u95f4
p297
aV\u8d26\u53f7
p298
aV\u670d\u52a1\u5458
p299
aV\u5f3a\u5927
p300
aV\u5f52\u6765
p301
aV\u88ab\u5b50
p302
aV\u4e00\u7897
p303
aV\u65e9\u7761
p304
aV\u6c34\u74f6\u5ea7
p305
aV\u5c0f\u5c0f\u7684
p306
aV\u7cbe\u529b
p307
aV\u51c6\u65f6
p308
aV\u9047\u5230
p309
aV\u8ba4\u8bc6
p310
aV\u4e1c\u897f
p311
aV\u76ae\u80a4
p312
aV\u6a21\u5f0f
p313
aV\u8ba4\u8bc1
p314
aVRhpjdBi
p315
aV\u660e\u5a9a
p316
aV\u5370\u8c61
p317
aV403
p318
aV\u4e00\u6837
p319
aV400
p320
aV\u770b\u7535\u89c6
p321
aV\u5bd2\u98ce
p322
aV\u4e00\u6839
p323
aV\u540e\u6094
p324
aV\u4e3b\u9875
p325
aV\u656c\u754f
p326
aV\u534a\u591c
p327
aV\u73a9\u6e38\u620f
p328
aV\u7d20\u8d28
p329
aV\u753b\u56fe
p330
aV\u516c\u4f17
p331
aV\u624d\u80fd
p332
aV\u597d\u53cb
p333
aV\u773c\u6cea
p334
aV\u65e5\u5fd7
p335
aV\u62ef\u6551
p336
aV\u9c9c\u8089
p337
aV\u6bcf\u6bcf
p338
aV\u7814\u6559\u697c
p339
aV\u51bb\u6210
p340
aV\u5730\u8bf4
p341
aV\u5a92\u4f53
p342
aV\u5f97\u77e5
p343
aVAPP
p344
aV\u521b\u4e1a\u8005
p345
aV\u597d\u5927
p346
aV\u66b4\u8d70
p347
aV\u5f88\u5927
p348
aV\u9762\u8bd5
p349
aV\u534a\u5929
p350
aV\u7a81\u7136
p351
aV\u679c\u65ad
p352
aV\u6e05\u65b0
p353
aV\u9152\u4e95
p354
aV\u6c34\u7acb\u65b9
p355
aV\u50cf\u662f
p356
aV\u5012\u65f6\u5dee
p357
aV\u8d76\u4e0d\u4e0a
p358
aV\u4e0d\u9760
p359
aV\u96ea\u4eba
p360
aV\u53d1\u5e03\u4f1a
p361
aV\u9ebb\u75f9
p362
aV\u4e0b\u96e8
p363
aV\u91cd\u8981\u6027
p364
aV\u5947\u5999
p365
aV\u9886\u609f
p366
aV\u62c9\u809a\u5b50
p367
aV\u7238\u7238
p368
aVVC
p369
aV\u603b\u6709\u4e00\u5929
p370
aV\u975e\u8981
p371
aV\u56e0\u4e3a
p372
aV\u5904\u5973\u5ea7
p373
aV\u7ecf\u5386
p374
aV\u5e10\u53f7
p375
aV\u6ca1\u4ec0\u4e48
p376
aV\u9999\u6e2f
p377
aV\u592a\u725b
p378
aV\u6587\u7ae0
p379
aV\u6709\u5173
p380
aV\u51cc\u5965\u8def
p381
aV\u656c\u8bf7
p382
aV\u5267\u60c5
p383
aV\u5520\u55d1
p384
aV\u548c\u8c10
p385
aV\u70b9\u8d5e
p386
aV\u53d1\u578b
p387
aV\u505a\u5230
p388
aV\u6f14\u6280
p389
aV\u5f00\u5fc3
p390
aV\u5168\u90fd
p391
aV\u8f9c\u8d1f
p392
aV\u6447\u6eda
p393
aV\u6709\u70b9\u513f
p394
aV\u6210\u90fd
p395
aV\u5b66\u4e60
p396
aV\u5168\u90e8
p397
aV\u4e4b\u4e00
p398
aV\u5468\u56f4
p399
aV\u5723\u59d1
p400
aV\u793c\u7269
p401
aV\u7684\u786e
p402
aVVic
p403
aV\u6cbb\u6108
p404
aV\u5b59\u71d5\u59ff
p405
aV\u6765\u770b
p406
aV\u5f00\u573a
p407
aV++
p408
aV\u4e0d\u770b
p409
aV\u56de\u6765
p410
aV\u65ad\u7535
p411
aV\u4e0b\u96e8\u5929
p412
aV\u8fde\u7eed
p413
aV\u9a6c\u676f
p414
aV\u964c\u751f
p415
aV\u4e0a\u5b66
p416
aV\u5bfc\u5e08
p417
aV\u66d9\u5149
p418
aV\u4e1c\u8857
p419
aV\u54ea\u513f
p420
aV\u5fc5\u6709
p421
aV\u8bad\u7ec3
p422
aV\u8138\u7ea2
p423
aV\u56e2\u8d2d
p424
aV\u819c\u62dc
p425
aV\u4e94\u5468\u5e74
p426
aV\u9002\u5e94
p427
aV\u4e0d\u56f0
p428
aV\u6bdb\u75c5
p429
aV\u8c46\u4e01
p430
aV\u4ee3\u4ef7
p431
aV\u6162\u70b9
p432
aV\u771f\u5b9e
p433
aV\u53d8\u8eab
p434
aV\u5de7\u514b\u529b
p435
aV\u665a\u4e0a
p436
aV\u53cc\u5341
p437
aV\u821e\u53f0
p438
aV\u597d\u611f
p439
aVdoge
p440
aV\u8d2d\u7269
p441
aV\u53d1\u5e03
p442
aV\u56fd\u5bb6
p443
aV\u5751\u7239
p444
aV\u9996\u9875
p445
aV\u6012\u9a82
p446
aV\u6253\u7403
p447
aV\u5927\u8fde\u7406\u5de5
p448
aV\u8ba4\u771f
p449
aV\u4e4b\u661f
p450
aV\u6c11\u65cf
p451
aV\u7814\u7a76\u751f
p452
aV\u4ebf\u7ed9
p453
aV\u610f\u5fd7\u529b
p454
aV\u6211\u5bb6
p455
aV\u841d\u535c
p456
aV\u83ab\u8a00
p457
aV\u70e6\u607c
p458
aV\u7ae5\u978b
p459
aV\u5355\u66f2
p460
aV\u6c14\u606f
p461
aV\u61c2\u5f97
p462
aV\u7b54\u8fa9
p463
aV\u5173\u5fc3
p464
aV\u56ed\u5b50
p465
aV\u52a0\u6cb9
p466
aV\u767e\u5ea6
p467
aV\u516b\u5366
p468
aV\u6709\u70b9
p469
aV\u8bf8\u4e8b
p470
aV\u592a\u539f
p471
aV\u67e5\u770b
p472
aV\u4e2d\u897f\u533a
p473
aV\u6e9c\u8fbe
p474
aV\u7ea6\u4f1a
p475
aV\u52aa\u529b
p476
aV\u5efa\u7b51
p477
aV\u4e2d\u56fd\u8054\u901a
p478
aV\u538b\u6291
p479
aV\u56e2\u652f\u4e66
p480
aV\u65b0\u7586
p481
aV\u4ee3\u7801
p482
aV\u54e5\u4eec
p483
aV\u4e00\u500b
p484
aV\u534a\u573a
p485
aV\u8c08\u604b\u7231
p486
aV\u767e\u5e74
p487
aV\u6362\u4e2a
p488
aV\u53e3\u5473
p489
aV\u8d70\u8fc7
p490
aV\u719f\u6089
p491
aV\u65e5\u665a
p492
aV\u5357\u7ad9
p493
aV\u9057\u5fd8
p494
aV\u80a1\u5e02
p495
aV\u968f\u624b
p496
aV\u5927\u8111
p497
aV\u8d62\u7403
p498
aV\u5b8c\u540e
p499
aV\u610f\u8bc6
p500
aV\u4e2d\u8def
p501
aV\u6210\u719f
p502
aV\u8bb0\u4f4f
p503
aV\u4e0d\u600e\u4e48
p504
aV\u68a6\u89c1
p505
aV\u810f\u8bdd
p506
aV\u594b\u6597
p507
aV\u5ea6\u8fc7
p508
aV\u4eba\u6c14
p509
aV\u7fa1\u6155
p510
aV\u6700\u96be
p511
aV\u62a2\u7ea2\u5305
p512
aV\u519b\u8bad
p513
aV\u9519\u89c9
p514
aV\u5f3a\u58ee
p515
aV\u8170\u9178\u80cc\u75db
p516
aV\u552f\u6709
p517
aV\u8d76\u7d27
p518
aV\u90ed\u5fb7\u7eb2
p519
aV\u4e00\u89c9
p520
aV\u5f53\u65f6
p521
aV\u52a0\u5165
p522
aV\u6c34\u7ecf\u6ce8
p523
aV\u65f6\u6bb5
p524
aV\u5b66\u8f66
p525
aV\u4f01\u4e1a
p526
aV\u4e8b\u513f
p527
aV\u6559\u7814\u5ba4
p528
aV\u88ab\u7a9d
p529
aVQQ
p530
aV\u516c\u4ea4
p531
aV\u591c\u5bb5
p532
aV\u5e78\u4e8f
p533
aV\u5883\u754c
p534
aV\u9752\u6625
p535
aV\u7adf\u7136
p536
aV\u673a\u5668\u4eba
p537
aV\u5de8\u6c57
p538
aV\u6765\u4e0d\u53ca
p539
aV\u54ea\u91cc
p540
aV\u54ce\u5440
p541
aV\u4f1a\u513f
p542
aV\u4f69\u670d
p543
aV\u8fc7\u751f\u65e5
p544
aV\u4e8c\u6559
p545
aV\u6362\u4e58
p546
aV\u81ea\u4e3b
p547
aV\u4e00\u4e00
p548
aV\u5403\u5c4e
p549
aV\u5230\u5e95
p550
aV\u59a5\u59a5
p551
aV\u4e00\u4e0b
p552
aV\u6211\u7cfb
p553
aV\u4e3b\u8bb2\u4eba
p554
aV\u5341\u4e8c
p555
aV\u4e09\u5e74
p556
aV\u7559\u7ed9
p557
aV\u5468\u672b
p558
aV\u5e7f\u64ad
p559
aV\u5145\u5b9e
p560
aV\u673a\u573a
p561
aV\u8bbe\u8ba1
p562
aV\u771f\u7684
p563
aV\u6d77\u8fb9
p564
aV\u53f0\u8bcd
p565
aV\u540d\u5355
p566
aV\u4e24\u5206\u949f
p567
aV\u970d\u6bd4\u7279
p568
aV\u725b\u5976
p569
aV\u4e00\u4e2a
p570
aV\u767e\u79d1
p571
aV\u62bd\u70df
p572
aV\u5f53\u6210
p573
aV\u5bf9\u5f85
p574
aV\u70b9\u8bc4
p575
aV\u8bb8\u591a
p576
aV\u5929\u4e0b
p577
aV\u5f00\u5934
p578
aV\u611f\u6fc0
p579
aV\u4e0d\u53ef
p580
aV\u8bfe\u4e0a
p581
aV\u770b\u7403
p582
aV\u5f71\u9662
p583
aV\u5f88\u68d2
p584
aV\u745e\u5bd2
p585
aVde
p586
aV\u79d8\u5bc6
p587
aV\u60ca\u9192
p588
aVApple
p589
aV\u5ba2\u6237
p590
aV\u6696\u6c14
p591
aV\u6df7\u4e71
p592
aV\u4ee5\u81f3\u4e8e
p593
aV\u6253\u5361
p594
aV\u56fd\u65d7
p595
aV\u7406\u60f3
p596
aV\u62e5\u6709
p597
aV\u65b0\u5e74
p598
aV\u771f\u76f8
p599
aV\u4e0d\u518d
p600
aV\u6e05\u6668
p601
aV\u5927\u59d0
p602
aV\u5931\u843d
p603
aV\u6691\u671f
p604
aV\u505a\u4e2a
p605
aV\u5348\u89c9
p606
aV\u7b80\u76f4
p607
aV\u4eca\u513f
p608
aV\u4e8e\u662f
p609
aV\u901a\u5bb5
p610
aV\u60f3\u8c61
p611
aV\u4e0d\u5199
p612
aV\u653e\u5047
p613
aV\u5341\u4e00
p614
aV\u52c7\u6c14
p615
aV\u8bed\u8a00
p616
aV\u6587\u5316\u8282
p617
aV\u6674\u8f6c\u591a\u4e91
p618
aV\u73b0\u5b9e
p619
aV\u5b66\u6821
p620
aV\u611f\u53d7\u4e00\u4e0b
p621
aV\u5929\u4eae
p622
aV\u62b1\u6b49
p623
aV\u4e00\u4e9b
p624
aVAndroid
p625
aV\u4f53\u529b
p626
aV03
p627
aV00
p628
aV\u8e0f\u8e0f\u5b9e\u5b9e
p629
aV06
p630
aV\u7b2c\u4e00\u4e2a
p631
aV04
p632
aV\u5374\u662f
p633
aV\u4e00\u8eab
p634
aV\u897f\u73ed\u7259
p635
aV\u4e9b\u8bb8
p636
aV\u5feb\u8baf
p637
aV\u4e00\u5171
p638
aVkindle
p639
aV\u7b54\u6848
p640
aV\u679c\u771f
p641
aV\u4e00\u4eba
p642
aV\u7b11\u54c8\u54c8
p643
aV\u7f51\u4e0a
p644
aV360
p645
aV\u7a81\u7834
p646
aV\u758f\u6e2f
p647
aV\u7761\u4e2a
p648
aV\u5168\u56fd
p649
aV\u5f00\u59cb
p650
aV\u5bb6\u4eba
p651
aV\u53d1\u51fa
p652
aV\u60f3\u6cd5
p653
aVboss
p654
aV\u5fc5\u80dc
p655
aV\u5fae\u535a
p656
aV\u4e0d\u7136
p657
aV\u5192\u6ce1
p658
aV\u4e00\u4e2a\u4e2a
p659
aV\u76f8\u7231
p660
aV\u81ea\u4fe1
p661
aV\u676f\u5b50
p662
aV\u8bf4\u660e
p663
aV\u4e8b\u60c5
p664
aV\u601d\u60f3
p665
aV\u81ea\u8bed
p666
aV\u6821\u53cb
p667
aV\u7c73\u5170
p668
aV\u611a\u8822
p669
aV\u795d\u8d3a
p670
aV\u5341\u4e00\u70b9
p671
aV\u4e00\u4ef6
p672
aV\u521d\u4e3a\u4eba
p673
aV\u5df4\u8428
p674
aV\u65b9\u5411
p675
aV\u8eab\u8fb9
p676
aVcom
p677
aV\u6f02\u4eae
p678
aV\u4e00\u4efd
p679
aV\u5168\u573a
p680
aV\u662f\u4ece
p681
aV\u6ce1\u9762
p682
aV\u8fd9\u624d
p683
aV\u8df3\u821e
p684
aV\u6587\u79d1
p685
aV\u641c\u72d7
p686
aVPM
p687
aV\u5b89\u5353
p688
aV\u8377\u5170
p689
aV\u611f\u5192
p690
aV\u4eba\u8981
p691
aV\u5e74\u534e
p692
aV\u7a97\u5916
p693
aV\u843d\u53f6
p694
aV\u4ee4\u4eba
p695
aV\u82f1\u6587
p696
aV\u8d77\u7801
p697
aV\u4e00\u4f1a
p698
aV\u5bc2\u5bde
p699
aV\u79ef\u7d2f
p700
aV101
p701
aV\u6709\u96fe
p702
aV\u534a\u5e74
p703
aV\u745c\u4f3d
p704
aV\u53bf\u9053
p705
aV\u7f57\u6c38\u6d69
p706
aV\u8d5b\u5b63
p707
aV\u540e\u679c
p708
aV\u56e2\u5efa
p709
aV\u95f9\u949f
p710
aV\u6267\u7740
p711
aV\u7b7e\u8bc1
p712
aV\u51e0\u5929
p713
aV\u8c03\u6574
p714
aV\u8bf1\u60d1
p715
aV\u600e\u4e48
p716
aV\u641e\u5b9a
p717
aV\u5218\u957f\u6625
p718
aV\u673a\u5668
p719
aV\u536b\u89c6
p720
aV\u53cd\u6b63
p721
aVTokyo
p722
aV\u7814\u7a76
p723
aV\u6f14\u8bb2
p724
aV\u4e1c\u4e1c
p725
aV\u751f\u6d3b\u533a
p726
aV\u4f60\u742a\u59d0
p727
aV\u4e00\u4f4d
p728
aV\u7f51\u4fe1
p729
aVdota
p730
aV\u8868\u626c
p731
aV\u5546\u5708
p732
aV\u516c\u5171
p733
aV\u5e94\u8be5
p734
aV\u81ea\u4e60
p735
aV\u4e70\u7968
p736
aV\u53f2\u4e0a
p737
aV\u90a3\u5e74
p738
aV\u524d\u4e24\u5929
p739
aV38
p740
aV\u5317\u8def
p741
aV\u540c\u884c
p742
aV\u60f3\u8d77
p743
aV\u6b4c\u738b
p744
aV\u626f\u6de1
p745
aV\u4e0d\u53d8
p746
aV110
p747
aVlxhx
p748
aV\u6821\u533b\u9662
p749
aV\u770b\u4e0d\u5230
p750
aV\u5fc3\u8df3
p751
aV\u540c\u5b66
p752
aV\u548c\u5e73
p753
aV\u4ee3\u8868
p754
aV\u4e00\u8f86
p755
aV\u6492\u82b1
p756
aV\u966a\u4f34
p757
aV\u5927\u725b
p758
aV\u543c\u543c
p759
aV\u4ece\u6765
p760
aVLOL
p761
aV\u6e29\u67d4
p762
aV\u9884\u611f
p763
aV\u6253\u52a8
p764
aV\u505a\u9519
p765
aV\u5f00\u9898
p766
aV\u80cc\u5d29\u4e61
p767
aV\u5b98\u7f51
p768
aV\u7cbd\u5b50
p769
aV\u5404\u4f4d\u670b\u53cb
p770
aV\u9171\u6cb9
p771
aV\u6c88\u9633
p772
aV\u7280\u5229
p773
aV\u4eac\u6caa
p774
aV\u56e2\u652f\u90e8
p775
aV\u81ea\u884c\u8f66
p776
aV\u671f\u672b
p777
aVV5
p778
aV\u5929\u671d
p779
aV\u4e0d\u505c
p780
aV\u8d85\u8d5e
p781
aV\u4e00\u8fb9
p782
aV\u56de\u62a5
p783
aV\u8eab\u4efd
p784
aV\u65e9\u70b9
p785
aV\u4ece\u672a
p786
aV\u6ca1\u60f3\u5230
p787
aV\u5728\u7ebf
p788
aV\u8c22\u8c22
p789
aV\u524d\u9762
p790
aV\u641e\u7b11
p791
aV\u76ee\u7684
p792
aV\u540e\u6765
p793
aV\u9519\u8fc7
p794
aVVS
p795
aV\u7edd\u671b
p796
aV\u53d1\u70e7
p797
aV\u998b\u5634
p798
aV\u592e\u89c6
p799
aV\u6d77\u6e7e
p800
aV\u793e\u5de5
p801
aV\u4f53\u80b2\u9986
p802
aV\u661f\u7a7a
p803
aVthu
p804
aV\u6c34\u5e73
p805
aV\u4ece\u6211\u505a\u8d77
p806
aV\u4f24\u5fc3
p807
aV\u5199\u4e2a
p808
aV\u62fc\u640f
p809
aV800
p810
aV\u884c\u674e\u7bb1
p811
aV\u4f60\u9020
p812
aV\u6b63\u786e
p813
aV\u624b\u673a
p814
aV\u8d81\u7740
p815
aV\u5148\u6276
p816
aV\u6709\u592a\u591a
p817
aV\u5f80\u5f80
p818
aV\u5b63\u540e\u8d5b
p819
aV\u72d7\u72d7
p820
aV\u822a\u73ed
p821
aV\u5ffd\u60a0
p822
aV\u7b49\u4e8e
p823
aV\u76f4\u89c6
p824
aV\u7b80\u5386
p825
aV\u5b66\u671f
p826
aV\u56f4\u89c2
p827
aV\u7231\u770b
p828
aV\u5192\u4e2a
p829
aV\u9644\u8fd1
p830
aV\u50bb\u5b50
p831
aV\u8bfa\u57fa\u4e9a
p832
aV\u610f\u4e49
p833
aV\u7ed3\u679c
p834
aV\u4e3d\u6c5f
p835
aV\u5317\u4eac
p836
aV\u7b11\u8bdd
p837
aV\u5929\u6c14
p838
aV5s
p839
aV\u656c\u4f69
p840
aV\u5c0f\u5b69\u513f
p841
aV\u8d5e\u52a9
p842
aV\u6109\u5feb
p843
aV\u4e0d\u53d1
p844
aV\u75db\u82e6
p845
aV\u803d\u8bef
p846
aV\u611f\u52a8
p847
aV\u6392\u540d
p848
aV\u4f18\u9177
p849
aV\u4e8c\u5341\u5206\u949f
p850
aV\u592a\u96be
p851
aV\u6d17\u8863\u673a
p852
aV\u8fd9\u6837
p853
aV\u5357\u5f00
p854
aV\u5cf0\u5c9a
p855
aV\u5f81\u7a0b
p856
aV\u7a0d\u5fae
p857
aV\u7535\u8111
p858
aV\u9ad8\u8ddf\u978b
p859
aV\u61d2\u4eba
p860
aV\u7ec6\u8282
p861
aV\u7ebd\u7ea6
p862
aV\u7f8e\u597d
p863
aV\u675c\u5170\u7279
p864
aV\u540e\u77e5\u540e\u89c9
p865
aV\u6843\u5b50
p866
aV\u7ec8\u5c06
p867
aV\u5de1\u793c
p868
aV\u4e0d\u53bb
p869
aV\u6df1\u6df1
p870
aV\u5b89\u9038
p871
aV\u50bb\u7b11
p872
aV\u5f00\u5b66
p873
aV\u6d77\u6dc0
p874
aV55
p875
aV\u95e8\u5c06
p876
aV\u7535\u5f71\u9662
p877
aV\u804a\u5230
p878
aV50
p879
aV\u8282\u76ee
p880
aV\u54c1\u5473
p881
aV\u4e1c\u8d22
p882
aV\u9738\u6c14
p883
aV\u90ae\u4ef6
p884
aV\u51b0\u96f9
p885
aV\u59ff\u52bf
p886
aV\u53d1\u73b0
p887
aV\u5feb\u8981
p888
aV\u65f6\u4ee3
p889
aV\u5b66\u5802
p890
aVHR
p891
aV\u60ca\u73b0
p892
aV\u8d85\u8fc7
p893
aV\u7b14\u8bb0\u672c
p894
aV\u6da8\u4ef7
p895
aV\u5403\u6389
p896
aV\u8fd8\u4f1a
p897
aV\u6807\u51c6
p898
aV\u6709\u6728\u6709
p899
aV\u4f1a\u5458
p900
aV\u65f6\u9694
p901
aV\u4fe1\u53f7
p902
aV\u4f7f\u7528
p903
aV\u7537\u5b69\u513f
p904
aV\u4ed6\u5988\u7684
p905
aV\u7535\u89c6\u5267
p906
aV\u9644\u4f53
p907
aV\u6536\u5de5
p908
aV\u62a5\u540d
p909
aV\u770b\u89c1
p910
aV\u66f4\u597d
p911
aV\u6821\u5185
p912
aV\u5fc3\u4e2d
p913
aV\u57fa\u53cb
p914
aV\u6ca1\u6709
p915
aV\u76f8\u9047
p916
aV\u611f\u5230
p917
aV\u5305\u5305
p918
aVHi
p919
aV\u73a9\u800d
p920
aV\u6cd5\u5f8b
p921
aV\u5348\u996d
p922
aV\u4e1c\u8def
p923
aV\u8f66\u4e0a
p924
aV\u997a\u5b50
p925
aV\u957f\u6c5f\u8def
p926
aV\u56ed\u533a
p927
aV\u6e7e\u533a
p928
aV\u5404\u79cd
p929
aV\u6ca1\u6765
p930
aV\u7a0b\u5ea6
p931
aV\u6d88\u505c
p932
aV\u76f8\u9022
p933
aV\u6447\u53f7
p934
aV\u4e0a\u7f51
p935
aV\u5b8c\u5168
p936
aV\u592a\u9633
p937
aV\u5c31\u8981
p938
aV\u5e2e\u5fd9
p939
aV\u57f9\u517b
p940
aV\u98de\u543b
p941
aV\u968f\u673a
p942
aV\u98ce\u4e91
p943
aV\u5988\u5440
p944
aV\u660e\u5e74
p945
aV\u5468\u65e5
p946
aV\u652f\u4ed8\u5b9d
p947
aV\u4ff1\u4e50\u90e8
p948
aV\u88c5\u4fee
p949
aV\u7ed3\u675f
p950
aV\u547d\u8fd0
p951
aV\u683c\u5b50
p952
aV\u62a5\u544a
p953
aV\u989c\u503c
p954
aV\u7a0b\u5e8f
p955
aV\u672c\u5468
p956
aV\u795e\u5668
p957
aV\u6709\u7528
p958
aV\u6216\u8005
p959
aV\u89c2\u4f17
p960
aV\u6d41\u5e74
p961
aV\u6c38\u6052
p962
aV\u88e4\u5b50
p963
aV\u51b3\u8d5b
p964
aV\u5a31\u4e50
p965
aV\u88c5\u903c
p966
aV\u7eaa\u5f55\u7247
p967
aV\u8bfb\u4e66\u7b14\u8bb0
p968
aV\u51cf\u80a5
p969
aV\u7ecf\u5178
p970
aV\u8ff7\u832b
p971
aV\u4e00\u9996\u6b4c
p972
aV\u6253\u7bee\u7403
p973
aVdown
p974
aV\u5730\u513f
p975
aV\u600e\u4e48\u6837
p976
aV\u51e0\u6b21
p977
aV\u6b63\u597d
p978
aVppt
p979
aV\u4e24\u5e74
p980
aV\u9178\u5976
p981
aV\u5c31\u884c
p982
aV\u660e\u5fb7
p983
aV\u6ce8\u5b9a
p984
aV\u89e3\u91ca
p985
aV\u4e0a\u7ebf
p986
aV\u706b\u9505
p987
aV\u9009\u8bfe
p988
aV\u6c64\u5706
p989
aV\u597d\u4e45\u4e0d\u89c1
p990
aV\u4e0b\u5348
p991
aV\u51ac\u5929
p992
aV\u590d\u4e60
p993
aV\u5b89\u5168
p994
aV\u6700\u7231
p995
aV\u4e0b\u5355
p996
aV\u5317\u8fb0
p997
aV\u6e05\u6670
p998
aVNBA
p999
aV\u8868\u6001
p1000
aV\u6570\u636e
p1001
aV\u9a91\u884c
p1002
aV\u7ffb\u8bd1
p1003
aVhappy
p1004
aV\u89c6\u9891
p1005
aVAppleWatch
p1006
aV\u56f0\u5f97
p1007
aV\u4e0d\u8fc7\u5982\u6b64
p1008
aVoffer
p1009
aV\u611f\u53d7
p1010
aV\u5931\u671b
p1011
aV\u6210\u957f
p1012
aV\u4fbf\u662f
p1013
aV\u6324\u773c
p1014
aV\u60b2\u54c0
p1015
aV\u9a97\u5b50
p1016
aV\u89e3\u51b3
p1017
aV\u5f3a\u70c8
p1018
aV\u65b0\u7248
p1019
aV\u656c\u4e1a
p1020
aV\u5403\u9971
p1021
aV\u5669\u68a6
p1022
aV\u5929\u874e\u5ea7
p1023
aV\u611f\u53f9
p1024
aV\u627f\u53d7
p1025
aV\u5e78\u798f\u611f
p1026
aV\u662f\u4e0d\u662f
p1027
aV\u65e0\u529b\u611f
p1028
aV\u8b66\u5bdf
p1029
aV\u5218\u5f3a
p1030
aV\u603b\u8981
p1031
aV\u751f\u5feb
p1032
aV\u4e00\u8d77
p1033
aV\u6674\u5929
p1034
aV\u8ddf\u4e0d\u4e0a
p1035
aV\u8111\u888b
p1036
aV\u4e4b\u7c7b
p1037
aV\u773c\u955c
p1038
aV\u5956\u5b66\u91d1
p1039
aV\u6280\u80fd
p1040
aV\u6587\u5b57
p1041
aV\u4e0a\u5e1d
p1042
aV\u6bcf\u4e2a
p1043
aV\u7f51\u8d37
p1044
aV\u667a\u6167
p1045
aV\u4e0b\u73ed
p1046
aV\u8fd9\u4e48\u665a
p1047
aV\u6350\u94b1
p1048
aV\u5f00\u7a97
p1049
aV\u5929\u6daf
p1050
aV\u4e94\u5929
p1051
aV\u5730\u4e0a
p1052
aV\u957f\u6625
p1053
aV\u8fdf\u5230
p1054
aV\u7f51\u8d2d
p1055
aV\u4e00\u8d9f
p1056
aV\u5218\u7fd4
p1057
aVxkl
p1058
aVno
p1059
aV\u811a\u6b65
p1060
aVnb
p1061
aV\u8868\u767d
p1062
aV\u5fd8\u5e26
p1063
aV\u52a9\u624b
p1064
aV\u8c03\u67e5
p1065
aV\u513f\u5b50
p1066
aV\u6291\u90c1
p1067
aV\u5353\u8d8a
p1068
aV\u8981\u4e48
p1069
aV\u5e8a\u4e0a
p1070
aV\u73a9\u610f
p1071
aVtest
p1072
aV\u4ece\u6b64
p1073
aV\u5e72\u676f
p1074
aV\u9f3b\u5c4e
p1075
aV\u9ad8\u7ea7
p1076
aV\u9ad8\u6548
p1077
aV\u4e94\u5206\u949f
p1078
aV\u5bb3\u7f9e
p1079
aV\u534a\u5c9b
p1080
aV\u6843\u82b1
p1081
aV\u8ba4\u4e3a
p1082
aV\u80af\u5b9a
p1083
aV\u6bd5\u4e1a\u8bbe\u8ba1
p1084
aVHappy
p1085
aV\u89c4\u5f8b
p1086
aV\u6765\u5230
p1087
aV\u9996\u90fd\u56fd\u9645\u673a\u573a
p1088
aV99
p1089
aV\u8054\u901a
p1090
aV\u62b5\u8fbe
p1091
aV\u4e00\u8def
p1092
aV\u8650\u5fc3
p1093
aV\u4e09\u5929
p1094
aV\u6628\u5929
p1095
aV\u4e92\u8054\u7f51
p1096
aV\u4f53\u91cd
p1097
aV\u7f8e\u98df
p1098
aV\u7537\u751f
p1099
aV\u9ad8\u6570
p1100
aV\u653e\u8fc7
p1101
aV\u6bd4\u5982
p1102
aV\u6625\u8fd0
p1103
aV\u8868\u60c5
p1104
aV\u61d2\u60f0
p1105
aV\u770b\u6765
p1106
aV\u6625\u6696\u82b1\u5f00
p1107
aV\u7b2c\u4e00\u8282
p1108
aV\u540e\u53f0
p1109
aVV3
p1110
aV\u8003\u5b8c\u8bd5
p1111
aV\u9001\u7ed9
p1112
aV\u5207\u514b
p1113
aV\u6f47\u6d12
p1114
aV\u6e10\u6e10
p1115
aV\u91cd\u8fd4
p1116
aV\u4e09\u56fd
p1117
aV\u522b\u70e6
p1118
aV\u53f7\u7801
p1119
aV\u73b0\u573a
p1120
aV\u901a\u77e5
p1121
aV\u8868\u6f14
p1122
aV\u5f53\u4e0b
p1123
aV\u5168\u7a0b
p1124
aV\u5973\u513f
p1125
aV\u901a\u8baf\u5f55
p1126
aV\u59d4\u5c48
p1127
aV\u7eff\u8336
p1128
aV\u5317\u6768\u6d3c
p1129
aVFacebook
p1130
aV\u73b0\u5728
p1131
aV\u5982\u4f55\u662f\u597d
p1132
aV\u53ef\u7231
p1133
aV\u670d\u52a1
p1134
aV\u6c14\u6b7b
p1135
aV\u8bb0\u5f55
p1136
aV\u70e6\u6b7b
p1137
aV\u868a\u5b50
p1138
aV\u5fc3\u60c5
p1139
aV\u897f\u8def
p1140
aV\u9ed8\u9ed8
p1141
aV\u897f\u74dc
p1142
aVsigh
p1143
aV\u5916\u52a0
p1144
aV\u8bf7\u5047
p1145
aVdin
p1146
aV\u9893\u5e9f
p1147
aVU\u76d8
p1148
aV\u5feb\u6765
p1149
aV\u5f02\u5e38
p1150
aV\u5e73\u53f0
p1151
aV\u6bdb\u7ebf
p1152
aV\u624b\u8d31
p1153
aV\u7edd\u4e0d\u80fd
p1154
aV\u6253\u8d4f
p1155
aV\u4f9d\u65e7
p1156
aV\u6587\u4ef6\u5939
p1157
aV\u610f\u5927\u5229
p1158
aV\u722c\u5c71
p1159
aV\u5fc3\u60f3
p1160
aV\u8001\u4eba
p1161
aV\u6050\u60e7
p1162
aV\u4e00\u8282
p1163
aV\u8f85\u5bfc\u5458
p1164
aV\u8868\u8fbe
p1165
aV\u6d6a\u8d39
p1166
aV\u91c7\u8bbf
p1167
aV\u8fc7\u671f
p1168
aV\u597d\u51e0\u4e2a
p1169
aV\u5fc3\u6001
p1170
aV\u80cc\u5f71
p1171
aV\u6559\u5ba4
p1172
aV\u4e0a\u8f88\u5b50
p1173
aV\u65ad\u7f51
p1174
aV\u5a01\u864e\u5c71
p1175
aV\u5306\u5306
p1176
aV\u8f6c\u53d1
p1177
aV\u4f46\u613f
p1178
aV\u9707\u60ca
p1179
aV\u90a3\u5c0f\u6c34
p1180
aV\u7701\u94b1
p1181
aV\u7761\u4e00\u89c9
p1182
aV\u6c38\u4e0d
p1183
aV\u8bdd\u8d39
p1184
aV\u5e02\u573a
p1185
aV\u597d\u591a\u5e74
p1186
aV\u563b\u563b
p1187
aV\u540d\u5b57
p1188
aV\u6298\u817e
p1189
aV\u8fd0\u6c14
p1190
aVbm
p1191
aV\u5348\u7761
p1192
aV\u96f7\u519b
p1193
aV\u79d1\u6bd4
p1194
aV\u661f\u6cb3
p1195
aV\u4e2a\u5934
p1196
aV\u4eba\u6765
p1197
aV\u6c11\u4e3b
p1198
aV\u597d\u8bc4
p1199
aV\u90a3\u53e5
p1200
aV\u9700\u6c42
p1201
aV\u65e0\u5173
p1202
aV\u7ed9\u529b
p1203
aV\u8bb0\u5fc6
p1204
aV\u610f\u5916
p1205
aV\u603b\u662f
p1206
aV\u591a\u5c11
p1207
aV\u4f20\u5947
p1208
aV\u6211\u5011
p1209
aV\u56fd\u5b89
p1210
aV\u5fc3\u60f3\u4e8b\u6210
p1211
aV\u60f3\u60f3
p1212
aV\u5f00\u95e8
p1213
aV\u7236\u6bcd
p1214
aV\u8fd9\u8fb9
p1215
aV\u6cea\u6d41\u6ee1\u9762
p1216
aV\u5e74\u7eaa
p1217
aV\u5783\u573e
p1218
aV\u90e8\u95e8
p1219
aV\u540c\u610f
p1220
aV\u65f6\u4e0d\u65f6
p1221
aV\u539f\u6765
p1222
aV\u63a8\u9001
p1223
aV\u6253\u5370
p1224
aV1.5
p1225
aV\u8fd9\u4e48
p1226
aVlove
p1227
aV\u8bdd\u7b52
p1228
aV\u7537\u7bee
p1229
aV\u9a6c\u6765\u897f\u4e9a
p1230
aV\u6d59\u6c5f
p1231
aV\u77db\u76fe
p1232
aV\u604b\u7231
p1233
aV\u8bd5\u7528
p1234
aV\u5c5e\u4e8e
p1235
aV\u7ea2\u7c73
p1236
aV\u5fae\u535a\u53f7
p1237
aV\u5750\u5728
p1238
aV\u7238\u5988
p1239
aV\u521b\u65b0
p1240
aV\u61d2\u61d2
p1241
aV\u5c81\u6570
p1242
aV\u590d\u65e6
p1243
aV\u6751\u5b98
p1244
aV\u7ef4\u7ef4
p1245
aV\u5f00\u542f
p1246
aV\u98ce\u91c7
p1247
aV\u4e00\u5927\u5806
p1248
aVmsn
p1249
aV\u8db3\u5f69
p1250
aV\u4fee\u517b
p1251
aViphone
p1252
aV\u5b9e\u4e60
p1253
aV\u68ee\u6797
p1254
aV\u4e09\u4f53
p1255
aV\u534f\u4f1a
p1256
aV\u795e\u79d8
p1257
aV\u6559\u6388
p1258
aV\u975e\u8bda
p1259
aV\u6b63\u5728
p1260
aV\u7c89\u4e1d
p1261
aV\u5168\u4e16\u754c
p1262
aV\u590f\u5929
p1263
aV\u505a\u6210
p1264
aV\u65e9\u5c31
p1265
aV\u963f\u68ee\u7eb3
p1266
aV\u751c\u751c
p1267
aV\u4e00\u9635
p1268
aV\u597d\u6b79
p1269
aV\u6bd5\u7adf
p1270
aV\u6d41\u91cf
p1271
aV\u5934\u53d1
p1272
aV\u996e\u6599
p1273
aV\u656c\u8bf7\u671f\u5f85
p1274
aV\u51fa\u6e38
p1275
aVApphttp
p1276
aV\u7b2c\u4e00\u4ef6
p1277
aV\u632b\u6298
p1278
aV\u51e4\u51f0
p1279
aV\u52e4\u594b
p1280
aV\u8fd9\u4e2a
p1281
aV\u53d1\u5c55
p1282
aV\u597d\u73a9\u513f
p1283
aV\u51fa\u56fd
p1284
aV\u4e86\u4e0d\u8d77
p1285
aV\u8fc7\u4e0d\u53bb
p1286
aV\u5706\u6ee1
p1287
aV\u62dc\u4ec1
p1288
aV\u597d\u4e45\u6ca1
p1289
aV\u5b8c\u7ed3
p1290
aV\u6c38\u8fdc
p1291
aV\u7b2c\u4e8c\u5b63
p1292
aV\u820d\u53cb
p1293
aV\u4e8b\u5b9e
p1294
aV\u5c31\u662f
p1295
aV\u6c89\u9ed8
p1296
aV\u90a3\u4e00\u523b
p1297
aV\u7fbd\u6bdb\u7403
p1298
aV\u58ee\u54c9
p1299
aViPhone6
p1300
aV\u54ea\u5bb6
p1301
aV\u7d27\u5f20
p1302
aV\u5168\u5bb6
p1303
aV\u7537\u5b69
p1304
aV\u80f3\u818a
p1305
aV.......
p1306
aV\u4efb\u4f55\u4eba
p1307
aV\u6676\u6676
p1308
aV\u660e\u513f
p1309
aV\u4e91\u6735
p1310
aV\u5b89\u5fc3
p1311
aV\u60f3\u8981
p1312
aV\u4f11\u606f
p1313
aV\u6e29\u5ea6
p1314
aV\u6881\u535a
p1315
aV\u5df4\u897f
p1316
aV\u591c\u6df1\u4eba\u9759
p1317
aV\u6709\u7a7a
p1318
aV\u89c6\u89c9
p1319
aV\u6821\u5e86
p1320
aVbless
p1321
aVget
p1322
aV\u7f8e\u7684
p1323
aV\u51c9\u5feb
p1324
aV\u505c\u8f66
p1325
aV\u4e61\u9053
p1326
aV\u53bb\u8fc7
p1327
aV\u5173\u952e
p1328
aV\u8fdb\u6b65
p1329
aV\u6c34\u5229
p1330
aV\u76f8\u5f53
p1331
aV\u822a\u7ad9\u697c
p1332
aV\u6eda\u86cb
p1333
aV\u8fd9\u4ef6
p1334
aV\u5317\u5927
p1335
aV\u541b\u5b50
p1336
aV\u9884\u6d4b
p1337
aV\u534a\u5c0f\u65f6
p1338
aV\u6960\u5583
p1339
aV\u8ff7\u8def
p1340
aV\u6587\u4ef6
p1341
aV\u540e\u4f1a\u65e0\u671f
p1342
aV\u597d\u597d\u5b66\u4e60
p1343
aV\u8fd0\u52bf
p1344
aV\u539f\u672c
p1345
aV\u8fd9\u4e9b
p1346
aV\u7f8e\u56fd
p1347
aV\u63d0\u4ea4
p1348
aV\u4e24\u70b9
p1349
aV\u5348\u4f11
p1350
aV\u5e74\u9f84
p1351
aV\u592a\u5927
p1352
aV\u6c34\u5229\u7cfb
p1353
aV\u77e5\u8db3
p1354
aV\u795e\u5947
p1355
aV\u6551\u6551
p1356
aV\u5b66\u751f\u5bbf\u820d
p1357
aV\u5220\u9664
p1358
aV\u73ed\u8f66
p1359
aV\u592a\u591a
p1360
aV\u57ce\u5e02
p1361
aV\u65e9\u4e0a\u597d
p1362
aV\u672c\u4eba
p1363
aV\u505a\u597d
p1364
aV\u597d\u4e66
p1365
aV\u8bc4\u8bba
p1366
aV\u6d4b\u8bd5
p1367
aV\u4e0a\u706b
p1368
aVsb
p1369
aV\u603b\u6709
p1370
aV\u5357\u6c60\u5b50
p1371
aV\u542c\u542c
p1372
aV\u5927\u8fde\u5e02
p1373
aV\u597d\u6837
p1374
aV\u53f0\u98ce
p1375
aV\u5b9d\u5b9d
p1376
aV\u79ef\u5206
p1377
aV\u5168\u8eab
p1378
aV\u5f77\u5fa8
p1379
aV\u66a7\u6627
p1380
aV\u6709\u79cd
p1381
aVS23
p1382
aV\u5408\u9002
p1383
aV\u7ee7\u7eed
p1384
aV\u6559\u5b66
p1385
aV\u809a\u5b50
p1386
aV\u5e08\u5f1f
p1387
aV\u4e0d\u5fc5
p1388
aV\u5973\u4eba
p1389
aV\u77e5\u4e4e
p1390
aV\u5ba4\u53cb
p1391
aV\u4e0a\u53bb
p1392
aV\u4e0d\u5fcd
p1393
aV\u593a\u51a0
p1394
aV\u4eba\u6587
p1395
aV\u5c3c\u739b
p1396
aV\u7968\u9009
p1397
aV\u4e2a\u4eba
p1398
aV\u4e00\u6761\u8857
p1399
aV\u54b1\u4fe9
p1400
aV\u5357\u5317
p1401
aV\u8003\u7814
p1402
aV\u54fc\u54fc
p1403
aV\u624b\u6709\u4f59\u9999
p1404
aV\u575a\u51b3
p1405
aV\u542c\u8fc7
p1406
aV\u5f00\u7740
p1407
aV\u673a\u7968
p1408
aV\u8981\u4e0d\u662f
p1409
aV\u51b7\u6f20
p1410
aV\u4eac\u4e1c
p1411
aV\u65b0\u6280\u80fd
p1412
aV\u50bb\u773c
p1413
aV\u5199\u7ed9
p1414
aV\u5934\u50cf
p1415
aV\u53e8\u53e8
p1416
aV\u89c1\u9762
p1417
aV\u9006\u5929
p1418
aV\u5e7f\u573a
p1419
aV\u63a8\u649e
p1420
aV\u8fd9\u8f88\u5b50
p1421
aV\u5927\u8f6c\u76d8
p1422
aV\u827e\u739b
p1423
aV\u5929\u5929\u5f00\u5fc3
p1424
aV\u6708\u997c
p1425
aV\u5e86\u5e78
p1426
aV\u8fd9\u8d27
p1427
aV\u8fc7\u4e2a
p1428
aV\u4e0a\u73ed
p1429
aV\u9053\u6b49
p1430
aV12306
p1431
aV\u4e00\u6574\u5929
p1432
aV\u544a\u522b
p1433
aV\u5e73\u51e1
p1434
aV\u6559\u80b2
p1435
aV85
p1436
aV13521425356
p1437
aV\u4e0a\u763e
p1438
aV\u602a\u517d
p1439
aV\u7537\u670b\u53cb
p1440
aV\u68a6\u60f3
p1441
aV\u4ebf\u8fbe
p1442
aV\u6211\u7279
p1443
aV\u6700\u7f8e
p1444
aV\u7259\u75bc
p1445
aV\u8116\u5b50
p1446
aV\u5317\u4eac\u897f\u7ad9
p1447
aV\u4efb\u52a1
p1448
aV26
p1449
aV\u8349\u6ce5\u9a6c
p1450
aV\u5916\u5356
p1451
aV\u6d6a\u6f2b
p1452
aV\u6f14\u51fa
p1453
aV\u5c0f\u8bf4
p1454
aV\u52a8\u8f66
p1455
aV\u71ac\u591c
p1456
aV\u8fdb\u884c
p1457
aV\u5973\u4e3b
p1458
aV\u9084\u662f
p1459
aV\u5927\u534a\u591c
p1460
aV\u91cd\u5e86
p1461
aV\u518d\u89c1
p1462
aV\u9ed1\u6697
p1463
aV\u5927\u5b66
p1464
aV\u5929\u6d25
p1465
aV\u6a21\u578b
p1466
aV\u9ad8\u6821
p1467
aV\u7edd\u5bf9
p1468
aV\u5b9e\u8df5
p1469
aV\u6cae\u4e27
p1470
aV\u806a\u660e
p1471
aV\u8ba1\u5212
p1472
aV\u4e0d\u9f50
p1473
aV\u98df\u7269
p1474
aV\u5145\u7535
p1475
aV\u7528\u5fc3
p1476
aV\u51e1\u4e8b
p1477
aV\u91d1\u79c0\u8d24
p1478
aV\u5413\u4eba
p1479
aV\u54e5\u54e5
p1480
aV\u7f16\u7a0b
p1481
aVorz
p1482
aV\u559d\u9152
p1483
aV\u6211\u7238
p1484
aV\u8bbe\u8ba1\u5e08
p1485
aV\u8bdd\u9898
p1486
aV\u552f\u4e00
p1487
aV\u56db\u5e74
p1488
aV\u52a8\u6f2b
p1489
aV\u4e0a\u5348
p1490
aV\u8fc7\u654f
p1491
aV\u4e0d\u592a\u597d
p1492
aV___
p1493
aV\u6ed1\u96ea
p1494
aV\u8f6c\u773c
p1495
aV\u4e00\u5207\u987a\u5229
p1496
aV\u5217\u8f66
p1497
aV\u65f6\u8282
p1498
aV\u72fc\u56fe\u817e
p1499
aV\u672b\u65e5
p1500
aV\u4e0d\u5f03
p1501
aV\u597d\u68d2
p1502
aV\u5c24\u6587
p1503
aV\u6211\u521a
p1504
aV\u5973\u5b69\u513f
p1505
aV\u5458\u5de5
p1506
aV\u5355\u4f4d
p1507
aV\u7761\u89c9
p1508
aV\u795e\u9a6c
p1509
aV\u80a5\u725b
p1510
aV\u6253\u7535\u8bdd
p1511
aV\u6700\u597d
p1512
aV\u4e8b\u5b9e\u8bc1\u660e
p1513
aV1000
p1514
aV\u529e\u6cd5
p1515
aV\u793e\u533a
p1516
aVxi
p1517
aV\u8054\u7cfb
p1518
aV\u51bb\u6b7b
p1519
aV\u65e0\u52a9
p1520
aV\u8ba1\u7b97\u673a
p1521
aVxx
p1522
aV\u5468\u8fb9
p1523
aV\u8f9e\u804c
p1524
aV\u54ea\u5929
p1525
aV\u5355\u8eab
p1526
aV\u88d9\u5b50
p1527
aV\u62f3\u5934
p1528
aVios7
p1529
aV\u6211\u53d1
p1530
aV\u590d\u8bd5
p1531
aV\u505c\u7535
p1532
aV\u671f\u4e2d\u8003\u8bd5
p1533
aV23
p1534
aV\u4fdd\u4f51
p1535
aV\u559d\u70b9
p1536
aV\u60a3\u8005
p1537
aV\u5c0f\u59d1\u5a18
p1538
aV##
p1539
aV\u7b2c\u4e8c\u5929
p1540
aV\u4e16\u95f4
p1541
aV\u5927\u6982
p1542
aV\u65e0\u529b
p1543
aV\u653e\u5f03
p1544
aV\u54b1\u4eec
p1545
aV\u6d4e\u5357
p1546
aV\u8ba8\u8bba
p1547
aV\u5bd2\u51b7
p1548
aV\u788e\u89c9
p1549
aV\u51e0\u96c6
p1550
aV\u6709\u4f55
p1551
aV\u77f3\u5bb6\u5e84
p1552
aV\u884c\u52a8
p1553
aV\u56fd\u8d38
p1554
aV\u6df1\u60c5
p1555
aVpush
p1556
aV\u672c\u79d1
p1557
aV\u4f53\u80b2\u573a
p1558
aV\u7f8e\u5473
p1559
aV\u516d\u6559
p1560
aV\u9ad8\u65b0
p1561
aV11
p1562
aV10
p1563
aV13
p1564
aV12
p1565
aV15
p1566
aV14
p1567
aV17
p1568
aV16
p1569
aV19
p1570
aV18
p1571
aV\u56de\u4eac
p1572
aV\u7b80\u7b80\u5355\u5355
p1573
aV\u5065\u8eab\u623f
p1574
aV\u76f4\u64ad
p1575
aV\u9ebb\u5c06
p1576
aV\u603b\u4f1a
p1577
aV\u5c0f\u670b\u53cb
p1578
aV\u82f1\u8bed
p1579
aV\u8bd5\u7740
p1580
aV\u6e05\u6cb3
p1581
aV\u5207\u5c14\u897f
p1582
aV\u827e\u7279
p1583
aV\u53e3\u7f69
p1584
aV\u5956\u54c1
p1585
aV\u7eaa\u5ff5\u65e5
p1586
aV\u62db\u8058
p1587
aV\u4e16\u754c
p1588
aV\u9b3c\u8138
p1589
aV\u90a3\u70b9
p1590
aVstyle
p1591
aV\u7537\u5973
p1592
aV\u7f3a\u70b9
p1593
aV\u79fb\u52a8
p1594
aV\u53ea\u4e0d\u8fc7
p1595
aV\u5361\u897f
p1596
aV\u5b66\u672f
p1597
aV\u7126\u8651
p1598
aV\u98ce\u534e
p1599
aV\u76d8\u9526
p1600
aV\u8881\u5cb3
p1601
aV\u4e4b\u4e8c
p1602
aV\u897f\u4e09\u73af
p1603
aV\u9178\u75db
p1604
aV\u9760\u8fd1
p1605
aV\u771f\u8bda
p1606
aV\u7537\u795e
p1607
aV\u5723\u8bde\u5feb\u4e50
p1608
aV\u7403\u738b
p1609
aV200
p1610
aV\u4e2d\u6587
p1611
aV\u4e0d\u5e26
p1612
aV250
p1613
aV\u5fc3\u597d
p1614
aV\u627e\u5230
p1615
aV\u6700\u7ec8
p1616
aV\u4e2a\u8d5e
p1617
aV\u62dc\u6258
p1618
aV\u56fe\u4e66\u9986
p1619
aV\u4f9d\u7136
p1620
aV\u521a\u521a
p1621
aV\u4f5c\u54c1
p1622
aV\u7761\u4e0d\u9192
p1623
aV\u5973\u53cb
p1624
aV\u771f\u597d
p1625
aV\u613f\u671b
p1626
aV\u8033\u6735
p1627
aV\u7ec3\u4e60
p1628
aV\u5e26\u611f
p1629
aV\u897f\u76f4\u95e8
p1630
aV\u9664\u4e86
p1631
aV\u4e3b\u6301
p1632
aV\u897f\u5357\u98ce
p1633
aV\u5c06\u6765
p1634
aV\u9634\u9669
p1635
aV\u653e\u5fc3
p1636
aV\u597d\u89c9
p1637
aV\u539f\u56e0
p1638
aV\u4e0d\u77e5
p1639
aV\u6350\u7269
p1640
aVQAQ
p1641
aV\u56fd\u8db3
p1642
aV\u6253\u7b97
p1643
aV\u52d2\u5e03\u6717
p1644
aV\u5927\u4eba
p1645
aV\u6c99\u9f99
p1646
aV\u5f7c\u6b64
p1647
aV\u7403\u5458
p1648
aV\u65e9\u996d
p1649
aV\u53cc\u9c7c
p1650
aV\u8def\u4e0a
p1651
aV\u78b0\u5230
p1652
aV\u6d3b\u52a8
p1653
aV\u6700\u5927
p1654
aV\u83b7\u53d6
p1655
aV\u6807\u7b7e
p1656
aV\u5730\u65b9
p1657
aV\u96f7\u950b
p1658
aV\u654f\u611f
p1659
aVonly
p1660
aV\u8bb2\u5ea7
p1661
aV\u65c5\u6e38
p1662
aV\u5de5\u7a0b\u5b66\u9662
p1663
aV\u5927\u4e8c
p1664
aV\u5927\u4e8b
p1665
aV\u5149\u76d8
p1666
aV\u535a\u6587
p1667
aV\u653f\u6cbb
p1668
aV\u60ca\u8273
p1669
aV\u7728\u773c
p1670
aV\u79cb\u88e4
p1671
aV\u6bcf\u65e5
p1672
aV\u5f3a\u8feb\u75c7
p1673
aV\u8f6c\u5708
p1674
aV\u5f97\u745f
p1675
aV\u5634\u91cc
p1676
aV\u4e00\u987f\u996d
p1677
aV\u7ec4\u4f1a
p1678
aV\u534e\u4e3d
p1679
aV\u79d1\u5b66
p1680
aV\u4e00\u665a
p1681
aV\u53d1\u7968
p1682
aV\u5185\u5bb9
p1683
aV\u5c0f\u5b69\u5b50
p1684
aV\u4e13\u4e1a
p1685
aV\u4e16\u754c\u676f
p1686
aV\u4efb\u4f55
p1687
aV\u7eb8\u724c
p1688
aV\u4e0d\u5982
p1689
aV\u8fd9\u6b21
p1690
aV\u5f88\u60f3
p1691
aV\u820c\u5934
p1692
aV\u53ea\u8981
p1693
aV\u597d\u4e45
p1694
aV\u6709\u94b1
p1695
aV\u5c0f\u8d1d
p1696
aV\u6728\u6709
p1697
aV\u597d\u4e8b
p1698
aV\u6bd4\u5206
p1699
aV\u5fae\u535a\u4e0a
p1700
aV\u5c4f\u5e55
p1701
aV\u76f4\u63a5
p1702
aV\u70b9\u4e2a
p1703
aV\u75b2\u60eb
p1704
aV\u7535\u8bdd
p1705
aV\u9700\u8981
p1706
aV\u5faa\u73af
p1707
aV\u4e27\u5931
p1708
aV\u53ef\u601c
p1709
aV\u5ba3\u8bb2\u4f1a
p1710
aV\u53ef\u4e0d\u53ef\u4ee5
p1711
aV\u5367\u69fd
p1712
aV\u5165\u5b66
p1713
aV\u5e95\u7ebf
p1714
aV\u597d\u4eba
p1715
aV\u4e00\u5929\u5929
p1716
aV\u5f3a\u6c42
p1717
aV\u7761\u61d2\u89c9
p1718
aV\u4e0d\u597d
p1719
aV\u5fae\u7b11
p1720
aV\u81f3\u6781
p1721
aV\u65f6\u7a7a
p1722
aV\u516c\u4ea4\u8f66
p1723
aVweibo
p1724
aV\u7f51\u6613
p1725
aV\u597d\u5f00\u5fc3
p1726
aV\u9ad8\u4e2d
p1727
aV\u670b\u53cb
p1728
aV\u4e2d\u6587\u7248
p1729
aV\u771f\u4e0d\u9519
p1730
aV\u52b2\u513f
p1731
aV\u6d66\u4e1c
p1732
aV\u6d17\u4e2a
p1733
aV\u6210\u5e9c
p1734
aVMIT
p1735
aV\u786c\u4ef6
p1736
aV\u9690\u79c1
p1737
aV\u4f53\u9a8c
p1738
aV\u8d8a\u6765\u8d8a
p1739
aV\u8bc4\u4ef7
p1740
aV\u5bb6\u8bbf
p1741
aV\u5965\u7279\u66fc
p1742
aV\u5927\u4e09
p1743
aV\u4e2d\u5927\u5956
p1744
aV\u670d\u88c5
p1745
aV\u8d77\u6765
p1746
aV\u5934\u6655
p1747
aV\u5012\u6570
p1748
aV\u5148\u751f
p1749
aV\u9879\u76ee
p1750
aV\u65b0\u6625\u5feb\u4e50
p1751
aV\u5bf9\u9762
p1752
aV\u505c\u6c34
p1753
aV\u4e0d\u592a
p1754
aV\u4e70\u4e70
p1755
aV27
p1756
aV\u9053\u8def
p1757
aV\u70ed\u60c5
p1758
aV\u6210\u7ee9
p1759
aV\u5ab3\u5987
p1760
aV\u5bb6\u957f
p1761
aV\u52a9\u6559
p1762
aV\u8282\u65e5
p1763
aV\u751f\u547d
p1764
aV\u4ece\u4e0d
p1765
aV\u5b63\u8282
p1766
aV\u9707\u64bc
p1767
aV\u592a\u5c11
p1768
aV\u6bd5\u4e1a\u5178\u793c
p1769
aV\u592a\u5c0f
p1770
aV\u7231\u662f
p1771
aV\u54ea\u6015
p1772
aV\u800c\u5df2
p1773
aV\u4e0d\u591f
p1774
aV\u5e26\u8d70
p1775
aV\u5ff5\u5ff5\u4e0d\u5fd8
p1776
aV\u6545\u4e8b
p1777
aV150
p1778
aV\u623f\u4ef7
p1779
aV\u7761\u4e0d\u7740
p1780
aV\u6295\u8d44
p1781
aV29
p1782
aV60
p1783
aV\u592a\u5dee
p1784
aV\u6bd5\u8bbe
p1785
aV\u82f1\u8d85
p1786
aV\u8fc7\u8282
p1787
aV66
p1788
aV\u6c14\u6e29
p1789
aV\u70ed\u70c8\u5e86\u795d
p1790
aV\u51e0\u70b9
p1791
aV\u4e00\u671f
p1792
aV\u6ee1\u8111\u5b50
p1793
aV\u6b23\u6170
p1794
aV\u7238\u7238\u5988\u5988
p1795
aV\u6a31\u82b1
p1796
aV\u6d17\u6fa1
p1797
aV\u91cd\u590d
p1798
aV\u59d1\u5a18
p1799
aV\u59e8\u5988
p1800
aV\u4e09\u53f7
p1801
aVdlut
p1802
aV\u5de5\u4f5c
p1803
aV\u5468\u4e09
p1804
aV\u6ce8\u518c
p1805
aV\u624b\u6c14
p1806
aV\u518d\u4e5f
p1807
aV\u4e09\u5206
p1808
aV\u6781\u597d
p1809
aV\u8eab\u4f53\u5065\u5eb7
p1810
aV500
p1811
aV\u56fe\u7247
p1812
aV\u7206\u53d1
p1813
aV\u81ea\u52a9
p1814
aV\u4e0d\u80fd\u4e0d\u8981
p1815
aV\u5149\u534e\u8def
p1816
aV\u5e86\u795d
p1817
aV\u7f8e\u5267
p1818
aV\u7206\u7b11
p1819
aV\u7b14\u8bb0
p1820
aV\u674e\u6613\u5cf0
p1821
aV\u6050\u6016
p1822
aV\u751f\u75c5
p1823
aV\u771f\u5fc3
p1824
aV\u4e22\u4eba
p1825
aV\u706b\u8f66
p1826
aV\u62b1\u62b1
p1827
aV\u949f\u6c49\u826f
p1828
aV\u786c\u4f24
p1829
aV\u4e00\u6761
p1830
aV\u66f2\u827a\u56e2
p1831
aV\u5927\u8fde
p1832
aV\u4e00\u676f
p1833
aV\u7406\u89e3
p1834
aV\u5931\u8d25
p1835
aV\u804a\u5929
p1836
aV\u751f\u5b58
p1837
aV\u62a5\u544a\u5385
p1838
aV\u8fdc\u8def
p1839
aV\u8046\u542c
p1840
aV\u66f4\u52a0
p1841
aV\u9ebb\u70e6
p1842
aV\u540c\u6027\u604b
p1843
aV\u62b5\u5236
p1844
aV\u4eca\u665a
p1845
aV\u5efa\u5de5
p1846
aV\u903c\u683c
p1847
aV\u53d8\u6001
p1848
aV\u5e74\u8f7b\u4eba
p1849
aV\u5f69\u7968
p1850
aV\u4e2d\u56fd\u79fb\u52a8
p1851
aV\u4f60\u5bb6
p1852
aV\u5e26\u6765
p1853
aV\u4e00\u679a
p1854
aV\u6216\u662f
p1855
aV\u521b\u610f
p1856
aV\u65b9\u4fbf\u9762
p1857
aV\u8f6c\u76d8
p1858
aV\u4e0d\u987a
p1859
aV\u5927\u4f17
p1860
aV\u66fc\u8054
p1861
aV\u62bd\u5956
p1862
aV\u68c0\u67e5
p1863
aV\u5b59\u6960
p1864
aVXXX
p1865
aV\u5927\u4f1a
p1866
aV\u5468\u4e94
p1867
aV\u5927\u5927\u7684
p1868
aVhtml
p1869
aVpad
p1870
aV\u559d\u5496\u5561
p1871
aV\u6d17\u6f31
p1872
aV\u6b3a\u9a97
p1873
aV\u4ef7\u503c\u89c2
p1874
aV\u5341\u5206\u949f
p1875
aV\u714e\u71ac
p1876
aV\u5f62\u8c61
p1877
aV\u4e8c\u53f7\u697c
p1878
aV\u5165\u804c
p1879
aV\u8282\u64cd
p1880
aV\u6392\u7ec3
p1881
aV\u592a\u597d\u4e86
p1882
aV\u5317\u56db\u73af
p1883
aV\u5bc6\u7801
p1884
aV\u592a\u7d2f
p1885
aV\u591a\u591a
p1886
aV\u54a8\u8be2\u4f1a
p1887
aV\u7070\u59d1\u5a18
p1888
aV\u6211\u7528
p1889
aV\u65e0\u8bed
p1890
aV\u4eba\u8270
p1891
aV\u5bb9\u6613
p1892
aV\u5c31\u7b97
p1893
aV\u7559\u5728
p1894
aV\u5373\u4f7f
p1895
aV\u591a\u5929
p1896
aV\u6211\u9519
p1897
aV\u4e00\u9762
p1898
aV\u6fc0\u52a8
p1899
aV\u5220\u6389
p1900
aV\u6545\u4e61
p1901
aV\u81ea\u4e60\u5ba4
p1902
aV\u7b2c\u4e00\u6761
p1903
aV\u5e72\u6d3b
p1904
aV\u613f\u610f
p1905
aV\u6539\u540d
p1906
aV\u4e71\u4e03\u516b\u7cdf
p1907
aV\u4e86\u89e3
p1908
aV\u52c7\u6562
p1909
aV\u591a\u529f\u80fd\u5385
p1910
aV\u6c42\u95ee
p1911
aV\u5c71\u8def
p1912
aVtsinghua
p1913
aV\u98ce\u96e8
p1914
aV\u6210\u5c31
p1915
aV\u4e94\u70b9
p1916
aV\u91d1\u67f3\u8def
p1917
aV\u5c71\u4e1c
p1918
aV\u603b\u80fd
p1919
aV\u5409\u4ed6
p1920
aV\u8db3\u7403
p1921
aV\u770b\u4e0d\u4e0b\u53bb
p1922
aV\u8bf4\u8bdd
p1923
aV\u978d\u5c71
p1924
aV\u51fa\u53bb\u73a9
p1925
aV\u6c14\u8d28
p1926
aV\u76f8\u58f0
p1927
aVC\u8bed\u8a00
p1928
aVcn
p1929
aV\u6628\u665a
p1930
aV\u65e0\u6240\u8c13
p1931
aV\u771f\u8ba9\u4eba
p1932
aV\u9ec4\u6d66
p1933
aV\u53cd\u800c
p1934
aV\u673a\u68b0
p1935
aV\u770b\u4e00\u904d
p1936
aV\u7136\u540e
p1937
aV\u597d\u60f3\u4f60
p1938
aV\u9009\u62e9
p1939
aV\u6295\u884c
p1940
aV\u73ab\u7470
p1941
aV\u667a\u80fd
p1942
aV\u4eca\u65e9
p1943
aV\u53cd\u601d
p1944
aV\u4eca\u65e5
p1945
aV\u9a84\u50b2
p1946
aV\u4e00\u5708
p1947
aV\u4e1c\u95e8
p1948
aV75
p1949
aV\u653e\u7a7a
p1950
aV\u9ed1\u8272
p1951
aV\u4e0d\u7ba1
p1952
aV\u522b\u7684
p1953
aVcomhttp
p1954
aV\u4ece\u6ca1
p1955
aV\u7b49\u4f60\u62ff
p1956
aV\u968f\u4fbf
p1957
aV\u6210\u529f
p1958
aV\u75d8\u75d8
p1959
aV\u6c7d\u8f66
p1960
aV\u4e24\u573a
p1961
aV\u5176\u5b9e
p1962
aV\u7855\u58eb
p1963
aV\u5976\u5976
p1964
aV\u7740\u5b9e
p1965
aV\u6548\u7387
p1966
aV\u521d\u604b
p1967
aV\u4e09\u70b9
p1968
aV\u62db\u65b0
p1969
aV\u53cb\u60c5
p1970
aV\u95f9\u5fc3
p1971
aV\u56f0\u96be
p1972
aV\u5355\u8bcd
p1973
aV\u542c\u8bf4
p1974
aV\u5c0f\u4f19
p1975
aV\u6625\u665a
p1976
aV\u4f55\u5fc5
p1977
aV\u771f\u662f\u592a
p1978
aV\u9a6c\u523a
p1979
aV\u7a79\u9876
p1980
aV\u6e10\u884c
p1981
aV3000
p1982
aV\u963f\u897f
p1983
aV\u8fd8\u6709
p1984
aV\u684c\u9762
p1985
aV\u5bb6\u4e61
p1986
aV\u66b4\u529b
p1987
aV\u4e5d\u70b9
p1988
aV\u7f9e\u55d2
p1989
aV\u96ea\u82b1
p1990
aV\u89c9\u5f97
p1991
aV\u4e89\u53d6
p1992
aV\u5f00\u901a
p1993
aV\u9009\u624b
p1994
aV\u4e13\u6ce8
p1995
aV\u5750\u8f66
p1996
aV\u7231\u8fc7
p1997
aV\u6e05\u695a
p1998
aV\u53f7\u7ebf
p1999
aV\u7535\u89c6
p2000
aV\u5341\u51e0\u5e74
p2001
aV\u70ed\u8840
p2002
aV\u5b9e\u7528
p2003
aV\u5916\u9762
p2004
aV\u5927\u6c14
p2005
aV\u65e0\u7ebf
p2006
aV\u6e38\u620f
p2007
aV\u54b3\u55fd
p2008
aV\u732a\u732a
p2009
aV\u804c\u4f4d
p2010
aV\u5065\u7f8e\u64cd
p2011
aV\u6781\u7aef
p2012
aV\u5bf9\u9519
p2013
aV\u95ed\u5634
p2014
aV\u4e22\u5931
p2015
aV\u503c\u5f97\u7eaa\u5ff5
p2016
aV\u5143\u65e6
p2017
aVBerserK
p2018
aV\u73a9\u610f\u513f
p2019
aV\u4e00\u5982\u65e2\u5f80
p2020
aV\u73b0\u91d1
p2021
aV\u901b\u8857
p2022
aV\u521a\u770b
p2023
aV\u56f4\u8116
p2024
aV\u542c\u6b4c
p2025
aV\u6350\u6b3e
p2026
aV\u8f93\u7ed9
p2027
aV\u771f\u5feb
p2028
aV\u952e\u76d8
p2029
aV\u6ca1\u770b
p2030
aV\u5f00\u53d1
p2031
aV\u660e\u767d
p2032
aV\u714e\u997c
p2033
aV\u8981\u6765
p2034
aV\u793e\u56e2
p2035
aV\u611a\u4eba\u8282
p2036
aV\u55f7\u55f7
p2037
aV\u5386\u53f2
p2038
aVok
p2039
aV\u957f\u6c99
p2040
aV\u6ee8\u6d77\u516c\u8def
p2041
aV\u8352\u5e9f
p2042
aV\u8eab\u4f53
p2043
aV\u672c\u8d28
p2044
aV\u4e1c\u65b9
p2045
aV\u65e9\u5b89
p2046
aV\u8bfb\u61c2
p2047
aV\u540c\u684c
p2048
aV\u7eaf\u7cb9
p2049
aV\u592a\u5e05
p2050
aV\u4f01\u8fbe
p2051
aV\u5174\u8da3
p2052
aV\u6e29\u5dde
p2053
aV\u4e0d\u5230
p2054
aV\u5413\u6b7b
p2055
aV\u4e0d\u6765
p2056
aV\u95fb\u5230
p2057
aV\u53c2\u89c2
p2058
aV\u8e81\u72c2\u75c7
p2059
aV\u51b7\u7a7a\u6c14
p2060
aV\u9493\u9c7c\u5c9b
p2061
aV\u8ba2\u7968
p2062
aV\u6025\u9700
p2063
aV\u96c5\u601d
p2064
aV\u4e0b\u53bb
p2065
aV\u5b57\u5e55
p2066
aV\u4e00\u672c
p2067
aV\u592a\u5feb
p2068
aV\u7a7a\u95f4
p2069
aV\u808c\u8089
p2070
aV\u76c6\u53cb
p2071
aV\u5531\u6b4c
p2072
aV\u5927\u8fde\u7406\u5de5\u5927\u5b66
p2073
aV\u51fa\u884c
p2074
aV\u5934\u75bc
p2075
aV\u624b\u4e00
p2076
aV\u5b89\u597d
p2077
aV\u79d1\u7814
p2078
aV\u4eb2\u4eb2
p2079
aV\u7ea0\u7ed3
p2080
aV\u5de5\u8d44
p2081
aV\u6ca1\u4e8b
p2082
aV\u8f6c\u8f6c
p2083
aV\u4eb2\u4eba
p2084
aV\u4f24\u5bb3
p2085
aVlow
p2086
aV\u9ad8\u8003
p2087
aV\u5c0f\u79d8\u4e66
p2088
aV\u4e07\u7269
p2089
aV\u7b11\u82b1
p2090
aV\u8db3\u591f
p2091
aV\u5934\u75db
p2092
aV\u5fae\u98ce
p2093
aV\u7ecf\u6d4e
p2094
aV\u5343\u5143
p2095
aV\u660e\u77e5
p2096
aV\u6253\u6e38\u620f
p2097
aV\u6bb5\u5b50
p2098
aV\u9192\u6765
p2099
aV\u987a\u4fbf
p2100
aVPM2
p2101
aV\u7aef\u5348\u8282
p2102
aVwww
p2103
aV\u7231\u4e0a
p2104
aV\u5468\u4e00
p2105
aV\u4f60\u597d
p2106
aV\u793e\u79d1
p2107
aV\u5475\u5475
p2108
aV\u732b\u54aa
p2109
aV\u96f6\u4e0b
p2110
aV\u8bd5\u8bd5
p2111
aV\u79bb\u522b
p2112
aV\u4e0a\u6d77\u4ea4\u901a\u5927\u5b66
p2113
aV\u8f85\u8def
p2114
aV\u4eb2\u4eec
p2115
aV\u561f\u561f
p2116
aV\u9000\u5f79
p2117
aV\u6d6a\u8d39\u65f6\u95f4
p2118
aV\u4e00\u9897
p2119
aV\u5c11\u5973
p2120
aV\u5357\u4eac
p2121
aV600
p2122
aV\u6c5f\u5357style
p2123
aV\u65e5\u672c
p2124
aV\u6027\u683c
p2125
aV\u5c3c\u6cca\u5c14
p2126
aV\u6d17\u6d17
p2127
aV\u597d\u4e0d\u5bb9\u6613
p2128
aV\u88ab\u76d7
p2129
aV\u5dee\u8ddd
p2130
aV\u805a\u4f1a
p2131
aV\u53d8\u6210
p2132
aV\u4f60\u59b9
p2133
aV\u8fd9\u70b9
p2134
aV\u7b19\u7bab
p2135
aV\u8bf4\u597d
p2136
aV\u8179\u808c
p2137
aV\u4e00\u65a4
p2138
aV\u901d\u53bb
p2139
aV\u6062\u590d
p2140
aV\u6d88\u5931
p2141
aV\u4e0d\u77e5\u4e0d\u89c9
p2142
aV2000
p2143
aV1111
p2144
aV\u6362\u6210
p2145
aV\u5077\u7b11
p2146
aV\u65e9\u9910
p2147
aV\u95ed\u773c
p2148
aV\u72d7\u8840
p2149
aV\u62bd\u7b4b
p2150
aV\u4e0d\u6210
p2151
aV\u6cd5\u56fd
p2152
aV\u6587\u5316
p2153
aV\u6ca1\u610f\u601d
p2154
aV\u5fd9\u788c
p2155
aV\u4e24\u4ef6\u4e8b
p2156
aV\u5343\u91cc
p2157
aV\u7535\u6c60
p2158
aV\u65e5\u8d77
p2159
aV\u73ed\u4e3b\u4efb
p2160
aV\u6ee8\u6d77
p2161
aV\u534e\u6da6
p2162
aV\u7eff\u8272
p2163
aV\u7237\u7237
p2164
aV\u7cbe\u5f69
p2165
aV\u5c0f\u4eba
p2166
aV\u8865\u8d34
p2167
aV\u9ed8\u5951
p2168
aV\u63d0\u9ad8
p2169
aV\u843d\u6795
p2170
aV\u6625\u8282\u5feb\u4e50
p2171
aV\u8bc6\u522b
p2172
aV\u5c0f\u4e8b
p2173
aV\u65b9\u5f0f
p2174
aV\u559c\u7231
p2175
aV\u9047\u89c1
p2176
aV\u4eba\u6c11\u65e5\u62a5
p2177
aVwifi
p2178
aV\u5927\u8d5b
p2179
aV\u67ef\u51e1
p2180
aV\u65e0\u9650
p2181
aV\u5730\u94c1
p2182
aV\u8f6c\u94b1
p2183
aV\u6587\u732e
p2184
aV\u6dd8\u6c70
p2185
aV\u804c\u4e1a
p2186
aVfighting
p2187
aV\u53cc\u9f99
p2188
aV\u8fc7\u5f97
p2189
aV\u4fee\u884c
p2190
aV\u5fc3\u788e
p2191
aV\u597d\u723d
p2192
aV\u6c5f\u6e56
p2193
aV\u7cdf\u7cd5
p2194
aV\u901a\u8fc7
p2195
aV\u5343\u4e07
p2196
aV\u6e05\u5c0f\u534e
p2197
aV\u51cc\u6668
p2198
aV\u65e2\u7136
p2199
aV.....
p2200
aV\u6b4c\u66f2
p2201
aV\u8fc7\u5f80
p2202
aV\u78b0\u4e0a
p2203
aV\u51fa\u8f68
p2204
aV\u603b\u7ed3
p2205
aV\u6ee1\u8840
p2206
aV\u7ecf\u9a8c
p2207
aV\u7814\u4f1a
p2208
aV\u5403\u904d
p2209
aV\u732e\u7231\u5fc3
p2210
aV\u6ce8\u610f\u5b89\u5168
p2211
aV\u70b9\u5fc3
p2212
aV\u9996\u90fd\u673a\u573a
p2213
aVvs
p2214
aV\u661f\u8fb0
p2215
aV\u56fd\u5185
p2216
aV\u4f3c\u7684
p2217
aVtm
p2218
aV\u94ed\u8bb0
p2219
aVQQ233016185
p2220
aV\u60c6\u6005
p2221
aV\u5929\u6c14\u9884\u62a5
p2222
aV\u5206\u4eab
p2223
aV\u9006\u88ad
p2224
aV\u5168\u660e\u661f
p2225
aV\u8fce\u65b0
p2226
aV\u9ed1\u5c71
p2227
aV\u82b1\u82b1
p2228
aV\u62cd\u7167
p2229
aV\u5929\u7a7a
p2230
aV\u771f\u5fc3\u8bdd
p2231
aV\u4fee\u597d
p2232
aV\u516c\u77e5
p2233
aV\u4e0d\u65ad
p2234
aV\u62a2\u7968
p2235
aV\u515c\u515c
p2236
aV\u8282\u594f
p2237
aV\u52a0\u5fae
p2238
aV\u5fae\u520a
p2239
aV\u53f8\u6cd5\u8003\u8bd5
p2240
aVWindowsPhone8
p2241
aV\u91d1\u878d
p2242
aV\u897f\u95e8
p2243
aV\u795d\u798f
p2244
aV\u611f\u5174\u8da3
p2245
aV\u5e78\u8fd0
p2246
aV\u5dee\u522b
p2247
aV\u8111\u5b50\u91cc
p2248
aV______________________#
p2249
aV\u7f51\u7ad9
p2250
aV\u4e3b\u9898
p2251
aV\u4eba\u5fc3
p2252
aV\u5b9e\u5728
p2253
aV\u64c5\u957f
p2254
aV\u8fd9\u573a
p2255
aV\u5bf9\u8bdd
p2256
aV\u81ea\u5982
p2257
aV\u6838\u5fc3
p2258
aV\u6539\u6210
p2259
aV\u542c\u95fb
p2260
aV\u5927\u7237
p2261
aV\u5267\u900f\u614e\u5165
p2262
aV\u6bcf\u5929
p2263
aV\u4e0d\u6562
p2264
aV\u91cd\u64ad
p2265
aVZEALER
p2266
aV\u964d\u6e29
p2267
aV\u964d\u4e34
p2268
aV\u4e94\u4e2a
p2269
aV\u4ecb\u7ecd
p2270
aV\u5355\u8eab\u7537\u5973
p2271
aV\u65e9\u65e5
p2272
aV\u90a3\u6bb5
p2273
aV\u83ab\u8fc7\u4e8e
p2274
aV\u6562\u4e0d\u6562
p2275
aV\u516d\u7ea7
p2276
aV\u517b\u6210
p2277
aV\u770b\u8d77\u6765
p2278
aV\u4ece\u524d
p2279
aV\u4f55\u4ee5\u582a
p2280
aV\u4e0b\u4e2a\u6708
p2281
aV\u97e9\u5bd2
p2282
aV\u592a\u7ed9\u529b
p2283
aV\u4e0b\u6765
p2284
aVTHU
p2285
aV\u53cd\u5e94
p2286
aV\u6700\u65b0
p2287
aV\u62b1\u6028
p2288
aV\u8fd9\u5e74\u5934
p2289
aV\u5143\u5bb5\u8282
p2290
aV\u724c\u5b50
p2291
aV\u6837\u5b50
p2292
aV\u65c1\u8fb9
p2293
aV\u6ca1\u6cd5
p2294
aV\u5d29\u6e83
p2295
aV\u6349\u6025
p2296
aV\u4e94\u4e00
p2297
aV\u72af\u56f0
p2298
aV\u52a8\u753b
p2299
aV5000
p2300
aV\u9884\u544a
p2301
aV\u7559\u8a00
p2302
aV\u4e16\u4e0a
p2303
aV\u5929\u874e
p2304
aV\u4eba\u6027
p2305
aV\u6211\u6821
p2306
aV\u98ce\u683c
p2307
aV\u5fc3\u585e
p2308
aV\u8bbe\u7f6e
p2309
aV\u4e4b\u95f4
p2310
aV\u8d5b\u4e8b
p2311
aV\u4e0d\u89c1\u4e0d\u6563
p2312
aV\u4e00\u7ad9
p2313
aV\u9752\u6da9
p2314
aV\u5927\u7269
p2315
aV\u5c0f\u51b0
p2316
aV\u6b63\u4e8b
p2317
aV\u53f8\u673a
p2318
aV\u6625\u98ce
p2319
aV\u770b\u5f85
p2320
aV\u5feb\u5feb
p2321
aV\u70b9\u5f00
p2322
aV\u8d76\u4e0a
p2323
aV\u8ddf\u7740
p2324
aV\u6c42\u52a9
p2325
aV\u6076\u610f
p2326
aV\u83b7\u5f97
p2327
aV\u8e0f\u5b9e
p2328
aV\u6682\u65f6
p2329
aV\u4e09\u4e2a
p2330
aV\u770b\u5f97
p2331
aV\u8f9b\u82e6
p2332
aV\u81ea\u62cd
p2333
aV\u8fd8\u597d
p2334
aV\u6b66\u6c49
p2335
aV\u5dee\u52b2
p2336
aV\u6bd5\u4e1a\u8bba\u6587
p2337
aV\u63a7\u5236
p2338
aVvia
p2339
aV\u6625\u5929
p2340
aV\u4e5f\u597d
p2341
aV\u4f5c\u4e1a
p2342
aV\u60c5\u6000
p2343
aV\u7ecf\u7ba1
p2344
aV\u963f\u5c14\u6ee8
p2345
aV\u5927\u53a6
p2346
aV\u9ea6\u5f53\u52b3
p2347
aV\u5e72\u51c0
p2348
aV\u7f8e\u4e3d
p2349
aV\u5f53\u505a
p2350
aV\u5c0f\u5077
p2351
aV\u672a\u77e5
p2352
aV\u539f\u8c05
p2353
aV\u4ef7\u503c
p2354
aV\u4e0d\u7231
p2355
aV\u56fe\u4e66
p2356
aV\u7ed3\u5c3e
p2357
aV\u6298\u78e8
p2358
aV\u661f\u4eba
p2359
aV\u671d\u9633
p2360
aV\u4e0b\u96ea
p2361
aV\u9633\u53f0
p2362
aV\u4f5c\u4e3a
p2363
aV\u4e4b\u540e
p2364
aV\u96be\u5f97
p2365
aV\u8fc7\u5ea6
p2366
aV\u6885\u897f
p2367
aV\u53e4\u5de8\u57fa
p2368
aV\u68a6\u9b47
p2369
aV\u7741\u773c
p2370
aV\u8981\u6b7b
p2371
aV\u5835\u8f66
p2372
aV\u9a9a\u6270
p2373
aV\u5395\u6240
p2374
aV\u5927\u7231
p2375
aV\u7a76\u7adf
p2376
aV\u751f\u7269\u949f
p2377
aV\u53d8\u8001
p2378
aV\u53d1\u5de5\u8d44
p2379
aV\u7247\u5b50
p2380
aV\u5fc5\u8981
p2381
aV\u9762\u819c
p2382
aV\u7684\u8bdd
p2383
aVEnactus
p2384
aV\u67e5\u6536
p2385
aVG11
p2386
aV\u79d1\u666e
p2387
aV\u96be\u5fd8
p2388
aV\u9e21\u8840
p2389
aV\u903b\u8f91
p2390
aV\u5927\u53d4
p2391
aV\u600e\u53ef\u5c11
p2392
aV\u90a3\u79cd
p2393
aV\u8001\u5b50
p2394
aV\u8fdb\u53bb
p2395
aV\u4e3b\u6301\u4eba
p2396
aV\u5145\u6ee1
p2397
aV\u5b8c\u86cb
p2398
aV\u4e00\u8def\u987a\u98ce
p2399
aV\u6211\u8981
p2400
aV\u661f\u6d77
p2401
aV\u5b98\u65b9
p2402
aV\u7761\u5f97
p2403
aV\u6216\u8bb8
p2404
aVSB
p2405
aV\u505c\u4e0b\u6765
p2406
aV\u5b81\u613f
p2407
aV\u7279\u5956
p2408
aV\u65e5\u8bed
p2409
aV\u7b97\u4e86
p2410
aV\u5973\u751f
p2411
aVIBM
p2412
aV\u4e2d\u5fc3
p2413
aV\u65b0\u5e74\u5feb\u4e50
p2414
aV\u5f00\u53d1\u533a
p2415
aV\u867e\u7c73
p2416
aV\u592a\u723d\u4e86
p2417
aV\u75af\u72c2
p2418
aV\u6700\u5f3a
p2419
aV\u8fd9\u96c6
p2420
aV\u533b\u9662
p2421
aV\u4e0d\u723d
p2422
aV\u91cd\u65b0
p2423
aV\u5b66\u751f\u516c\u5bd3
p2424
aV\u8fd9\u56de
p2425
aV\u4e00\u5b9a
p2426
aV\u6709\u6240
p2427
aV\u8111\u6d1e
p2428
aV\u597d\u73a9
p2429
aV\u534e\u4e3a
p2430
aV\u7406\u7531
p2431
aV\u5e08\u59b9
p2432
aV\u5317\u4eac\u5730\u94c1
p2433
aV\u540c\u5fd7
p2434
aV\u9a6c\u8def
p2435
aV\u820d\u4e0d\u5f97
p2436
aV\u4e00\u58f0
p2437
aV\u5154\u5b50
p2438
aV\u6e29\u6696
p2439
aV\u738b\u9053
p2440
aV\u81f4\u656c
p2441
aV\u4e00\u5bb6
p2442
aV\u5f88\u7d2f
p2443
aV\u66fe\u7ecf
p2444
aV\u4ed4\u7ec6
p2445
aVShadow
p2446
aV\u4e00\u5bbf
p2447
aV\u563f\u563f
p2448
aV\u51b3\u5b9a
p2449
aV\u540e\u536b
p2450
aVCS
p2451
aV\u4e00\u7bc7
p2452
aV\u5fae\u535a\u53bb
p2453
aV\u5e08\u59d0
p2454
aV\u6240\u6709
p2455
aV\u73af\u5883
p2456
aV\u5965\u65af\u5361
p2457
aV\u8bed\u5f55
p2458
aV\u666e\u901a
p2459
aV\u8bf4\u670d
p2460
aV\u4e00\u4e0a\u5348
p2461
aV\u521d\u5fc3
p2462
aV\u7fa4\u4f17
p2463
aV\u8f66\u7968
p2464
aV\u96f6\u70b9
p2465
aV\u65e5\u8bb0
p2466
aV\u590d\u6d3b
p2467
aV\u4e25\u91cd
p2468
aV\u8fc7\u5e74
p2469
aV\u56de\u56fd
p2470
aV\u56fd\u9053
p2471
aV\u7b2c\u4e00\u5b63
p2472
aV\u9634\u5929
p2473
aV\u77ac\u95f4
p2474
aV\u8fd9\u4f1a
p2475
aV\u5076\u5c14
p2476
aV\u62a5\u9053
p2477
aV\u5757\u94b1
p2478
aV\u957f\u5047
p2479
aVfacebook
p2480
aV\u4e00\u5bf9
p2481
aV\u6bd4\u8f83
p2482
aV\u7efc\u5408
p2483
aV\u9752\u5e74
p2484
aV\u6700\u6700
p2485
aV\u4e00\u5806
p2486
aV\u51b7\u9762
p2487
aV1302
p2488
aV\u4e0b\u9762
p2489
aV\u5904\u7406
p2490
aV\u4ec0\u4e48
p2491
aV\u70b8\u9e21
p2492
aV\u5fae\u8584
p2493
aV\u4f20\u8bf4
p2494
aV\u8d3a\u5c81
p2495
aV\u5f20\u6770
p2496
aVpaper
p2497
aV\u5173\u4e8e
p2498
aV\u5f00\u4f1a
p2499
aV\u65c5\u9014
p2500
aV\u6ca1\u53bb
p2501
aV\u7535\u5546
p2502
aV\u53d8\u5f97
p2503
aV\u542f\u53d1
p2504
aV\u7528\u6765
p2505
aV24
p2506
aV25
p2507
aV\u98de\u673a
p2508
aV\u6e3a\u5c0f
p2509
aV20
p2510
aV21
p2511
aV22
p2512
aV\u6bd5\u4e1a
p2513
aV\u79bb\u5a5a
p2514
aV28
p2515
aV\u53cc\u624b
p2516
aV\u5de5\u79d1
p2517
aV\u7b2c\u56db
p2518
aV\u5f69\u86cb
p2519
aV\u4e2d\u5c71
p2520
aV\u53ea\u6709
p2521
aV\u9e64\u5927
p2522
aV\u864e\u5b50
p2523
aV\u70ed\u7231
p2524
aV\u5fd8\u8bb0
p2525
aV\u5929\u5802
p2526
aV\u51b2\u52a8
p2527
aV\u8349\u8393
p2528
aV\u51b7\u9759
p2529
aV\u591c\u7a7a
p2530
aV\u57fa\u672c
p2531
aV\u6ca1\u89c1
p2532
aVgood
p2533
aV\u5c0f\u732b
p2534
aV\u5468\u4e8c
p2535
aV\u8bc4\u9009
p2536
aV\u7cbe\u82f1
p2537
aV\u9a6c\u4e0a
p2538
aV\u53d1\u5fae\u535a
p2539
aV\u4e24\u6b21
p2540
aV\u53d1\u6761
p2541
aV\u8089\u5939\u998d
p2542
aV\u8be1\u5f02
p2543
aV\u53d1\u6765
p2544
aV\u5c0f\u533a
p2545
aV2B
p2546
aV\u5468\u516d
p2547
aV\u98a0\u8986
p2548
aV\u9762\u5bf9
p2549
aV\u5317\u7ad9
p2550
aV\u653e\u5728
p2551
aV\u4e0a\u8bfe
p2552
aV\u5f00\u8f66
p2553
aV\u8863\u670d
p2554
aV\u94f6\u884c\u5361
p2555
aV\u9ad8\u5174
p2556
aV\u793c\u62dc
p2557
aV\u4f4e\u8c03
p2558
aV\u771f\u60f3
p2559
aV\u70df\u82b1
p2560
aV\u7f51\u7edc
p2561
aV\u6ca1\u53d1
p2562
aV\u53ea\u662f
p2563
aV\u5723\u8bde
p2564
aV\u65e0\u6bd4
p2565
aV\u5267\u900f
p2566
aV\u5927\u7ed3\u5c40
p2567
aV\u501f\u53e3
p2568
aV\u4e00\u987f
p2569
aVRvtNRlR
p2570
aV\u5f69\u8679
p2571
aV\u5730\u7b11
p2572
aV\u51fa\u95e8
p2573
aV\u6e34\u671b
p2574
aV\u89d2\u8272
p2575
aV\u5bb6\u91cc
p2576
aV\u63a5\u4e0b\u6765
p2577
aV\u6df1\u591c
p2578
aV\u5185\u5fc3
p2579
aV\u5ef6\u8bef
p2580
aV\u5565\u65f6\u5019
p2581
aV\u5361\u5361
p2582
aV\u9ad8\u901f
p2583
aV\u7279\u4e48
p2584
aV\u5c0f\u53f7
p2585
aV\u63d0\u95ee
p2586
aV\u8f93\u5165
p2587
aV\u5973\u795e
p2588
aV\u5efa\u8bae
p2589
aV\u8292\u679c
p2590
aV\u7535\u5b50\u8bcd\u5178
p2591
aV\u80fd\u591f
p2592
aV\u4f20\u64ad\u5b66\u9662
p2593
aV\u505a\u9b3c\u8138
p2594
aV\u67d0\u4eba
p2595
aV\u6d3b\u7740
p2596
aV\u8bf7\u95ee
p2597
aV\u5929\u624d
p2598
aV\u4e0a\u6b21
p2599
aV\u82f1\u683c\u5170
p2600
aV\u4eca\u591c
p2601
aV\u8fd9\u662f
p2602
aV\u7f51\u9875
p2603
aV\u987a\u5229
p2604
aV\u6709\u611f
p2605
aV\u8fd9\u5468
p2606
aV\u6c49\u5b50
p2607
aV\u53cd\u9988
p2608
aV\u5c3e\u5df4
p2609
aV\u5b58\u5728
p2610
aV\u6c49\u5b57
p2611
aV\u95ee\u9898
p2612
aV\u5b8c\u6574
p2613
aV\u597d\u70e6
p2614
aV\u4f24\u4eba
p2615
aV\u535a\u7559
p2616
aV\u9a6c\u4e91
p2617
aV\u6d3b\u5728
p2618
aV\u5fc3\u7075\u9e21\u6c64
p2619
aV\u5927\u9053
p2620
aV\u59da\u8d1d\u5a1c
p2621
aV\u5e1d\u90fd
p2622
aV\u4e07\u8fbe
p2623
aV\u8d31\u4eba
p2624
aV\u533b\u751f
p2625
aVso
p2626
aV\u5c3d\u529b
p2627
aV\u5dee\u70b9
p2628
aV\u8d44\u683c
p2629
aV\u953b\u70bc\u8eab\u4f53
p2630
aV\u9762\u5b50
p2631
aV\u4eca\u5929
p2632
aV\u597d\u50cf
p2633
aV\u81ea\u79c1
p2634
aV\u662f\u56e0\u4e3a
p2635
aV\u5236\u9020
p2636
aV\u4e00\u5929
p2637
aV\u5632\u7b11
p2638
aV\u5fc5\u770b
p2639
aV\u964c\u751f\u4eba
p2640
aV\u7167\u987e
p2641
aV\u6781\u54c1
p2642
aV\u5ba3\u4f20
p2643
aV\u9ad8\u6653\u677e
p2644
aV\u5929\u5929
p2645
aV\u65e9\u6668
p2646
aV\u6ca1\u52b2
p2647
aV\u6211\u8be5
p2648
aV\u6d41\u6cea
p2649
aV\u8be5\u6b7b
p2650
aV\u5de5\u5177
p2651
aV\u90a3\u6837
p2652
aV\u5496\u5561
p2653
aV\u4e00\u591c
p2654
aV\u8bb0\u5f97
p2655
aV\u8bb0\u5f55\u672c
p2656
aV1301
p2657
aV\u6f5c\u6c34
p2658
aV\u65e9\u665a
p2659
aV\u6bd4\u8d5b
p2660
aV\u5f00\u4e2a
p2661
aV\u5f97\u4e0d\u5230
p2662
aV\u94f6\u884c
p2663
aVID
p2664
aV\u4e00\u628a
p2665
aV\u6742\u5fd7
p2666
aV\u516c\u5e73
p2667
aV\u6691\u5047
p2668
aV\u522b\u8bf4
p2669
aV\u6559\u5b66\u697c
p2670
aV\u90ae\u7bb1
p2671
aV\u81ea\u4ece
p2672
aV\u8ba1\u7b97
p2673
aV\u653e\u677e
p2674
aV\u4eba\u624d
p2675
aVXC
p2676
aV\u8fd9\u7403
p2677
aV\u65b0\u6625
p2678
aV\u8d44\u672c
p2679
aV\u575a\u6301
p2680
aV\u6253\u547c\u565c
p2681
aV\u76d1\u7763
p2682
aV\u6052\u5927
p2683
aV\u72af\u9519
p2684
aV\u6b27\u6d32\u676f
p2685
aV\u6574\u7406
p2686
aV\u9ad8\u6f6e
p2687
aV\u597d\u8fd0
p2688
aV\u8fce\u65b0\u665a\u4f1a
p2689
aV\u4e0d\u5403
p2690
aV\u542f\u52a8
p2691
aV\u9886\u517b
p2692
aV\u996d\u5e97
p2693
aV\u4eba\u548c\u4e8b
p2694
aV\u5927\u5305
p2695
aV\u5f88\u5feb
p2696
aV\u5305\u5bb9
p2697
aV\u670b\u53cb\u5708
p2698
aV\u8ba8\u538c
p2699
aV\u5468\u6c34\u5b50
p2700
aV\u538b\u529b
p2701
aV\u8d77\u98de
p2702
aV\u4e13\u8f91
p2703
aV\u6f14\u5531\u4f1a
p2704
aV\u9a6c\u5230\u6210\u529f
p2705
aV\u55d3\u5b50
p2706
aV\u664b\u7ea7
p2707
aV\u653b\u7565
p2708
aV\u5c55\u793a
p2709
aV\u51e0\u4e2a
p2710
aV\u8270\u96be
p2711
aV\u5ac9\u5992
p2712
aV\u715e\u7b14
p2713
aV\u60c5\u8282
p2714
aV\u5527\u5527
p2715
aV\u9633\u5149
p2716
aV\u4eb2\u5207
p2717
aV\u4e00\u9996
p2718
aV\u8ddd\u79bb
p2719
aV\u4e00\u529b
p2720
aV\u5982\u679c
p2721
aV\u9632\u5b88
p2722
aV\u5218\u8bd7
p2723
aV\u7fbd\u7ed2\u670d
p2724
aV\u4eb2\u7231
p2725
aV\u7b2c\u4e00\u5929
p2726
aV\u5931\u8bef
p2727
aV\u56f0\u6b7b
p2728
aV\u667a\u5546
p2729
aV\u60f3\u5bb6
p2730
aV\u5b66\u5f1f
p2731
aV\u5347\u7ea7
p2732
aV\u53d6\u6d88
p2733
aV\u5229\u76ca
p2734
aV\u8fdb\u5165
p2735
aV\u4f1f\u5927
p2736
aV\u89e3\u6551
p2737
aV\u5e08\u5085
p2738
aV\u6700\u4f73\u96c7\u4e3b
p2739
aV\u4e00\u4e2a\u6708
p2740
aV\u5b58\u50a8
p2741
aV\u9e21\u6c64
p2742
aV\u8d26\u6237
p2743
aV\u8def\u8fc7
p2744
aV\u4e0d\u662f
p2745
aV\u4e60\u60ef
p2746
aV\u8003\u9a8c
p2747
aV\u4e00\u79cd
p2748
aV\u6162\u6162
p2749
aV\u7b97\u6cd5
p2750
aV\u4e00\u79d1
p2751
aV\u89e3\u653e
p2752
aV70
p2753
aV\u9633\u9633
p2754
aV\u5bfc\u6f14
p2755
aVGoogle
p2756
aV65
p2757
aV\u751f\u6240\u7231
p2758
aV\u4e00\u4e2a\u591a
p2759
aV\u5931\u53bb
p2760
aV\u514b\u6d1b\u6cfd
p2761
aV\u51e0\u4e4e
p2762
aVXX
p2763
aVkm
p2764
aV\u6536\u85cf
p2765
aV\u8010\u5fc3
p2766
aV\u9152\u5427
p2767
aV\u90c1\u95f7
p2768
aV\u793e\u8bc4
p2769
aV\u5c0f\u5b66\u751f
p2770
aV\u65b0\u5b66\u671f
p2771
aV\u611f\u609f
p2772
aV\u4e3a\u4ec0\u4e48
p2773
aV\u5173\u6ce8
p2774
aV\u6c14\u573a
p2775
aV\u8001\u52c7
p2776
aV\u6765\u81ea
p2777
aV\u5c0f\u76c6\u53cb
p2778
aV\u6559\u7ec3
p2779
aV\u4e07\u4e00
p2780
aV\u8fd0\u8f7d
p2781
aV\u901d\u8005
p2782
aV\u5ffd\u7565
p2783
aV\u76ee\u6d4b
p2784
aV\u5168\u662f
p2785
aV\u5e78\u597d
p2786
aV\u6e24\u6d77
p2787
aV\u4eba\u5bb6
p2788
aVipad
p2789
aV\u955c\u5934
p2790
aV\u672c\u79d1\u751f
p2791
aV\u5f53\u521d
p2792
aV\u5de5\u7a0b\u5e08
p2793
aV\u5e26\u7ed9
p2794
aV\u547c\u565c
p2795
aV\u505a\u4e8b
p2796
aV\u7533\u8bf7
p2797
aV\u9a6c\u6876
p2798
aV\u6c61\u67d3
p2799
aV\u9003\u907f
p2800
aV\u9605\u8bfb
p2801
aV\u5b66\u6e05\u8def
p2802
aV\u9000\u4f11
p2803
aV520
p2804
aV\u5b55\u5987
p2805
aV\u5c31\u522b
p2806
aV\u77e5\u9053
p2807
aV\u8be5\u4e0d\u8be5
p2808
aV\u5e2e\u52a9
p2809
aV\u9b45\u65cf
p2810
aV1314
p2811
aV\u540c\u4e00\u4e2a
p2812
aV\u5065\u8eab
p2813
aV\u5976\u8336
p2814
aV\u4f55\u65f6
p2815
aV\u6c6a\u5cf0
p2816
aVBI
p2817
aV1403
p2818
aV\u786e\u5b9a
p2819
aV\u6e38\u6cf3\u9986
p2820
aV\u786e\u5b9e
p2821
aV\u95e8\u53e3
p2822
aV\u611f\u60c5
p2823
aV\u5927\u96ea
p2824
aV\u8d44\u6e90
p2825
aV\u5927\u96e8
p2826
aV\u4e0d\u5728\u4e4e
p2827
aV\u5317\u4eac\u7ad9
p2828
aV\u5df2\u7136
p2829
aV\u901a\u8baf
p2830
aV\u53c2\u52a0
p2831
aV\u809a\u5b50\u75bc
p2832
aV\u6f14\u5458
p2833
aV\u7535\u4fe1
p2834
aV\u8fd0\u8425
p2835
aV\u6750\u6599
p2836
aV\u5927\u56db
p2837
aV\u575a\u4fe1
p2838
aV\u5fd7\u613f\u8005
p2839
aV\u7529\u624b
p2840
aV\u5c4b\u5b50
p2841
aV\u641c\u7d22
p2842
aV\u5565\u610f\u601d
p2843
aV\u4e00\u5e74
p2844
aV\u65f6\u5c1a
p2845
aV\u5c0f\u59d0
p2846
aV\u4e0d\u77e5\u6240\u63aa
p2847
aV\u6258\u8d77
p2848
aV\u8eab\u5fc3
p2849
aV\u5927\u5634
p2850
aV\u96c5\u5b89
p2851
aV\u6d3b\u8be5
p2852
aV\u5c3d\u5feb
p2853
aV\u6ca1\u7528
p2854
aV\u8868\u73b0
p2855
aV\u751f\u6c14
p2856
aV315
p2857
aV\u6d41\u6c13
p2858
aV\u4e07\u4e8b\u5982\u610f
p2859
aV\u6ca1\u7535
p2860
aV\u7ecf\u5e38
p2861
aV\u606d\u559c
p2862
aV2.1
p2863
aV\u8bb8\u4e45
p2864
aV\u786c\u76d8
p2865
aV\u524d\u4e00\u5929
p2866
aV\u9009\u9879
p2867
aV\u8111\u5b50
p2868
aV\u67d0\u67d0
p2869
aV\u5fd0\u5fd1
p2870
aV\u989c\u8272
p2871
aV\u597d\u65e5\u5b50
p2872
aV\u4e4b\u5185
p2873
aV\u5357\u8def
p2874
aV\u4e00\u822c
p2875
aV\u8fd9\u53e5
p2876
aV\u6b4c\u624b
p2877
aV\u706b\u8f66\u7ad9
p2878
aV\u771f\u662f
p2879
aV82
p2880
aV\u9b45\u529b
p2881
aV74
p2882
aV\u636e\u8bf4
p2883
aV\u6731\u4ee4
p2884
aV\u56db\u6708
p2885
aV\u9910\u5385
p2886
aV\u6ca1\u9519
p2887
aV\u8212\u670d
p2888
aV\u51fa\u53d1
p2889
aV\u8bfb\u5b8c
p2890
aV\u7532\u65b9
p2891
aV\u7559\u4e0b
p2892
aV\u51ac\u7720
p2893
aV\u597d\u56f0
p2894
aV\u4eca\u5929\u4e0b\u5348
p2895
aV\u96f7\u9706
p2896
aV\u6551\u52a9\u8005
p2897
aV\u8270\u8f9b
p2898
aV\u4e8b\u662f
p2899
aV\u7f05\u6000
p2900
aV\u62c5\u5fc3
p2901
aV\u5e05\u54e5
p2902
aV\u732e\u7ed9
p2903
aV\u6284\u88ad
p2904
aV\u7ec8\u4e8e
p2905
aV\u9053\u7406
p2906
aV\u51fa\u53bb
p2907
aV\u4e94\u4e00\u8def
p2908
aV\u4e0d\u613f
p2909
aV\u51fa\u73b0
p2910
aV\u60c5\u4eba\u8282
p2911
aV\u4e00\u5927\u65e9
p2912
aV\u56de\u5fc6\u8d77
p2913
aV\u505c\u4e0d\u4e0b\u6765
p2914
aV\u5e78\u798f
p2915
aV\u5b9e\u73b0
p2916
aV\u5730\u94c1\u7ad9
p2917
aV\u65e5\u5b50
p2918
aV\u4e0a\u6d77
p2919
aV\u5947\u8ff9
p2920
aV\u7206\u70b8
p2921
aV\u76f8\u673a
p2922
aV\u5341\u5e74
p2923
aV\u5317\u5c71
p2924
aV\u8001\u7238
p2925
aV\u6de1\u5b9a
p2926
aV\u90a3\u4e2a
p2927
aV\u6e05\u660e\u8282
p2928
aV\u72ec\u7acb
p2929
aV\u665a\u5b89
p2930
aV\u7d2f\u89c9
p2931
aV\u5b66\u59b9
p2932
aVMr
p2933
aV\u4fe1\u606f
p2934
aV\u54c8\u5c14\u6ee8
p2935
aV\u73a9\u73a9
p2936
aV\u6545\u969c
p2937
aV\u51fa\u79df
p2938
aVTMD
p2939
aV\u4e0d\u60f3
p2940
aV\u4e0d\u80fd
p2941
aV\u4e00\u9986
p2942
aV\u80a5\u7682
p2943
aV\u80cc\u5355\u8bcd
p2944
aV\u642c\u5bb6
p2945
aV\u4e00\u5f20
p2946
aV\u535a\u58eb\u751f
p2947
aVjava
p2948
aV\u5bf9\u4e8e
p2949
aV\u5e73\u9759
p2950
aV\u819d\u76d6
p2951
aV\u5230\u8fbe
p2952
aV\u8d77\u5e8a
p2953
aV\u8461\u8404\u7259
p2954
aV\u751f\u6daf
p2955
aV\u7740\u60f3
p2956
aV\u9762\u524d
p2957
aV\u5728\u4e4e
p2958
aV\u6df1\u5ea6
p2959
aV\u4e00\u5c42
p2960
aV\u5b9e\u4e60\u751f
p2961
aVdut
p2962
aV\u7325\u7410
p2963
aV\u597d\u770b
p2964
aV\u63d0\u524d
p2965
aV\u4e13\u573a
p2966
aV\u897f\u5b89
p2967
aV\u5408\u4f5c
p2968
aV\u6253\u6270
p2969
aV\u7f18\u5206
p2970
aV\u8d23\u4efb
p2971
aVCBA
p2972
aV\u673a\u667a
p2973
aV\u897f\u90e8
p2974
aV\u4e0d\u5f97\u4e0d
p2975
aV\u5b66\u59d0
p2976
aV\u6709\u610f\u601d
p2977
aV\u90a3\u4e48
p2978
aV\u603b\u7b97
p2979
aV\u600e\u4e48\u56de\u4e8b
p2980
aV\u8981\u547d
p2981
aV\u5c0f\u5403
p2982
aV\u4e94\u9053\u53e3
p2983
aV\u90a3\u91cc
p2984
aV\u4f20\u9012
p2985
aV\u5b66\u5458
p2986
aV\u96e8\u5929
p2987
aV\u6ee8\u57ce
p2988
aV\u5f88\u4e45\u6ca1
p2989
aV\u534a\u4e2a
p2990
aV\u65e0\u6cd5
p2991
aV\u5438\u6bd2
p2992
aV\u6709\u610f\u8005
p2993
aV\u6444\u5f71\u5e08
p2994
aV\u795d\u613f
p2995
aV\u544a\u8bc9
p2996
aV\u5f88\u591a
p2997
aV\u51fa\u79df\u8f66
p2998
aV\u6d17\u8111
p2999
aV\u67f4\u9759
p3000
aV\u5e72\u4ec0\u4e48
p3001
aV\u5c0f\u54e5
p3002
aV\u62fc\u547d
p3003
aV\u60ca\u6050
p3004
aV\u65f6\u5dee
p3005
aV\u63a5\u7740
p3006
aV\u56db\u516d\u7ea7
p3007
aV\u7701\u9053
p3008
aV\u6000\u7591
p3009
aV\u591a\u8c22
p3010
aV\u771f\u6709
p3011
aV\u6536\u83b7
p3012
aV\u5927\u793c\u5802
p3013
aV\u5fb7\u56fd
p3014
aV\u8fc7\u7a0b
p3015
aV\u4e8c\u4ee3
p3016
aV\u738b\u8005
p3017
aV\u4ee4\u5e0c
p3018
aV\u5c0f\u8d34\u58eb
p3019
aV\u751f\u6d3b
p3020
aV\u4e00\u7fa4
p3021
aV\u4eca\u5e74
p3022
aV\u884c\u4e1a
p3023
aV\u53d4\u53d4
p3024
aV\u65e0\u77e5
p3025
aV\u8fc7\u6765
p3026
aV\u5c0f\u54c1
p3027
aV\u5305\u5b50
p3028
aV\u90a3\u4e9b
p3029
aV\u79d1\u6280
p3030
aV\u5b8c\u6210
p3031
aV\u5c81\u6708
p3032
aV\u4fee\u70bc
p3033
aV\u56fd\u822a
p3034
aV\u4e27\u5fc3\u75c5\u72c2
p3035
aV\u4e92\u7c89
p3036
aV\u751f\u6b7b
p3037
aV\u53ea\u80fd
p3038
aV\u6b63\u5e38
p3039
aV\u5b9e\u529b
p3040
aV\u82f9\u679c
p3041
aV\u540e\u9762
p3042
aV\u5b89\u6392
p3043
aV\u5b66\u597d
p3044
aV\u4e2d\u5173\u6751
p3045
aV\u53ea\u60f3
p3046
aV\u5e74\u5ea6
p3047
aV\u6ee1\u8db3
p3048
aV\u5370\u5ea6
p3049
aV\u6b4c\u58f0
p3050
aV\u662f\u6211\u592a
p3051
aV\u97e9\u7ea2
p3052
aV\u661f\u9645
p3053
aV\u672c\u6765
p3054
aV\u5341\u5927
p3055
aV\u7740\u6025
p3056
aV\u65b0\u624b\u673a
p3057
aV\u5389\u5bb3
p3058
aV\u5f00\u68ee
p3059
aV\u64cd\u86cb
p3060
aV\u4e0d\u6015
p3061
aV\u5269\u4e0b
p3062
aV\u9898\u76ee
p3063
aV\u5728\u4e8e
p3064
aV\u611f\u6168
p3065
aV\u4e09\u6b21
p3066
aV\u7403\u961f
p3067
aV\u6821\u62db
p3068
aV\u7f8e\u9662
p3069
aV\u5b66\u4f1a
p3070
aV\u4e00\u4e0d\u5c0f\u5fc3
p3071
aV\u6253\u8138
p3072
aV\u6295\u4e00\u7968
p3073
aV\u6c47\u6210
p3074
aV\u623f\u95f4
p3075
aV\u6bcf\u5929\u665a\u4e0a
p3076
aV\u674e\u5065
p3077
aV\u6b32\u671b
p3078
aV2013.1
p3079
aV\u70e7\u70e4
p3080
aV\u7edd\u6740
p3081
aV08
p3082
aV\u597d\u542c
p3083
aV\u4e0d\u597d\u610f\u601d
p3084
aV\u6211\u4eec
p3085
aV\u770b\u597d
p3086
aVSSDUT
p3087
aV\u6dfb\u5835
p3088
aV\u4e24\u4f4d
p3089
aV\u6652\u6652
p3090
aV\u9759\u4e0b\u5fc3\u6765
p3091
aV\u6162\u6162\u6765
p3092
aV\u6b8b\u5fcd
p3093
aV\u6709\u65f6
p3094
aV\u7eff\u690d
p3095
aV\u963f\u91cc
p3096
aV\u5b89\u606f
p3097
aV\u80c3\u75bc
p3098
aV\u6293\u72c2
p3099
aV\u516b\u70b9
p3100
aV\u63cf\u8ff0
p3101
aV\u8fc7\u8282\u8d39
p3102
aV\u535a\u91cc
p3103
aV...
p3104
aV\u76f8\u4fe1
p3105
aV\u955c\u5b50
p3106
aV\u7206\u68da
p3107
aV\u9ad8\u94c1
p3108
aV\u547c\u5438
p3109
aV\u8fd9\u91cc
p3110
aV\u5927\u54e5
p3111
aV\u653f\u5e9c
p3112
aV\u82f1\u96c4
p3113
aV\u8d28\u7591
p3114
aV\u625b\u4e0d\u4f4f
p3115
aV\u5927\u54ed
p3116
aV\u503c\u73ed
p3117
aV\u6e05\u9192
p3118
aV\u504f\u504f
p3119
aV\u5403\u4e2a
p3120
aV\u6b66\u5a9a\u5a18
p3121
aVOK
p3122
aV\u9f3b\u6d95
p3123
aV\u7f8a\u5e74
p3124
aV\u6709\u70b9\u50cf
p3125
aV\u82f1\u56fd
p3126
aV\u7ba1\u7ecf
p3127
aV\u4eba\u6c11
p3128
aV\u5355\u53cd
p3129
aV\u6c34\u8def
p3130
aV\u699c\u6837
p3131
aV\u4e24\u4f1a
p3132
aV\u5143\u5bb5
p3133
aV\u8fd9\u513f
p3134
aV\u522b\u4eba
p3135
aV\u5e73\u6de1
p3136
aV\u6124\u6012
p3137
aV\u4e00\u5468
p3138
aV\u7b2c\u4e00\u96c6
p3139
aV\u4f46\u662f
p3140
aV\u6ee1\u6ee1
p3141
aV\u5c1d\u8bd5
p3142
aVgoogle
p3143
aV\u770b\u4e0d\u61c2
p3144
aV\u5a1c\u59d0
p3145
aV\u7518\u5fc3
p3146
aV\u7535\u53f0
p3147
aV\u6d88\u8017
p3148
aV\u5f00\u673a
p3149
aV\u8ff7\u7cca
p3150
aVCSDN
p3151
aV\u516c\u5bd3
p3152
aV\u4f53\u80b2
p3153
aV\u516d\u4e00
p3154
aV\u5de8\u5927
p3155
aV\u600e\u6837
p3156
aV\u679c\u9177
p3157
aV\u6cf0\u5c71
p3158
aV\u8d77\u4e0d\u6765
p3159
aV\u8a79\u59c6\u65af
p3160
aV\u4e0d\u7b97
p3161
aV\u76f8\u805a
p3162
aVCoventry
p3163
aV\u6c47\u62a5
p3164
aV\u516c\u52a1\u5458
p3165
aVYES
p3166
aV\u963f\u6839\u5ef7
p3167
aV\u5bb6\u4f19
p3168
aV\u5929\u5929\u5411\u4e0a
p3169
aV\u4e0a\u4f20
p3170
aV\u5927\u5409
p3171
aV\u5ef6\u8fdf
p3172
aVSAEPA
p3173
aV\u4e0d\u5f97
p3174
aV\u58f0\u97f3
p3175
aV300
p3176
aV\u8981\u8bf4
p3177
aV\u81ea\u5df1
p3178
aV\u5e72\u561b
p3179
aV\u8fdb\u7403
p3180
aV\u94b1\u5305
p3181
aVeveryday
p3182
aV\u500d\u513f
p3183
aV\u7d2f\u6b7b
p3184
aV\u804c\u573a
p3185
aV\u9ad8\u5cf0
p3186
aV\u4e3b\u5e2d
p3187
aV\u63d0\u9192
p3188
aV\u4e00\u79d2
p3189
aV\u80cc\u666f\u97f3\u4e50
p3190
aV\u6beb\u65e0
p3191
aV\u8d8a\u6765\u8d8a\u5c11
p3192
aV\u67d2\u67d2
p3193
aV\u6574\u4e2a
p3194
aV\u822a\u7a7a
p3195
aV\u6307\u6570
p3196
aV\u9e2d\u68a8
p3197
aV\u7a7a\u8c03
p3198
aV\u4e03\u70b9
p3199
aV\u70b9\u591a
p3200
aV\u559c\u6b22
p3201
aV\u6d88\u606f
p3202
aV\u9f13\u638c
p3203
aV\u7a7a\u6c14
p3204
aV\u4e0a\u8f66
p3205
aV\u6bcf\u5f53
p3206
aV\u840c\u840c
p3207
aV\u6ce1\u6ce1
p3208
aV\u571f\u8c6a
p3209
aV\u51e0\u5e74
p3210
aV\u4e00\u77ac\u95f4
p3211
aV\u5047\u671f
p3212
aV\u800c\u662f
p3213
aV\u81f3\u5c11
p3214
aV\u4eba\u7c7b
p3215
aV\u8bc1\u660e
p3216
aV\u5973\u738b
p3217
aV\u5927\u7a91\u6e7e
p3218
aV\u4e2d\u5956
p3219
aV\u6211\u4fe9
p3220
aV\u542c\u4e0d\u61c2
p3221
aV\u4e09\u89c2
p3222
aV\u7b49\u5f85
p3223
aV\u542c\u529b
p3224
aV\u706b\u8f66\u7968
p3225
aV\u6c47\u6dfb\u5bcc
p3226
aVA\u80a1
p3227
aV\u793e\u4f1a
p3228
aV..
p3229
aV\u8bfb\u7814
p3230
aV\u521b\u4e1a
p3231
aV\u5b89\u6170
p3232
aV\u4e0d\u6b62
p3233
aV\u6301\u7eed
p3234
aV\u5317\u5927\u8857
p3235
aV\u9ad8\u5706\u5706
p3236
aV\u820c\u5c16
p3237
aV\u70e6\u8e81
p3238
aV\u5439\u725b
p3239
aV\u8bb0\u6027
p3240
aV\u6bd5\u4e1a\u751f
p3241
aV\u6d77\u9c9c
p3242
aV\u4f18\u79c0
p3243
aV\u586b\u5199
p3244
aV\u4e24\u4e2a
p3245
aV\u7f3a\u4e4f
p3246
aV\u5341\u53f7
p3247
aV\u987f\u65f6
p3248
aV\u826f\u5fc3
p3249
aV\u7528\u6237
p3250
aV\u8d85\u5e02
p3251
aV\u4e45\u8fdd
p3252
aV\u5b9a\u671f
p3253
aV\u6668\u62a5
p3254
aV\u6b8b\u9177
p3255
aV\u6218\u6597
p3256
aV\u4e07\u53d8
p3257
aV\u514b\u5236
p3258
aV\u4f3c\u4e4e
p3259
aVGDP
p3260
aV\u52a8\u529b
p3261
aV\u61d2\u5f97
p3262
aV\u54ed\u6ce3
p3263
aV\u6e29\u99a8
p3264
aV\u89c1\u8005\u6709\u4efd
p3265
aV\u56db\u70b9
p3266
aV\u4e5f\u8bb8
p3267
aV....
p3268
aV\u4e4b\u524d
p3269
aV\u8bba\u575b
p3270
aV\u4ed8\u51fa
p3271
aV\u5931\u7720
p3272
aV\u79bb\u5f00
p3273
aV\u79cd\u5b50
p3274
aV\u86cb\u7cd5
p3275
aV\u62d6\u5ef6
p3276
aVOyoung
p3277
aV\u8d35\u6821
p3278
aV\u91ca\u7136
p3279
aV\u540c\u4e8b
p3280
aV\u5730\u9707
p3281
aV\u5e7b\u60f3
p3282
aV\u5ffd\u7136
p3283
aV\u754c\u9762
p3284
aV\u5c0f\u96ea
p3285
aV\u73a9\u513f
p3286
aV\u5c0f\u96e8
p3287
aV\u59e5\u59e5
p3288
aV\u6b7b\u673a
p3289
aV\u5168\u65b0
p3290
aV\u6295\u8bc9
p3291
aV\u5f71\u54cd
p3292
aV\u8fd9\u4e0b
p3293
aV\u4e2d\u79cb
p3294
aV\u4e07\u4eba
p3295
aV\u9759\u9759
p3296
aV\u6210\u5c31\u611f
p3297
aV\u52a8\u7269
p3298
aV\u65e0\u5fc3
p3299
aV\u9a91\u58eb
p3300
aV\u4e9a\u9a6c\u900a
p3301
aV\u665a\u9910
p3302
aV\u5b89\u5168\u611f
p3303
aV\u957f\u5fae\u535a
p3304
aV\u6821\u53cb\u4f1a
p3305
aV\u8003\u8651
p3306
aV\u4e8b\u6545
p3307
aV\u597d\u559d
p3308
aVTT
p3309
aV\u618b\u5c48
p3310
aV\u7231\u56fd
p3311
aV\u8001\u516c
p3312
aV\u4ea4\u6d41
p3313
aV\u5c34\u5c2c
p3314
aVTM
p3315
aV\u51cc\u6c34\u9547
p3316
aV\u542c\u5230
p3317
aV\u7403\u8ff7
p3318
aV\u79d1\u5e7b
p3319
aVTA
p3320
aV\u4e0d\u80fd\u4e0d
p3321
aV\u9a97\u4eba
p3322
aV\u9b54\u9b3c
p3323
aV\u4e0d\u6613
p3324
aV\u77eb\u60c5
p3325
aV\u6069\u7231
p3326
aVT2
p3327
aVT3
p3328
aV\u652f\u6301
p3329
aVT1
p3330
aV\u6ecb\u5473
p3331
aV\u627e\u4e2a
p3332
aV\u5e7f\u4e1c
p3333
aV\u54c8\u54c8\u54c8\u54c8
p3334
aV\u89e3\u8131
p3335
aV\u6bcf\u5e74
p3336
aV\u884c\u4e3a
p3337
aV\u6709\u65f6\u5019
p3338
aV\u8f6f\u4ef6\u56ed
p3339
aV\u5b66\u5b50
p3340
aV\u665a\u996d
p3341
aV\u7f8e\u5973
p3342
aV\u6709\u6ca1\u6709
p3343
aV\u6323\u624e
p3344
aV\u8e22\u7403
p3345
aV\u4e0d\u820d
p3346
aV\u6311\u6218
p3347
aV\u8d85\u7ea7
p3348
aV\u6211\u4f1a
p3349
aV\u79c1\u4fe1
p3350
aV\u60f3\u5ff5
p3351
aV\u642d\u8baa
p3352
aV\u56e2\u59d4
p3353
aV\u884c\u4e14
p3354
aV\u4e00\u5207\u90fd\u662f
p3355
aV\u592a\u6709
p3356
aV\u5b8c\u7f8e
p3357
aV\u7761\u591a
p3358
aV\u9006\u8f6c
p3359
aV\u679c\u7136
p3360
aV\u56f0\u60d1
p3361
aV\u4e00\u5206
p3362
aV\u4e00\u5207
p3363
aV\u65c5\u7a0b
p3364
aV\u53bb\u5e74
p3365
aV\u8d56\u5e8a
p3366
aV\u6211\u80fd
p3367
aV\u663e\u793a
p3368
aV\u65e9\u8d77
p3369
aV\u4e00\u65e0\u6240\u6709
p3370
aV\u7a0b\u5e8f\u5458
p3371
aV\u540c\u6b65
p3372
aV\u4efb\u6027
p3373
aV\u53d1\u8d27
p3374
aV\u6dd8\u5b9d
p3375
aV\u54a8\u8be2
p3376
aV\u6012\u8d5e
p3377
aV\u5c41\u80a1
p3378
aV\u4e0d\u5b89
p3379
aV\u73ed\u7ea7
p3380
aV\u770b\u7740
p3381
aV\u81ea\u5f3a
p3382
aV\u4e91\u5357
p3383
aV\u6240\u4ee5
p3384
aV\u505a\u68a6
p3385
aV\u77ed\u6682
p3386
aV\u7535\u5f71
p3387
aV\u706b\u7bad
p3388
aV\u7f16\u5267
p3389
aV\u4e00\u5230
p3390
aV\u8d8a\u662f
p3391
aV\u884c\u8def
p3392
aV\u4e00\u523b
p3393
aV\u6821\u957f
p3394
aV\u56e2\u961f
p3395
aV\u5f00\u653e
p3396
aV\u5e0c\u671b
p3397
aV\u9ed1\u7ebf
p3398
aV\u4e3a\u4f55
p3399
aV\u68a6\u5230
p3400
aV\u4e1c\u5317
p3401
aV\u4e00\u7247
p3402
aV\u5a03\u5a03
p3403
aV\u56de\u5f52
p3404
aV\u6770\u54e5
p3405
aV\u5bb3\u6015
p3406
aV\u5f53\u5e74
p3407
aV\u7ffb\u6765\u8986\u53bb
p3408
aV\u8dd1\u6b65
p3409
aV\u7948\u798f
p3410
aV\u4e0d\u8db3
p3411
aV\u767e\u65af
p3412
aV\u6253\u8f66
p3413
aV\u540c\u5b66\u4f1a
p3414
aV\u6536\u5230
p3415
aV\u7ea2\u706f\u7b3c
p3416
aV\u9ad8\u7aef
p3417
aV\u6001\u5ea6
p3418
aV\u770b\u770b
p3419
aV\u5fae\u4fe1
p3420
aV\u65e0\u60c5
p3421
aV\u5fc3\u70e6
p3422
aV\u65b0\u6c14\u8c61
p3423
aV\u7075\u611f
p3424
aV\u5e74\u524d
p3425
aV\u624b\u5957
p3426
aV\u554a\u554a\u554a
p3427
aV\u65b0\u6d6a
p3428
aV\u65f6\u5019
p3429
aV\u8bfe\u5802
p3430
aV\u676d\u5dde
p3431
aV\u9875\u9762
p3432
aV\u661f\u671f
p3433
aV\u5403\u60ca
p3434
aV\u601d\u8003
p3435
aV\u5341\u5206
p3436
aV\u996e\u98df
p3437
aV\u8fce\u6765
p3438
aV\u8bbf\u95ee
p3439
aV\u4e0d\u8d77
p3440
aV\u4eab\u53d7
p3441
aVzz
p3442
aV\u6bcd\u4eb2
p3443
aV\u957f\u5927
p3444
aV\u76d2\u996d
p3445
aV\u8d25\u5bb6
p3446
aV\u514d\u8d39
p3447
aV3D
p3448
aVindex
p3449
aV\u4e00\u5927
p3450
aV\u6821\u533a
p3451
aV\u6295\u7ed9
p3452
aV\u5927\u66b4\u96e8
p3453
aV\u8bf4\u8d70\u5c31\u8d70
p3454
aV\u7948\u7977
p3455
aV\u9884\u795d
p3456
aV\u623f\u5b50
p3457
aV\u4fdd\u5b58
p3458
aV\u624b\u5934
p3459
aV\u4e2d\u56fd
p3460
aV1402
p3461
aV1401
p3462
aV\u4e0d\u51fa
p3463
aV\u611f\u8c22
p3464
aV\u6d41\u9f3b\u6d95
p3465
aV\u6696\u7a7a\u6c14
p3466
aV\u4fdd\u6696
p3467
aVlee
p3468
aV\u4e09\u661f
p3469
aV\u753b\u753b
p3470
aV\u8001\u5e08
p3471
aVCCTV
p3472
aV\u4e3b\u697c
p3473
aV\u4f60\u4eec
p3474
aV\u5077\u4e50
p3475
aV\u9ebb\u8fa3
p3476
aV\u5047\u88c5
p3477
aV\u5fe7\u4f24
p3478
aV\u6e05\u534e\u5927\u5b66
p3479
aV\u5230\u624b
p3480
aV\u8d39\u52b2
p3481
aV\u56de\u5fc6
p3482
aV\u7535\u95ea\u96f7\u9e23
p3483
aV\u8bfe\u9898
p3484
aV39
p3485
aV\u53d7\u4f24
p3486
aV\u5fae\u8f6f
p3487
aV33
p3488
aV32
p3489
aV31
p3490
aV30
p3491
aV37
p3492
aV36
p3493
aV35
p3494
aV34
p3495
aV\u6d77\u5357
p3496
aV\u4e00\u4f1a\u513f
p3497
aV\u4e2d\u5956\u7387
p3498
aV\u767d\u5bcc
p3499
aV\u4e2d\u573a
p3500
aV\u5c40\u90e8
p3501
aV\u5fc3\u7075
p3502
aV\u722c\u8d77\u6765
p3503
aV\u5206\u6790
p3504
aV\u5927\u5bb6
p3505
aV\u6392\u961f
p3506
aV\u592a\u597d
p3507
aV\u72ec\u81ea
p3508
aVapp
p3509
aV\u6d17\u5b8c
p3510
aV\u8981\u6c42
p3511
aV\u6253\u4e2a
p3512
aV\u5929\u732b
p3513
aV\u4fe1\u8fbe\u8857
p3514
aV\u738b\u83f2
p3515
aV\u5c11\u5e74
p3516
aV........
p3517
aV\u5fc3\u810f
p3518
aVFM
p3519
aV\u97e9\u5267
p3520
aV\u4f53\u4f1a
p3521
aV\u53cd\u7701
p3522
aV\u5e74\u8f7b
p3523
aV\u6570\u636e\u6316\u6398
p3524
aV\u7b97\u662f
p3525
aV\u65f6\u5149
p3526
aV\u5927\u5b9d
p3527
aV\u5730\u70b9
p3528
aV\u8fdc\u79bb
p3529
aV\u80fd\u529b
p3530
aV\u7167\u7247
p3531
aV\u89c1\u5230
p3532
aV\u897f\u6e38
p3533
aV\u5e7f\u544a
p3534
aV\u65e0\u6094
p3535
aV\u5f97\u5230
p3536
aV\u7b2c\u4e8c\u6b21
p3537
aV\u7537\u5b50
p3538
aV\u7fbd\u6cc9
p3539
aV\u5f20\u6c5f
p3540
aV\u4ea4\u901a\u5e7f\u64ad
p3541
aV\u95ee\u5377
p3542
aV\u5e74\u4f1a
p3543
aV\u5176\u4ed6
p3544
aV\u5fc3\u91cc
p3545
aV\u4e00\u534a
p3546
aV\u9002\u5408
p3547
aV\u731c\u731c
p3548
aV\u5982\u662f\u8bf4
p3549
aV\u5b87\u5b99
p3550
aV\u62bd\u5230
p3551
aV\u65b0\u9c9c
p3552
aV\u4fee\u8eab
p3553
aVbaby
p3554
aV\u4e2d\u571f
p3555
aV\u53f7\u697c
p3556
aV\u5e08\u5144
p3557
aVhigh
p3558
aV\u4f1a\u8bae
p3559
aV\u4e00\u6b3e
p3560
aV\u8fd9\u5e2e
p3561
aV\u8bb2\u8bfe
p3562
aVMark
p3563
aV\u6ee1\u610f
p3564
aV\u65cb\u5f8b
p3565
aV\u8d85\u503c
p3566
aV\u56de\u4e8b
p3567
aV\u56db\u7ea7
p3568
aV\u7406\u5de5
p3569
aV\u8bed\u97f3
p3570
aV\u5371\u9669
p3571
aV\u8f6f\u4ef6
p3572
aV\u516c\u4ea4\u7ad9
p3573
aV\u54c8\u54c8\u54c8
p3574
aV\u70ed\u6cea\u76c8\u7736
p3575
aV\u53ea\u6c42
p3576
aV\u6109\u60a6
p3577
aV\u661f\u661f
p3578
aV\u72b9\u8c6b
p3579
aV\u96be\u9053
p3580
aV\u5b66\u751f\u8bc1
p3581
aV\u56de\u9f99\u89c2
p3582
aV\u80af\u5fb7\u57fa
p3583
aV\u9999\u9505
p3584
aVYY
p3585
aV\u667a\u9f7f
p3586
aV\u81ea\u52a8
p3587
aV\u574f\u4eba
p3588
aV\u8001\u7f57
p3589
aV\u8d35\u7cfb
p3590
aV\u65e0\u803b
p3591
aV\u8c8c\u4f3c
p3592
aV\u5c4b\u91cc
p3593
aV\u805a\u9910
p3594
aV\u591c\u91cc
p3595
aV\u5546\u5bb6
p3596
aV\u7761\u7740
p3597
aV\u9053\u9898
p3598
aV\u574f\u4e8b
p3599
aV\u897f\u8857
p3600
aV\u5927\u7b11
p3601
aV\u6bcf\u6b21
p3602
aV\u5927\u6674\u5929
p3603
aV\u6df1\u523b
p3604
aV\u5b66\u751f
p3605
aV\u68a6\u6e38
p3606
aV\u8c46\u74e3
p3607
aV\u9759\u597d
p3608
aV\u4e94\u6708
p3609
aV\u5927\u96fe
p3610
aV\u56db\u5927
p3611
aV\u7687\u9a6c
p3612
aV\u773c\u770b
p3613
aV\u5927\u591a\u6570
p3614
aV\u96f6\u98df
p3615
aV\u5706\u6ee1\u6210\u529f
p3616
aV\u7761\u7720
p3617
aV\u60c5\u5546
p3618
aV\u5979\u4eec
p3619
aV\u728a\u5b50
p3620
aV\u64cd\u573a
p3621
aV\u4e00\u8f88\u5b50
p3622
aV\u4e13\u5bb6
p3623
aV\u4e00\u53cc
p3624
aV\u5b66\u957f
p3625
aV\u4e09\u6708
p3626
aV\u51fa\u7ebf
p3627
aV\u515a\u5458
p3628
aV\u820d\u5f97
p3629
aV\u76f8\u4f3c
p3630
aV\u5077\u8d70
p3631
aV\u9a7e\u6821
p3632
aV\u90a3\u82f1
p3633
aV\u770b\u770b\u4e66
p3634
aV\u6293\u7d27
p3635
aV\u56db\u5929
p3636
aV\u76f8\u4f34
p3637
aV\u5ba2\u6237\u7aef
p3638
aV\u4e00\u53e3
p3639
aV\u5bf9\u624b
p3640
aV\u5f88\u957f
p3641
aV\u5988\u86cb
p3642
aV\u4e00\u53ea
p3643
aV\u9b54\u6559
p3644
aV\u9886\u5bfc
p3645
aV\u665a\u7761
p3646
aVmark
p3647
aV\u4e00\u53f0
p3648
aV\u5fc3\u9178
p3649
aV\u53d1\u6cc4
p3650
aV\u66b4\u96e8
p3651
aV\u8fc7\u763e
p3652
aV\u91cd\u9022
p3653
aV\u9677\u5165
p3654
aV\u771f\u6b63
p3655
aV\u7279\u522b
p3656
aV\u5149\u68cd\u8282
p3657
aV\u5927\u6d77
p3658
aV\u5c0f\u5b69
p3659
aV\u5c0f\u5b66
p3660
aV\u81ea\u7136
p3661
aV\u54ea\u6837
p3662
aV\u540c\u5b66\u805a\u4f1a
p3663
aV\u601d\u5bc6\u8fbe
p3664
aV\u5bdd\u5ba4
p3665
aV\u5174\u594b
p3666
aV\u624b\u673a\u53f7
p3667
aV\u53ef\u6015
p3668
aV\u767d\u5929
p3669
aV\u5065\u5eb7
p3670
aV\u6253\u8d25
p3671
aV\u503c\u5f97
p3672
aV\u4e0d\u8fc7
p3673
aV\u5f55\u53d6
p3674
aV\u5f88\u96be
p3675
aV\u82b1\u75f4
p3676
aV\u53ea\u4f1a
p3677
aV\u5bf9\u6218
p3678
aV\u9884\u7ea6
p3679
aV\u5730\u53bb
p3680
aV\u60f3\u5230
p3681
aV\u5929\u4e0b\u8db3\u7403
p3682
aV\u5f39\u7434
p3683
aVlt
p3684
aV\u6b3a\u8d1f
p3685
aV\u8eab\u4efd\u8bc1
p3686
aV\u5207\u6362
p3687
aV\u5341\u70b9
p3688
aV\u5fc3\u613f
p3689
aV\u53ef\u4e50
p3690
aV2011
p3691
aV2010
p3692
aV2013
p3693
aV2012
p3694
aV\u62dc\u5e74
p3695
aV\u9ed1\u77f3\u7901
p3696
aV\u4f11\u5047
p3697
aV\u6548\u679c
p3698
aV\u4e0b\u4e2a
p3699
aV\u4e00\u4e2a\u534a
p3700
aV\u571f\u56fd
p3701
aV\u4e00\u904d
p3702
aV\u59b9\u7eb8
p3703
aV\u65b0\u5e74\u597d
p3704
aV\u7cfb\u5217\u8bb2\u5ea7
p3705
aVqq
p3706
aViPhone
p3707
aV\u89c4\u5219
p3708
aV\u4eba\u95f4
p3709
aV\u65f6\u523b
p3710
aV\u89c4\u5212
p3711
aV\u4e07\u6709
p3712
aV\u8fd4\u6821
p3713
aV\u5403\u5b8c\u996d
p3714
aV\u6d3b\u5f97
p3715
aV\u5acc\u5f03
p3716
aV\u8fd0\u52a8\u4f1a
p3717
aV\u9ad8\u4e09
p3718
aV\u59cb\u7ec8
p3719
aV\u80e1\u540c
p3720
aV\u66f4\u65b0
p3721
aV\u6700\u4f73
p3722
aV\u5fd9\u6d3b
p3723
aV\u8bfe\u7a0b
p3724
aV\u4e0d\u7ecf\u610f
p3725
aV\u5728\u610f
p3726
aV\u591a\u4eba
p3727
aV\u65c5\u987a
p3728
aV\u51cc\u4e71
p3729
aV\u5927\u98ce
p3730
aV\u80fd\u91cf
p3731
aV\u5b64\u5355
p3732
aV\u5564\u9152
p3733
aV\u707f\u70c2
p3734
aV\u6bcd\u4eb2\u8282
p3735
aV\u6de1\u6de1\u7684
p3736
aV\u7559\u604b
p3737
aVcry
p3738
aV\u591a\u4e48
p3739
aV\u6cea\u70b9
p3740
aV\u6ca1\u5173\u7cfb
p3741
aV\u591a\u4e45
p3742
aV\u5c0f\u65f6\u5019
p3743
aVwanan1206
p3744
aV\u5ef6\u5b89\u8def
p3745
aV\u5b89\u5b89\u9759\u9759
p3746
aV\u53eb\u9192
p3747
aV\u504f\u6267
p3748
aV\u6c89\u6dc0
p3749
aV80
p3750
aV81
p3751
aV84
p3752
aVout
p3753
aV\u9762\u5305
p3754
aV\u56f0\u6270
p3755
aV\u5c0f\u5e74
p3756
aV\u6c47\u603b
p3757
aV\u7eff\u706f
p3758
aVDUT
p3759
aV\u7b49\u5230
p3760
aV\u4e0d\u4f4f
p3761
aV\u73cd\u60dc
p3762
aV\u8f6c\u81ea
p3763
aV\u65b0\u52a0\u5761
p3764
aV\u7f51\u901f
p3765
aV\u98ce\u6247
p3766
aV\u9ebb\u9ebb
p3767
aV\u6559\u5e08\u8282
p3768
aV\u4e0a\u8def
p3769
aV\u6b22\u4e50
p3770
aV\u5750\u7b49
p3771
aV\u6f2b\u957f
p3772
aV\u53ef\u60b2
p3773
aV\u6881\u6e05\u8def
p3774
aV\u4fe1\u7528\u5361
p3775
aV\u4e00\u70b9
p3776
aV\u60ec\u610f
p3777
aV\u9ad8\u5bcc\u5e05
p3778
aV\u6ca1\u4eba
p3779
aV\u7535\u6e90
p3780
aV\u56de\u7b54
p3781
aV\u6240\u8c13
p3782
aV\u5b66\u9662
p3783
aV\u6700\u8fd1
p3784
aV\u897f\u5c71
p3785
aV\u5927\u4f19
p3786
aV\u59da\u7b1b
p3787
aV\u6587\u660e
p3788
aV\u5927\u59e8\u5988
p3789
aV\u8111\u6b8b
p3790
aV\u5176\u4ed6\u4eba
p3791
aV\u601d\u7ef4
p3792
aV\u529f\u80fd
p3793
aV\u4fbf\u5b9c
p3794
aV\u627e\u56de
p3795
aV\u5f53\u5b66\u9738
p3796
aV\u51cf\u5f31\u5230
p3797
aV\u524d\u884c
p3798
aV\u659c\u773c
p3799
aV\u5927\u9646
p3800
aV\u70e4\u9c7c
p3801
aV\u717d\u60c5
p3802
aV\u53ef\u80fd
p3803
aV\u5bf9\u8c61
p3804
aV\u7b7e\u540d
p3805
aV\u8ffd\u6c42
p3806
aV\u5fd7\u613f
p3807
aVUI
p3808
aV\u5237\u65b0
p3809
aVNB
p3810
aV\u601d\u7eea
p3811
aV\u6218\u80dc
p3812
aV\u5c0f\u9a6c
p3813
aV\u4e0b\u8f66
p3814
aV\u5bf9\u4e0d\u8d77
p3815
aV\u5b57\u73ed
p3816
aV\u540d\u4f01
p3817
aV\u5f7b\u5e95
p3818
aV\u8377\u6e05\u8def
p3819
aV\u602a\u4e0d\u5f97
p3820
aV\u7231\u4eba
p3821
aV\u77ed\u8896
p3822
aV\u5355\u7eaf
p3823
aV\u6e05\u534e
p3824
aV\u53d1\u4e2a
p3825
aV\u8fd0\u52a8
p3826
aV\u4e0b\u8f7d
p3827
aV\u522b\u79bb
p3828
aV\u603b\u5728
p3829
aV\u5403\u836f
p3830
aV\u68d2\u68d2
p3831
aV\u62d2\u7edd
p3832
aV\u6b22\u8fce
p3833
aV\u611f\u89e6
p3834
aV\u5f81\u96c6
p3835
aV\u8425\u9500
p3836
aV\u597d\u591a
p3837
aV\u597d\u5904
p3838
aV\u6076\u5fc3
p3839
aV\u4e94\u6708\u5929
p3840
aV\u75db\u5feb
p3841
aV\u4e50\u89c6
p3842
aV\u9664\u5915
p3843
aV\u5947\u602a
p3844
aV\u9093\u7d2b\u68cb
p3845
aV\u5927\u5988
p3846
aV\u597d\u96be
p3847
aV\u770b\u5427
p3848
aV\u827a\u672f
p3849
aV\u505a\u996d
p3850
aV\u597d\u597d
p3851
aV\u4e3a\u5565
p3852
aV\u751c\u871c
p3853
aV\u97f3\u4e50
p3854
aV\u6bb5\u65f6\u95f4
p3855
aV\u52a8\u753b\u7247
p3856
aV\u76ee\u6807
p3857
aV\u4e50\u8da3
p3858
aV\u9152\u5e97
p3859
aV\u610f\u601d
p3860
aV\u6b66\u6c49\u7406\u5de5\u5927\u5b66
p3861
aV\u817e\u8baf
p3862
aV\u53eb\u505a
p3863
aV\u672c\u547d\u5e74
p3864
aV\u5988\u5988
p3865
aV\u5982\u4f55
p3866
aV\u534a\u51b3\u8d5b
p3867
aV\u82b1\u94b1
p3868
aV\u7965\u548c
p3869
aV\u4ee5\u540e
p3870
aV\u7cbe\u795e
p3871
aV\u8eab\u4e0a
p3872
aV2015
p3873
aV\u4e0d\u4e8c
p3874
aV\u5996\u602a
p3875
aV\u4e00\u53e5
p3876
aV\u4eba\u54c1
p3877
aVbed
p3878
aV\u65e0\u804a
p3879
aV\u597d\u5947
p3880
aV\u65e9\u4e0a
p3881
aV\u5047\u5982
p3882
aV\u8bb2\u89e3
p3883
aV2015.4
p3884
aV\u54ea\u4e9b
p3885
aV\u9636\u6bb5
p3886
aV\u91d1\u94b1
p3887
aV\u521a\u624d
p3888
aV\u597d\u5403
p3889
aV\u5b66\u9738
p3890
aV\u4e0d\u8981\u8138
p3891
aV\u6709\u70b9\u7d2f
p3892
aV\u5927\u793c
p3893
aV\u516c\u76ca
p3894
aV\u77e5\u8bc6
p3895
aV\u5929\u51b7
p3896
aV\u773c\u775b
p3897
aV\u5927\u5927
p3898
aV\u4fe1\u4ef0
p3899
aV\u8001\u8001\u5b9e\u5b9e
p3900
aV\u4e0d\u4e70
p3901
aV\u5e94\u7528
p3902
aV\u5c0f\u65f6
p3903
aV\u8fc7\u540e
p3904
aV\u4fe1\u4efb
p3905
aV\u5df2\u7ecf
p3906
aV\u4e92\u52a8
p3907
aV\u843d\u5730
p3908
aV\u5173\u673a
p3909
aV\u82b1\u5fc3
p3910
aV\u6211\u7231\u4f60
p3911
aV\u590d\u6742
p3912
aV4000
p3913
aV\u5b69\u5b50
p3914
aV\u63a8\u8350
p3915
aV\u516c\u56ed
p3916
aV\u6700\u4eae
p3917
aV\u9ad8\u5927
p3918
aV\u5a5a\u793c
p3919
aV\u9001\u8d70
p3920
aV\u6d17\u5934
p3921
aV\u4e00\u56de
p3922
aV\u53d1\u4e86
p3923
aV\u4e0d\u5c11
p3924
aV\u68a6\u91cc
p3925
aV\u4f20\u7edf
p3926
aV\u4e00\u53f7
p3927
aV\u80e1\u5f66\u658c
p3928
aV02
p3929
aV\u5b64\u72ec
p3930
aV\u542f\u7a0b
p3931
aV\u95ed\u5173
p3932
aV\u5531\u5f97
p3933
aV\u72b6\u6001
p3934
aV\u732a\u5934
p3935
aV\u5927\u597d
p3936
aV\u8f7b\u677e
p3937
aV\u5f00\u5f00\u5fc3\u5fc3
p3938
aV\u5435\u9192
p3939
aV\u56fd\u5916
p3940
aV\u53f0\u7403
p3941
aV\u5efa\u8bbe
p3942
aV\u56de\u53bb
p3943
aV\u5199\u4f5c
p3944
aV\u64e6\u64e6
p3945
aV\u56db\u4e2a
p3946
aV\u5171\u52c9
p3947
aV\u5e05\u6c14
p3948
aVsally
p3949
aV\u601d\u8def
p3950
aV07
p3951
aV\u601d\u5ff5
p3952
aV\u5927\u5956
p3953
aV\u5367\u5e95
p3954
aV\u70b9\u540d
p3955
aV\u4eba\u80fd
p3956
aV\u5927\u795e
p3957
aV\u70b9\u7403
p3958
aV05
p3959
aV\u4e0d\u4e0a
p3960
aV\u6e29\u6cc9
p3961
aV\u80cc\u540e
p3962
aV\u9a6c\u5e74
p3963
aV\u53d1\u7ea2\u5305
p3964
aV\u7248\u672c
p3965
aV\u5c4c\u4e1d
p3966
aV\u6821\u56ed
p3967
aV\u5907\u4efd
p3968
aV\u7a7f\u7740
p3969
aV\u6c34\u679c
p3970
aV09
p3971
aV\u57f9\u8bad
p3972
aV\u6c9f\u901a
p3973
aV\u6210\u4e3a
p3974
aV\u80c3\u53e3
p3975
aV\u5584\u5f85
p3976
aV\u4e00\u6b65\u4e4b\u9065
p3977
aV\u52a0\u73ed
p3978
aV\u4e54\u5e03\u65af
p3979
aV\u771f\u4ed6\u5988
p3980
aV\u8bb8\u613f
p3981
aV\u54ea\u4e2a
p3982
aV\u4f24\u4e0d\u8d77
p3983
aV\u6e05\u534e\u5927\u5b66\u7f8e\u672f\u5b66\u9662
p3984
aVNEThttp
p3985
aV\u53ef\u662f
p3986
aV\u7fa4\u91cc
p3987
aV\u98de\u5e38\u51c6
p3988
aV\u4e0d\u89c1
p3989
aV\u88c1\u5224
p3990
aV\u8fc7\u53bb
p3991
aV\u672c\u8eab
p3992
aV\u535a\u5ba2
p3993
aV\u6cf0\u56fd
p3994
aV\u597d\u5e05
p3995
aV\u591a\u597d
p3996
aV\u62ac\u5934
p3997
aV\u8001\u5929
p3998
aV\u673a\u4f1a
p3999
aV\u95ea\u7535
p4000
aV\u6587\u6863
p4001
aV\u65b9\u6cd5
p4002
aV\u674e\u8001\u5e08
p4003
aV\u6253\u6b7b
p4004
aV\u4e66\u5e97
p4005
aV\u7ed3\u5a5a
p4006
aV\u575a\u5f3a
p4007
aV\u91cd\u6e29
p4008
aV\u5546\u4e1a
p4009
aV\u7406\u6027
p4010
aV\u771f\u4e0d\u5bb9\u6613
p4011
aV\u8fce\u63a5
p4012
aV\u65e0\u5e38
p4013
aV\u80d6\u5b50
p4014
aV\u4f30\u8ba1
p4015
aV\u6539\u4e3a
p4016
aV\u961f\u53cb
p4017
aV\u56db\u5ddd
p4018
aV\u5b66\u90e8
p4019
aV\u59e5\u7237
p4020
aV\u5206\u949f
p4021
aV\u53d1\u73b0\u81ea\u5df1
p4022
aV\u7537\u4eba
p4023
aV\u7075\u9b42
p4024
aV\u54c8\u767b
p4025
aV\u4ece\u6765\u4e0d
p4026
aV\u4e0d\u8981
p4027
aV\u5f20\u9753\u9896
p4028
aV\u4e8b\u4e8b
p4029
aV\u9a8c\u8bc1
p4030
aV\u8c22\u8c22\u4f60\u4eec
p4031
aV\u5dc5\u5cf0
p4032
aV\u8981\u662f
p4033
aV\u95fa\u871c
p4034
aV\u5b8c\u6bd5
p4035
aV\u674e\u5a1c
p4036
aV\u5fc5\u987b
p4037
aVshi
p4038
aV\u63a5\u53d7
p4039
aV\u843d\u540e
p4040
aV\u7956\u56fd
p4041
aViPad
p4042
aVPs
p4043
aV\u5c0f\u4f19\u4f34
p4044
aV\u6bcf\u5230
p4045
aV\u8001\u5a46
p4046
aV\u5b9d\u8d1d
p4047
aV\u7eaa\u5ff5
p4048
aV\u516c\u91cc
p4049
aV\u652f\u4ed8
p4050
aV\u5356\u840c
p4051
aV\u5fc3\u7406
p4052
aV\u6c5f\u82cf
p4053
aV\u597d\u6d88\u606f
p4054
aV\u5b9d\u6d01
p4055
aV\u8425\u4e1a\u5385
p4056
aV\u5149\u660e
p4057
aV\u5ea7\u4f4d
p4058
aV\u6d51\u8eab
p4059
aV\u6606\u660e
p4060
aVgmail
p4061
aV\u975e\u5e38
p4062
aVPS
p4063
aV\u6df1\u5733
p4064
aV\u70b9\u534a
p4065
aV\u5473\u513f
p4066
aV\u6821\u56ed\u884c
p4067
aV\u7ba1\u7406
p4068
aV\u7089\u77f3
p4069
aV\u8c37\u6b4c
p4070
aV\u7761\u524d
p4071
aV\u56de\u5bb6
p4072
aV\u52a8\u7269\u56ed
p4073
aV\u60b2\u4f24
p4074
aV\u5efa\u7b51\u5bb6
p4075
aV\u521b\u9020
p4076
aV\u8d28\u91cf
p4077
aV\u6c34\u6728
p4078
aV\u80a1\u7968
p4079
aVPK
p4080
aV\u6240\u6709\u4eba
p4081
aV\u5411\u524d
p4082
aV\u56de\u4e0d\u53bb
p4083
aV\u5f00\u6e90
p4084
aV\u5927\u5e08
p4085
aV\u5185\u6d4b
p4086
aV\u8fde\u80dc
p4087
aV\u778c\u7761
p4088
aV\u7b7e\u5230
p4089
aV\u4f4d\u7f6e
p4090
aV\u6696\u548c
p4091
aV120
p4092
aV\u5962\u4f88
p4093
aVduang
p4094
aV\u987a\u5176\u81ea\u7136
p4095
aV\u5915\u9633
p4096
aV\u5076\u7136
p4097
aV\u8001\u5a18
p4098
aV\u5206\u624b
p4099
aV\u5c31\u591f
p4100
aV\u611f\u4eba
p4101
aV\u672c\u4e66
p4102
aV\u53d1\u90ae\u4ef6
p4103
aV\u5e73\u677f
p4104
aV\u660e\u4fe1\u7247
p4105
aV\u54c8\u54c8
p4106
aV\u52ff\u5fd8
p4107
aV\u70e6\u4eba
p4108
aV\u7cfb\u7edf
p4109
aV\u65e0\u654c
p4110
aV\u6539\u4e86
p4111
aV\u4fdd\u62a4
p4112
aV\u706b\u5f71
p4113
aV\u60f3\u6765
p4114
aV\u4e00\u76f4
p4115
aV\u4e8b\u4e1a
p4116
aV\u4f2f\u5ddd
p4117
aV\u773c\u524d
p4118
aV\u5357\u65b9
p4119
aV\u5bfc\u81f4
p4120
aV\u6253\u9ebb\u5c06
p4121
aV\u4f7f\u4eba
p4122
aV\u533a\u522b
p4123
aV\u4e00\u770b
p4124
aV\u5fc5\u5907
p4125
aV\u4e2d\u534e
p4126
aV\u4e2d\u5348
p4127
aV\u7d2b\u64cd
p4128
aV\u975e\u5f97
p4129
aV\u4f5c\u8005
p4130
aV3G
p4131
aV\u4e00\u5c81
p4132
aV\u8ff7\u5931
p4133
aV\u6b27\u51a0
p4134
aV\u65e0\u80fd\u4e3a\u529b
p4135
aV\u671f\u5f85
p4136
aV\u5c0f\u7c73
p4137
aV\u751f\u65e5\u5feb\u4e50
p4138
aV\u89e3\u8bf4
p4139
aV\u4ee5\u524d
p4140
aV\u4e07\u6076
p4141
aV\u5b9d\u8d1d\u513f
p4142
aV\u9009\u51fa
p4143
aV\u6652\u592a\u9633
p4144
aV\u5927\u5b66\u751f
p4145
aV\u84dd\u8272
p4146
aV\u8fa9\u8bba
p4147
aV\u50f5\u5c38
p4148
aV\u8bc8\u9a97
p4149
aV\u8bba\u6587
p4150
aV\u524d\u8f88
p4151
aV\u5076\u50cf
p4152
aV\u5feb\u5230
p4153
aV\u62ff\u4e0b
p4154
aV\u6536\u62fe
p4155
aV\u5bf9\u4e0d\u4f4f
p4156
aV\u5fc3\u75bc
p4157
aV\u4e00\u573a
p4158
aV\u672c\u5b66\u671f
p4159
aV\u8def\u7531\u5668
p4160
aV\u8d5a\u94b1
p4161
aV\u4e00\u773c
p4162
aV\u6765\u88ad
p4163
aV\u660e\u65e9
p4164
aV\u6709\u4e9b
p4165
aV\u72af\u89c4
p4166
aV\u7f8e\u5e1d
p4167
aV\u6bcf\u5468
p4168
aV\u5bfb\u627e
p4169
aV\u5468\u5e74
p4170
aV\u953b\u70bc
p4171
aV\u59b9\u59b9
p4172
aV\u5f92\u6b65
p4173
aV\u6709\u4e8b
p4174
aV\u770b\u5230
p4175
aV\u4fdd\u6301
p4176
aV\u4e00\u5757
p4177
aV\u611f\u89c9
p4178
aV2014
p4179
aV\u67d0\u4e2a
p4180
aV\u53d1\u8868
p4181
aV\u8fd9\u4e48\u4e45
p4182
aV\u5b66\u751f\u4f1a
p4183
aV\u8981\u4e0d\u7136
p4184
aV\u5c0f\u5c0f
p4185
aV\u5e7f\u5dde
p4186
aV\u6709\u4eba
p4187
aV\u77ed\u4fe1
p4188
aV\u9f20\u6807
p4189
aV\u65e0\u8bba
p4190
aV\u5609\u5bbe
p4191
aV\u4f1a\u8ba1\u5b66
p4192
aV\u76f8\u5904
p4193
aV\u5fcd\u4f4f
p4194
aV\u5468\u9896
p4195
aV\u96be\u53d7
p4196
aV\u54ea\u4f4d
p4197
aV\u8001\u5bb6
p4198
aV\u51a0\u519b
p4199
aV\u751f\u65e5
p4200
aV\u4e0d\u4e86
p4201
aV\u53ef\u4ee5
p4202
aV\u524d\u8fdb
p4203
aV\u5343\u4e07\u522b
p4204
aV\u70c2\u7247
p4205
aV\u97e9\u56fd
p4206
aV\u66fc\u57ce
p4207
aV\u889c\u5b50
p4208
aV\u65c5\u884c
p4209
aV\u7ec4\u7ec7
p4210
aV\u79cb\u5929
p4211
aV\u5dee\u4e0d\u591a
p4212
aV\u813e\u6c14
p4213
aV\u5730\u7403
p4214
aV\u597d\u6000\u5ff5
p4215
aV\u65f6\u95f4
p4216
aV\u5403\u665a\u996d
p4217
aV\u7a7a\u6c14\u8d28\u91cf
p4218
aV\u63a5\u5230
p4219
aV\u592a\u8d5e
p4220
aV\u91cd\u8981
p4221
aV\u65e9\u7761\u65e9\u8d77
p4222
aV\u5076\u9047
p4223
aV\u73a9\u7b11
p4224
aV\u4e0d\u884c
p4225
aV\u4e07\u80fd
p4226
aVssdut
p4227
aVMBA
p4228
aV\u9648\u8d6b
p4229
aV\u5fcd\u4e0d\u4f4f
p4230
aVPPP
p4231
aV\u6708\u4eae
p4232
aV\u6ce8\u610f
p4233
aVPPT
p4234
aV\u4e13\u5fc3
p4235
aVandroid
p4236
aV\u600e\u4e48\u529e
p4237
aV\u8d1f\u8d23
p4238
aV\u80dc\u5229
p4239
aV\u6050\u60e7\u75c7
p4240
aV\u4e2d\u79cb\u8282
p4241
aV\u7535\u5b50\u7cfb
p4242
aV\u611f\u6069
p4243
aV\u5bff\u53f8
p4244
aV\u5473\u9053
p4245
aVios
p4246
aV\u4e0d\u670d
p4247
aV\u4e2d\u5c71\u8def
p4248
aV\u771f\u68d2
p4249
aV\u6700\u68d2
p4250
aV\u5c31\u8ba9
p4251
aV\u4f24\u611f
p4252
aV\u5b9e\u9a8c
p4253
aV\u5fae\u535a\u7fa4
p4254
aV\u70b9\u5230
p4255
aV\u725b\u8089
p4256
aV\u5927\u4e00
p4257
aV\u8fd8\u662f
p4258
aV\u529e\u516c\u5ba4
p4259
aV\u5927\u9152\u5e97
p4260
aVmac
p4261
aV\u8bf7\u6559
p4262
aV48
p4263
aV\u4e00\u9053
p4264
aV\u67d0\u4e9b
p4265
aV\u523a\u6fc0
p4266
aV\u8282\u65e5\u5feb\u4e50
p4267
aV\u76f4\u5230
p4268
aV\u9003\u79bb
p4269
aV\u597d\u7528
p4270
aV\u6709\u4e2a
p4271
aV\u597d\u5fc3
p4272
aV\u5230\u6765
p4273
aV\u6253\u724c
p4274
aV\u7ed3\u5c40
p4275
aV\u5934\u6761
p4276
aV\u4e0d\u8be5
p4277
aV\u6539\u9769
p4278
aV\u793e\u4ea4
p4279
aV\u6ca1\u4e0a
p4280
aV\u6bcd\u6821
p4281
aV\u6ce1\u6c64
p4282
aV\u592a\u68d2\u4e86
p4283
aV\u8ba4\u77e5
p4284
aV\u591c\u665a
p4285
aV\u81ea\u7531
p4286
aV\u5e78\u798f\u5feb\u4e50
p4287
aV\u4e00\u540d
p4288
aV\u5bf9\u65b9
p4289
aV\u65e0\u610f
p4290
aV\u6b7b\u4ea1
p4291
aV\u623f\u5730\u4ea7
p4292
aV\u56de\u590d
p4293
aV\u65b0\u95fb\u8054\u64ad
p4294
aV\u963f\u59e8
p4295
aV\u5c24\u5176
p4296
aV\u6765\u8bf4
p4297
aV\u4ed6\u4f1a
p4298
aV\u5954\u6ce2
p4299
aV\u9047\u4e0a
p4300
aV\u86cb\u75bc
p4301
aViOS
p4302
aV\u4e3b\u52a8
p4303
aV\u8dea\u6c42
p4304
aV\u75b2\u52b3
p4305
aV\u957f\u5f97
p4306
aV\u5168\u6c11
p4307
aV\u56de\u5934
p4308
aV\u8fd1\u671f
p4309
aV\u7a97\u6237
p4310
aV\u4e16\u754c\u672b\u65e5
p4311
aV\u665a\u70b9
p4312
aV\u505a\u4eba
p4313
aV\u94a5\u5319
p4314
aV\u5f62\u5bb9
p4315
aV\u5b69\u7eb8
p4316
aV\u6839\u672c
p4317
aV\u63d0\u793a
p4318
aV\u6d6e\u8e81
p4319
aV\u545c\u545c
p4320
aV\u60c5\u4eba
p4321
aV\u4e0d\u8ba9
p4322
aV\u83ab\u540d
p4323
aV\u7b14\u8bd5
p4324
aV\u597d\u4e0d\u597d
p4325
aV\u5c0a\u91cd
p4326
aV\u6d6e\u4e91
p4327
aV\u4ed6\u4eba
p4328
aV\u6280\u5de7
p4329
aV\u8fd9\u5929
p4330
aV\u6768\u5b97\u7eac
p4331
aV\u53cc\u6e05
p4332
aV\u5fc3\u76ee
p4333
aV\u540c\u6837
p4334
aV\u60ca\u8bb6
p4335
aV\u9a6c\u822a
p4336
aV\u5e73\u65f6
p4337
aV\u4f5c\u6b7b
p4338
aV\u771f\u4e0d\u77e5\u9053
p4339
aV\u8fbd\u5b81
p4340
aV\u6574\u5929
p4341
aVedu
p4342
aV\u5c0f\u7f16
p4343
aV\u6709\u8da3
p4344
aV\u9694\u58c1
p4345
aV\u5b66\u5230
p4346
aV\u6ee1\u6ee1\u7684
p4347
aV\u7b2c\u4e00\u540d
p4348
aV\u8fd9\u79cd
p4349
aV\u4e4b\u6240\u4ee5
p4350
aV\u770b\u4e0d\u89c1
p4351
aV\u98ce\u666f
p4352
aV\u9053\u5fb7
p4353
aV\u8ba1\u7b97\u673a\u7cfb
p4354
aV\u56de\u9996
p4355
aV\u821e\u8e48
p4356
aV\u611f\u60f3
p4357
aV\u7231\u5fc3
p4358
aV\u4eba\u513f
p4359
aV\u4e00\u74f6
p4360
aV\u897f\u96c5\u56fe
p4361
aV\u660e\u663e
p4362
aV\u652f\u6559
p4363
aV\u5b89\u68c0
p4364
aV\u9739\u96f3
p4365
aV\u661f\u7403\u5927\u6218
p4366
aV\u53d8\u5316
p4367
aV\u5373\u5c06
p4368
aV\u5927\u524d\u5e74
p4369
aV\u6765\u5f97\u53ca
p4370
aV\u60ed\u6127
p4371
aV\u660e\u660e
p4372
aV\u5f88\u723d
p4373
aV\u884c\u674e
p4374
aV\u7ecf\u7406
p4375
aV\u8003\u5b8c
p4376
aV\u5c0f\u5fc3
p4377
aV\u6587\u827a
p4378
aV\u60c5\u4fa3
p4379
aV\u8f66\u961f
p4380
aV\u6bdb\u8863
p4381
aV\u6982\u7387
p4382
aVzhouying66
p4383
aVtmd
p4384
aV\u5230\u5904
p4385
aV\u660e\u661f
p4386
aV\u9ad8\u6e05
p4387
aV\u592a\u4e45
p4388
aV\u5dee\u8bc4
p4389
aV\u504f\u897f\u98ce
p4390
aV\u516d\u70b9
p4391
aV\u5012\u9709
p4392
aV\u516c\u53f8
p4393
aV\u9080\u8bf7
p4394
aV\u5bf9\u5f97\u8d77
p4395
aV\u997f\u6b7b
p4396
aVps
p4397
aV\u4e00\u5468\u5e74
p4398
aV\u6536\u8d2d
p4399
aV\u62db\u751f
p4400
aV\u5bbd\u5bb9
p4401
aV\u592a\u5f31
p4402
aV\u95e8\u7968
p4403
aV\u4e2d\u5b66
p4404
aV\u4e03\u5468\u5e74
p4405
aV\u5f97\u610f
p4406
aV\u70b9\u513f
p4407
aV\u51c6\u5907
p4408
aV\u571f\u8c46
p4409
aV\u4e1c\u738b\u5e84
p4410
aV\u6807\u9898
p4411
aV\u559d\u591a
p4412
aV\u6765\u5f97
p4413
aV\u7d2f\u6210
p4414
aV\u60f3\u4e00\u60f3
p4415
aV\u4e00\u96c6
p4416
aV\u56fd\u9645
p4417
aV\u767b\u5f55
p4418
aV\u4ece\u5c0f
p4419
aV\u70ed\u95f9
p4420
aV\u70e4\u8089
p4421
aV\u5404\u4f4d
p4422
aV\u56de\u5230
p4423
aV\u660e\u665a
p4424
aV\u6ca1\u5e72
p4425
aV\u5750\u706b\u8f66
p4426
aV\u8be6\u60c5
p4427
aV\u8868\u793a
p4428
aV\u4e0a\u6765
p4429
aV\u8721\u70db
p4430
aV\u4f53\u68c0
p4431
aV\u4ece\u5c0f\u5230\u5927
p4432
aV\u8f93\u5165\u6cd5
p4433
aV\u5435\u67b6
p4434
aV\u5b9a\u4f4d
p4435
aV\u997c\u5e72
p4436
aV\u6570\u5b57
p4437
aV\u629b\u5f03
p4438
aV\u6307\u5bfc
p4439
aV\u62dc\u62dc
p4440
aV\u51fa\u5dee
p4441
aVBukhara
p4442
aV\u5feb\u9012
p4443
aV\u767b\u673a
p4444
aV\u7ed8\u6625\u8857
p4445
aV\u96be\u71ac
p4446
aV\u6295\u7968
p4447
aV\u6e05\u7814
p4448
aV\u4eba\u7528
p4449
aV\u597d\u7d2f
p4450
aV\u627f\u8ba4
p4451
aV\u4e00\u751f
p4452
aV\u603b\u51b3\u8d5b
p4453
aV\u7d2b\u8346
p4454
aV\u9065\u8fdc
p4455
aV\u7b2c\u4e00\u573a
p4456
aV\u76f8\u89c1
p4457
aV\u6127\u759a
p4458
aV\u5954\u8dd1
p4459
aV\u6253\u5f00
p4460
aV\u800c\u4e14
p4461
aV\u56fd\u5e86
p4462
aV\u6570\u5b66
p4463
aV\u8fd9\u5c4a
p4464
aV\u901f\u5ea6
p4465
aV\u60f3\u592a\u591a
p4466
aV\u7a33\u5b9a\u6027
p4467
aV\u4e0b\u6b21
p4468
aV\u5927\u5df4
p4469
aV\u627f\u8bfa
p4470
aV\u6ca1\u5b8c\u6ca1\u4e86
p4471
aV\u8033\u673a
p4472
aVhr
p4473
aV\u8001\u5988
p4474
aV\u524d\u8def
p4475
aV\u7eaf\u6d01
p4476
aV\u70b9\u70b9
p4477
aV\u5927\u5de5
p4478
aV\u5de8\u4e50\u90e8
p4479
aV\u65b9\u4fbf
p4480
aV\u8d44\u6599
p4481
aV\u4f55\u4ee5
p4482
aV\u4e00\u65e6
p4483
aV\u60f3\u7740
p4484
aV\u4e8b\u4ef6
p4485
aVbug
p4486
aV\u4e03\u5915
p4487
aV\u5982\u6b64
p4488
aV\u4e03\u5929
p4489
aV\u796d\u5960
p4490
aV\u53d1\u8868\u6587\u7ae0
p4491
aV\u535a\u58eb
p4492
aV\u60c5\u7eea
p4493
aV\u5730\u56fe
p4494
aV\u8fdc\u65b9
p4495
aV\u5e73\u5b89\u591c
p4496
aV\u5bbf\u820d
p4497
aV\u7761\u9192
p4498
aV\u6628\u5929\u665a\u4e0a
p4499
aV\u5927\u8d5e
p4500
aV\u4f5c\u606f
p4501
aV\u773c\u91cc
p4502
aV\u671b\u4eac
p4503
aV\u697c\u4e0a
p4504
aV\u697c\u4e0b
p4505
aV\u5947\u8469
p4506
aVP2P
p4507
aV\u767b\u673a\u53e3
p4508
aV\u7f51\u7533
p4509
aV\u6d77\u8d3c\u738b
p4510
aV\u6d4f\u89c8\u5668
p4511
aV\u8bb2\u5802
p4512
aV\u53f8\u9a6c
p4513
aV\u6ca1\u5e26
p4514
aV\u62a4\u7167
p4515
aV\u6635\u79f0
p4516
aV\u79ef\u6781
p4517
aV\u4e66\u5446\u5b50
p4518
aVMSN
p4519
aV\u573a\u666f
p4520
aV\u6211\u6765
p4521
aV\u81ea\u6211
p4522
aV\u5730\u5740
p4523
aVCCTV5
p4524
aV\u9a6c\u62c9\u677e
p4525
aVing
p4526
aV\u4e0b\u8bfe
p4527
aV\u8003\u8bd5
p4528
aV\u7591\u95ee
p4529
aV\u5f00\u62a2
p4530
aV\u53d1\u8a93
p4531
aV\u6253\u4e0d\u5f00
p4532
aV\u5929\u4f7f
p4533
aV\u5fe7\u6851
p4534
aV\u5a01\u6b66
p4535
aV46
p4536
aV\u6570\u636e\u5e93
p4537
aV\u83ab\u540d\u5176\u5999
p4538
aV\u7535\u68af
p4539
aV40
p4540
aV\u5e74\u5316
p4541
aV\u4e00\u4e0b\u5b50
p4542
aV\u4eca\u5929\u5929\u6c14
p4543
aV\u4e00\u6bb5\u65f6\u95f4
p4544
aV\u9633\u5149\u660e\u5a9a
p4545
aV\u59b9\u5b50
p4546
aV\u5feb\u70b9
p4547
aV\u5c45\u7136
p4548
aV\u4e0a\u6620
p4549
aV\u8fde\u63a5
p4550
aV\u9a82\u4eba
p4551
aV0.1
p4552
aV\u5357\u8857
p4553
aV\u5e7c\u7a1a
p4554
aV\u8106\u5f31
p4555
aV\u4e3b\u573a
p4556
aV\u5973\u5b50
p4557
aV\u4e92\u76f8
p4558
aV\u6c99\u5c18\u66b4
p4559
aV\u9119\u89c6
p4560
aV\u653e\u4e0b
p4561
aV\u4e00\u80a1
p4562
aV\u6fc0\u60c5
p4563
aV\u4eba\u751f
p4564
aV\u8001\u5916
p4565
aV4G
p4566
aV8000
p4567
aV\u5408\u4f19\u4eba
p4568
aV\u5c79\u99a8
p4569
aV\u7184\u706f
p4570
aV\u5bbd\u5e26
p4571
aV\u8001\u5927
p4572
aV\u73cd\u91cd
p4573
aV\u662f\u5426
p4574
aV\u9e21\u86cb
p4575
aV\u4e70\u70b9
p4576
aV\u4ed6\u4eec
p4577
aV\u591a\u6b21
p4578
aV\u70ed\u706b
p4579
aV\u5012\u8ba1\u65f6
p4580
aVCEO
p4581
aV\u5973\u5b69
p4582
aV\u51ac\u81f3
p4583
aV\u660e\u65e5
p4584
aV\u6000\u5ff5
p4585
aV\u5c0f\u5e97
p4586
aV\u795e\u7ecf\u75c5
p4587
aV\u8d76\u811a
p4588
aV\u64ad\u653e
p4589
a.