(lp0
V\u4e66\u8bb0
p1
aV\u4e24\u4ef6
p2
aV\u5931\u8054
p3
aV\u52b1\u5fd7
p4
aV\u51fa\u6765
p5
aV\u7b2c\u4e8c
p6
aV\u4e0b\u5468
p7
aV\u65b0\u751f
p8
aV\u5c0f\u817f
p9
aV\u5e73\u5b89
p10
aV\u8eab\u5fc3\u4ff1\u75b2
p11
aV\u575a\u5b9a
p12
aV\u9a91\u8f66
p13
aV\u5931\u604b
p14
aV\u8fa9\u8bba\u8d5b
p15
aV\u8ba9\u5ea7
p16
aV\u516d\u4e00
p17
aV\u4e00\u6b65\u4e4b\u9065
p18
aV\u94f6\u9b42
p19
aV\u5e94\u8be5
p20
aV\u60ca\u95fb
p21
aV\u70e4\u9c7c
p22
aV\u4ec0\u4e48\u6837
p23
aV\u53d1\u751f
p24
aV\u516d\u4e2a
p25
aV\u8bdd\u5267
p26
aV\u5bd2\u5047
p27
aV\u5305\u88f9
p28
aV\u505a\u70b9
p29
aV\u6c5f\u6e56
p30
aV\u521d\u4e2d
p31
aV\u670d\u52a1\u5668
p32
aV163
p33
aV\u6d66\u4e1c\u5357\u8def
p34
aV\u91cd\u542f
p35
aV\u592a\u70c2
p36
aV\u60ca\u559c
p37
aV\u7d2b\u91d1\u5c71
p38
aV\u8fd8\u8981
p39
aV\u4e00\u5e74\u4e00\u5ea6
p40
aV\u5144\u5f1f\u59d0\u59b9
p41
aV\u4e24\u5929
p42
aV\u9996\u6b4c
p43
aV\u8fd9\u5e74\u5934
p44
aV\u7bee\u7403
p45
aV\u54c1\u724c
p46
aV\u54c8\u6c14
p47
aVJapanLife
p48
aV\u73e0\u6c5f\u8def
p49
aV\u9017\u6bd4
p50
aV\u884c\u653f\u6cd5
p51
aVkindle
p52
aV\u6e38\u6cf3
p53
aV\u8001\u5a18
p54
aV\u5e7f\u5bcc
p55
aV\u96be\u4ee5
p56
aV\u8e0f\u4e0a
p57
aV\u5357\u5927
p58
aV\u4e00\u70b9
p59
aV\u4eff\u4f5b
p60
aV\u9c9c\u82b1
p61
aV\u661f\u661f
p62
aV\u4e16\u7eaa
p63
aV\u82b1\u5fc3
p64
aV\u897f\u85cf
p65
aV\u5410\u8840
p66
aV48
p67
aVdeadline
p68
aV\u6cbb\u6108
p69
aV\u63a5\u8fd1
p70
aV\u56de\u6765
p71
aV\u4e00\u53e3\u6c14
p72
aV\u5609\u5e74\u534e
p73
aV\u5750\u5730\u94c1
p74
aV\u5973\u5b69\u5b50
p75
aV\u8c46\u6d46
p76
aV\u7b2c\u4e00
p77
aV\u5413\u4eba
p78
aV\u6eda\u56de
p79
aV\u4e00\u8f6e
p80
aV\u7b97\u4e0d\u7b97
p81
aV\u89c9\u9192
p82
aV\u5165\u7761
p83
aV\u7b2c\u4e09
p84
aV\u661f\u671f\u4e94
p85
aV\u961f\u4f0d
p86
aV\u65b0\u7586
p87
aV49
p88
aV\u5916\u5957
p89
aV\u53a6\u95e8
p90
aV\u610f\u5473\u7740
p91
aV\u773c\u4e2d
p92
aV\u9a7e\u7167
p93
aV\u6781\u5176
p94
aV\u59d0\u59d0
p95
aV\u9f3b\u5b50
p96
aV\u770b\u8fc7
p97
aV\u5b9e\u9a8c\u5ba4
p98
aV\u7f8e\u7f8e
p99
aV\u54ce\u5440
p100
aV\u516c\u8def
p101
aV\u4e3a\u4e86
p102
aV\u6280\u672f
p103
aV\u771f\u7231
p104
aV\u5927\u6218
p105
aV\u4e0a\u5929
p106
aV\u4eba\u4f1a
p107
aV\u6211\u7238
p108
aV\u60c5\u51b5
p109
aV\u7f8a\u68a6
p110
aV\u5965\u4f53
p111
aV\u5f88\u4e45\u6ca1
p112
aV\u89c1\u8bc1
p113
aV\u9ad8\u624b
p114
aV\u4f9d\u8d56
p115
aV\u4ee3\u8d2d
p116
aV\u89c1\u8bc6
p117
aV.#
p118
aV\u4e94\u5e74
p119
aV\u7761\u4e2a
p120
aV\u5728\u5bb6
p121
aV\u4e0d\u7528
p122
aV\u4e00\u70b9\u70b9
p123
aV\u5c0f\u82f9\u679c
p124
aV\u5fb7\u56fd\u961f
p125
aV\u6765\u7535
p126
aV100
p127
aV\u56db\u6708
p128
aV\u7f57\u6c38\u6d69
p129
aV\u968f\u610f
p130
aV\u7ffb\u8bd1
p131
aV\u8fb9\u4e0a
p132
aV\u6b23\u8d4f
p133
aV\u6210\u72d7
p134
aV\u4e4b\u65c5
p135
aV\u6f2b\u6f2b
p136
aV\u65b0\u95fb
p137
aV\u65e0\u5948
p138
aV\u5973\u513f
p139
aV\u6d77\u8d3c\u738b
p140
aV\u8001\u662f
p141
aV\u56fd\u5b66
p142
aV\u4ea7\u54c1
p143
aV\u9f99\u867e
p144
aV\u5ba4\u5916
p145
aV\u4e0d\u9519
p146
aV\u5973\u670b\u53cb
p147
aV\u5de8\u4eba
p148
aV\u771f\u771f
p149
aV\u5f80\u5f80
p150
aV\u91cc\u9762
p151
aV\u770b\u4e66
p152
aV\u6625\u5929
p153
aV\u85af\u7247
p154
aV\u7ec8\u7a76
p155
aV\u795d\u4f60\u4eec
p156
aV\u597d\u5403
p157
aV\u6700\u540e
p158
aV45
p159
aV\u4e00\u5206\u949f
p160
aV\u62ff\u5230
p161
aVSqRr5M
p162
aV\u4e2d\u5c71\u516c\u56ed
p163
aV\u4eba\u4eba
p164
aV\u671f\u671b
p165
aV\u6492\u82b1
p166
aV\u4e3b\u89d2
p167
aV\u4e70\u4e70
p168
aV\u4e00\u6b21
p169
aV\u5230\u5bb6
p170
aV\u5e3d\u5b50
p171
aV\u5403\u996d
p172
aV\u8981\u5b66
p173
aV\u5927\u59e8\u5988
p174
aV\u7537\u53cb
p175
aV\u94fe\u63a5
p176
aV\u6253\u54c8\u6b20
p177
aV\u51ef\u6587
p178
aV\u7a7f\u8d8a
p179
aV\u718a\u732b
p180
aV\u661f\u5ea7
p181
aV\u91cd\u751f
p182
aV\u4e00\u6b3e
p183
aV\u61d2\u89c9
p184
aV\u9524\u5b50
p185
aVmatlab
p186
aV\u4eba\u4eec
p187
aV\u5927\u8857
p188
aV\u770b\u4e2a
p189
aV\u54ce\u54df
p190
aVhaha
p191
aV\u52ff\u6270
p192
aV\u5fae\u76d8
p193
aV\u526a\u77ed
p194
aV\u5feb\u4e50
p195
aV\u8003\u751f
p196
aV\u8bfb\u4e66
p197
aV\u4ee5\u4e3a
p198
aV90
p199
aVhold
p200
aV\u8d34\u5fc3
p201
aV\u6b63\u5f0f
p202
aV\u8fd9\u662f
p203
aV\u4e00\u6b65
p204
aVmm
p205
aV\u5ba2\u670d
p206
aV\u90a3\u91cc
p207
aV\u8fd9\u65f6\u5019
p208
aV\u5e38\u5dde
p209
aV\u505a\u51fa
p210
aV\u8bbf\u8c08
p211
aV\u4e70\u4e2a
p212
aV\u6211\u5988
p213
aV\u518d\u6218
p214
aV\u96be\u8fc7
p215
aV\u660e\u5929
p216
aV\u6b27\u6d32
p217
aV\u5973\u5b69\u513f
p218
aV\u518d\u4e5f\u4e0d\u4f1a
p219
aV\u5b9e\u529b
p220
aV\u4f18\u96c5
p221
aV\u51b3\u5fc3
p222
aV\u5404\u4f4d
p223
aV\u7231\u60c5
p224
aV\u665a\u4f1a
p225
aV\u672a\u6765
p226
aV\u60ca\u5446
p227
aV\u5723\u8bde\u8282
p228
aV\u6e05\u6668
p229
aV\u5609\u677e
p230
aV\u5237\u5c4f
p231
aV\u5907\u8bfe
p232
aV\u592a\u5e05
p233
aV\u53f0\u6e7e
p234
aV\u914d\u5408
p235
aV\u7b2c\u4e00\u6b21
p236
aV\u7559\u5b66
p237
aV\u6539\u53d8
p238
aV\u4e00\u8bb0
p239
aV\u54b3\u54b3
p240
aV\u4e00\u6bb5
p241
aV\u5c0f\u80d6
p242
aV\u8d70\u8def
p243
aV\u8001\u677f
p244
aV\u5815\u843d
p245
aV\u6e05\u660e
p246
aV\u5f88\u8d5e
p247
aV\u5835\u5f97
p248
aV\u5077\u4e50
p249
aV\u6821\u56ed
p250
aV\u8de8\u5e74
p251
aV\u5410\u69fd
p252
aV\u5144\u5f1f
p253
aV\u4e56\u4e56
p254
aV\u7b80\u5355
p255
aV\u5fc3\u7d2f
p256
aV\u62e5\u62b1
p257
aV\u53d7\u4e0d\u4e86
p258
aV\u5584\u826f
p259
aV\u5165\u624b
p260
aV\u9519\u8bef
p261
aV\u5927\u5b9d
p262
aV\u4e0d\u540c
p263
aV......
p264
aVw2m
p265
aV\u5bbd\u5bb9
p266
aV\u5c0f\u5c41\u5b69
p267
aV\u9752\u5c9b
p268
aV\u9171\u6cb9
p269
aV\u5fcd\u53d7
p270
aV\u5341\u5206\u949f
p271
aV\u4e8b\u5b9e\u8bc1\u660e
p272
aV\u9000\u51fa
p273
aV\u4e0d\u4f1a
p274
aV\u5468\u6770\u4f26
p275
aV__
p276
aV\u90a3\u5929
p277
aV\u867d\u7136
p278
aV\u8d26\u53f7
p279
aV\u6c42\u804c
p280
aV\u670d\u52a1\u5458
p281
aV\u5f3a\u5927
p282
aV\u5567\u5567
p283
aV\u5f52\u6765
p284
aV\u88ab\u5b50
p285
aVRM
p286
aV\u65e9\u7761
p287
aVz83WqJq
p288
aV\u7406\u53d1\u5e97
p289
aV\u5c0f\u5c0f\u7684
p290
aV\u6076\u5fc3
p291
aV\u7b52\u5b50
p292
aV\u51c6\u65f6
p293
aV\u9047\u5230
p294
aV\u8ba4\u8bc6
p295
aV\u4e1c\u897f
p296
aV\u6574\u6574
p297
aV\u76ae\u80a4
p298
aV\u81ea\u884c\u8f66
p299
aV\u820d\u53cb
p300
aV\u8ba4\u8bc1
p301
aVRhpjdBi
p302
aVxb
p303
aV\u9a6c\u5e74
p304
aV\u5370\u8c61
p305
aV\u4e00\u6837
p306
aV400
p307
aV\u770b\u7535\u89c6
p308
aV\u4e00\u6839
p309
aV\u540e\u6094
p310
aV\u84b2\u71a0\u661f
p311
aV\u534a\u591c
p312
aV\u5173\u7cfb
p313
aV\u73a9\u6e38\u620f
p314
aV\u4ef7\u503c\u89c2
p315
aV\u4e43\u4eec
p316
aV\u8db3\u7403
p317
aV\u5712\u5340
p318
aV\u6cd5\u5b66
p319
aV\u773c\u6cea
p320
aV\u62ef\u6551
p321
aV\u9c9c\u8089
p322
aV\u6bcf\u6bcf
p323
aV\u51bb\u6210
p324
aV\u5730\u8bf4
p325
aV\u5a92\u4f53
p326
aV\u5f97\u77e5
p327
aVAPP
p328
aV\u5728\u5916
p329
aV\u597d\u5927
p330
aV\u66b4\u8d70
p331
aV\u9762\u8bd5
p332
aV\u534a\u5929
p333
aV\u7a81\u7136
p334
aV\u679c\u65ad
p335
aV\u5634\u5df4
p336
aV\u660e\u4fe1\u7247
p337
aV\u50cf\u662f
p338
aV\u8d76\u4e0d\u4e0a
p339
aV\u4e0d\u9760
p340
aV\u8111\u6d77
p341
aV\u521b\u4e1a
p342
aV\u9ebb\u75f9
p343
aV\u4e0b\u96e8
p344
aV\u91cd\u8981\u6027
p345
aV\u6bcf\u6b21
p346
aV\u9886\u609f
p347
aV\u62c9\u809a\u5b50
p348
aV\u7238\u7238
p349
aV\u5b66\u6e23
p350
aV\u603b\u6709\u4e00\u5929
p351
aV\u4eba\u6d3b
p352
aV\u56e0\u4e3a
p353
aV\u5904\u5973\u5ea7
p354
aV\u53d1\u5305\u4eba
p355
aV\u7ecf\u5386
p356
aV\u6ca1\u4ec0\u4e48
p357
aV\u51b0\u7bb1
p358
aV\u6cd5\u5b98
p359
aV\u9999\u6e2f
p360
aV\u592a\u725b
p361
aV\u80b2\u513f
p362
aV\u8def\u7ebf
p363
aV\u5267\u60c5
p364
aV\u5173\u6ce8
p365
aV\u4fdd\u62a4
p366
aV\u8bc9\u8bbc
p367
aV\u548c\u8c10
p368
aV\u70b9\u8d5e
p369
aV\u53d1\u578b
p370
aV\u505a\u5230
p371
aV\u4e00\u521a
p372
aV\u6f14\u6280
p373
aV\u9556\u5c40
p374
aV\u5f00\u5fc3
p375
aV\u963f\u91cc\u5df4\u5df4
p376
aV1500
p377
aV\u5168\u90fd
p378
aV\u8f9c\u8d1f
p379
aV\u4f34\u5a18
p380
aV\u6210\u90fd
p381
aV\u5b66\u4e60
p382
aV\u5168\u90e8
p383
aV\u505c\u7535
p384
aV\u5468\u56f4
p385
aV\u65b0\u57ce
p386
aV\u793c\u7269
p387
aV\u7684\u786e
p388
aVBTW
p389
aV\u6c34\u997a
p390
aV\u9f99\u4e4b\u68a6
p391
aV\u6765\u770b
p392
aV\u4e2b\u4e2b
p393
aV\u5ef6\u5b89
p394
aV\u7406\u667a
p395
aV\u4e0d\u770b
p396
aV\u4e0b\u96e8\u5929
p397
aV\u8fde\u7eed
p398
aV\u5730\u6b65
p399
aV\u964c\u751f
p400
aV\u4e0a\u5b66
p401
aV\u5bfc\u5e08
p402
aV\u9752\u5e74
p403
aV\u4e0b\u9762
p404
aV\u54ea\u513f
p405
aV\u5fc5\u6709
p406
aV\u8bad\u7ec3
p407
aV\u8138\u7ea2
p408
aV\u6fb3\u7f51
p409
aV\u4e0d\u7ecf\u610f
p410
aV\u653e\u5728
p411
aVRvtNRlR
p412
aV\u9b45\u529b
p413
aV\u53e3\u97f3
p414
aV\u6f15\u6cb3\u6cfe
p415
aV\u6162\u70b9
p416
aV\u9c7c\u6d66
p417
aV\u6258\u798f
p418
aV\u5de7\u514b\u529b
p419
aV\u665a\u4e0a
p420
aV\u53cc\u5341
p421
aV\u5e05\u54e5
p422
aVdoge
p423
aV\u7b2c\u4e8c\u5929
p424
aV\u6765\u56de
p425
aV\u9996\u9875
p426
aV\u6012\u9a82
p427
aV\u8d3a\u5c81\u7247
p428
aV\u6253\u7403
p429
aV\u5e7c\u513f\u56ed
p430
aV\u4e4b\u661f
p431
aV\u7814\u7a76\u751f
p432
aV\u6b21\u5965
p433
aV\u6211\u5bb6
p434
aV\u629b\u5f03
p435
aV\u70e6\u607c
p436
aV\u521d\u8d5b
p437
aV\u5355\u66f2
p438
aV\u4f55\u4ee5
p439
aV\u4e8c\u53f7
p440
aV\u61c2\u5f97
p441
aV\u7275\u624b
p442
aV\u7b54\u8fa9
p443
aV\u5173\u5fc3
p444
aV\u52a0\u6cb9
p445
aVBBS
p446
aV\u4e00\u8138
p447
aV\u767e\u5ea6
p448
aV\u516b\u5366
p449
aV\u6709\u70b9
p450
aV\u8bf8\u4e8b
p451
aV\u8dd1\u9053
p452
aV\u5f71\u57ce
p453
aV\u67e5\u770b
p454
aV\u53d6\u7968
p455
aV\u52aa\u529b
p456
aV\u62cd\u624b
p457
aV\u8513\u831c\u831c
p458
aV\u8003\u573a
p459
aV\u538b\u6291
p460
aV\u793e\u56e2\u6d3b\u52a8
p461
aV\u4ee3\u7801
p462
aV\u4e00\u697c
p463
aV\u54e5\u4eec
p464
aV\u5916\u5a46
p465
aV\u8c08\u604b\u7231
p466
aV\u767e\u5e74
p467
aV\u6d6a\u8d39\u65f6\u95f4
p468
aV\u6362\u4e2a
p469
aV\u4e3a\u8bc1
p470
aVniuniu
p471
aV\u53e3\u5473
p472
aV\u5149\u590d
p473
aV\u8d70\u8fc7
p474
aV\u6d17\u8111
p475
aV\u5357\u7ad9
p476
aV\u9057\u5fd8
p477
aV\u968f\u624b
p478
aV\u5927\u8111
p479
aV\u610f\u8bc6
p480
aV\u4e2d\u8def
p481
aV\u5149\u5934
p482
aV\u5f80\u524d
p483
aV\u6b65\u884c\u8005
p484
aV\u4e0d\u600e\u4e48
p485
aV\u68a6\u89c1
p486
aV\u594b\u6597
p487
aV\u770b\u6cd5
p488
aV\u5ea6\u8fc7
p489
aV\u4eba\u6c14
p490
aV\u7fa1\u6155
p491
aV\u4eba\u6c11
p492
aV\u519b\u8bad
p493
aV\u6d17\u8138
p494
aV\u9519\u89c9
p495
aV\u5f3a\u58ee
p496
aV\u70e4\u8089
p497
aV\u552f\u6709
p498
aV\u8d76\u7d27
p499
aV\u5927\u817f
p500
aV\u4e2b\u5934
p501
aV\u8bc8\u9a97
p502
aV\u5c0f\u62bd
p503
aV\u51e0\u5e74
p504
aV\u4f01\u4e1a
p505
aV\u4e8b\u513f
p506
aV\u88ab\u7a9d
p507
aV\u4ece\u524d
p508
aVQQ
p509
aV\u516c\u4ea4
p510
aV\u591c\u5bb5
p511
aV\u95ea\u7535
p512
aV\u732a\u811a
p513
aV\u9752\u6625
p514
aV\u7adf\u7136
p515
aV\u5de8\u6c57
p516
aV\u4e9a\u9a6c\u900a
p517
aV\u54ea\u91cc
p518
aV\u8c0e\u8a00
p519
aV107
p520
aV\u4f1a\u513f
p521
aV\u4f69\u670d
p522
aV\u8fc7\u751f\u65e5
p523
aV\u6253\u96f7
p524
aV\u5a92\u4ecb
p525
aV\u663e\u793a
p526
aV\u7530\u6797
p527
aV\u5230\u5e95
p528
aV\u59a5\u59a5
p529
aV\u4e00\u4e0b
p530
aV\u5165\u53e3
p531
aV\u4e09\u5e74
p532
aV\u8eab\u4f53
p533
aV\u5468\u672b
p534
aV\u5e7f\u64ad
p535
aV\u5e74\u524d
p536
aV\u5f53\u996d
p537
aV\u673a\u573a
p538
aV\u8bb0\u6027
p539
aV\u8bbe\u8ba1
p540
aV\u5f71\u54cd
p541
aV\u771f\u7684
p542
aV\u6d77\u8fb9
p543
aV\u64cd\u573a
p544
aV\u4e24\u5206\u949f
p545
aV\u970d\u6bd4\u7279
p546
aV\u5211\u6cd5
p547
aV\u725b\u5976
p548
aV\u4e00\u4e2a
p549
aV\u767e\u79d1
p550
aV\u62bd\u70df
p551
aV\u6392\u961f
p552
aV\u5bf9\u5f85
p553
aV\u70b9\u8bc4
p554
aV\u4e00\u4e2d
p555
aV\u5fc3\u5fc3\u5ff5\u5ff5
p556
aV\u516c\u5f00\u8bfe
p557
aV\u5929\u4e0b
p558
aV\u5f00\u5934
p559
aV\u611f\u6fc0
p560
aV\u4e0d\u53ef
p561
aV\u6253\u5305
p562
aVipad
p563
aV\u5f88\u68d2
p564
aV\u6295\u6bd2\u6848
p565
aV\u60c5\u5546
p566
aV\u8679\u6865
p567
aVSeven
p568
aV\u60ca\u9192
p569
aV\u5ba2\u6237
p570
aV\u6df7\u4e71
p571
aV\u4ee5\u81f3\u4e8e
p572
aV\u6253\u5361
p573
aV\u6b32\u671b
p574
aV\u7406\u60f3
p575
aV\u62e5\u6709
p576
aV\u65b0\u5e74
p577
aV\u771f\u76f8
p578
aV\u4e0d\u518d
p579
aV\u62a5\u544a\u5385
p580
aV\u4f5c\u5b7d
p581
aV\u518d\u6709
p582
aV\u653e\u4e0d\u4e0b
p583
aV\u6691\u671f
p584
aV\u5b89\u5229
p585
aV\u8d62\u53d6
p586
aV\u5348\u89c9
p587
aV\u65b0\u8857\u53e3
p588
aV\u7b80\u76f4
p589
aV\u4eca\u513f
p590
aV\u77ed\u6682
p591
aV\u901a\u5bb5
p592
aV\u8111\u6b8b
p593
aV\u5996\u602a
p594
aV\u829d\u58eb
p595
aV\u7edd\u6740
p596
aV\u56fd\u9645\u6cd5
p597
aV\u5341\u4e00
p598
aV\u52c7\u6c14
p599
aV\u8bed\u8a00
p600
aV\u6587\u5316\u8282
p601
aV\u7ec8\u7ed3
p602
aV\u51e0\u5929
p603
aV\u73b0\u5b9e
p604
aVnju
p605
aV\u5b66\u6821
p606
aV\u6cd5\u6cbb
p607
aV\u9636\u6bb5
p608
aV\u5929\u4eae
p609
aV\u62b1\u6b49
p610
aV\u4e00\u4e9b
p611
aVAndroid
p612
aV\u5546\u573a
p613
aV\u4f53\u529b
p614
aV\u72b6\u6001
p615
aV8s6EShF
p616
aV01
p617
aV06
p618
aV\u7b2c\u4e00\u4e2a
p619
aV04
p620
aV\u5374\u662f
p621
aV\u4e0b\u8f88\u5b50
p622
aV\u4e00\u8eab
p623
aV\u5907\u4efd
p624
aV09
p625
aV\u597d\u6851\u5fc3
p626
aV\u675c\u53a6
p627
aVMeMeDahttp
p628
aV\u5fc3\u5e95
p629
aV\u7b54\u6848
p630
aV\u679c\u771f
p631
aV\u7b11\u54c8\u54c8
p632
aV365
p633
aV\u5973\u6027
p634
aV360
p635
aV\u59d0\u59b9
p636
aVRZDcCB7
p637
aV\u63a5\u7740
p638
aV\u5f00\u59cb
p639
aV\u5bb6\u4eba
p640
aV\u60f3\u6cd5
p641
aVboss
p642
aV\u5077\u5077
p643
aV\u5fae\u535a
p644
aV\u4e0d\u7136
p645
aV\u5192\u6ce1
p646
aV\u4e00\u4e2a\u4e2a
p647
aV\u53ea\u662f
p648
aV\u76f8\u7231
p649
aV\u5ea7\u4f4d
p650
aV\u676f\u5b50
p651
aV\u4e00\u4ee3
p652
aV\u4e8b\u60c5
p653
aV\u601d\u60f3
p654
aV\u6821\u53cb
p655
aV\u7c73\u5170
p656
aV\u611a\u8822
p657
aV\u6ca1\u6551
p658
aV\u5341\u4e00\u70b9
p659
aV\u4e00\u4ef6
p660
aV\u5df4\u8428
p661
aV\u65b9\u5411
p662
aV\u8eab\u8fb9
p663
aVcom
p664
aV\u70ed\u6b7b
p665
aV\u4e00\u4efd
p666
aV\u5168\u573a
p667
aV\u662f\u4ece
p668
aV\u623f\u5730\u4ea7
p669
aV\u8fd9\u624d
p670
aV\u8df3\u821e
p671
aV1.5
p672
aV\u5b89\u5353
p673
aV\u4e4b\u95f4
p674
aV\u611f\u5192
p675
aV\u4eba\u8981
p676
aV\u5e74\u534e
p677
aV\u7a97\u5916
p678
aV\u4ee4\u4eba
p679
aV\u82f1\u6587
p680
aV\u4e00\u4f1a
p681
aV\u5bc2\u5bde
p682
aV\u957f\u5b81
p683
aV101
p684
aVchrome
p685
aV\u745c\u4f3d
p686
aV\u53bf\u9053
p687
aV\u98df\u5802
p688
aV\u53d1\u9001
p689
aV\u5b66\u9738
p690
aV\u540e\u679c
p691
aV\u95f9\u949f
p692
aV\u6267\u7740
p693
aV\u7b7e\u8bc1
p694
aV\u9ad8\u67b6
p695
aV\u8c03\u6574
p696
aV\u641e\u5b9a
p697
aV\u573a\u666f
p698
aV\u673a\u5668
p699
aV\u536b\u89c6
p700
aV\u5929\u4f7f
p701
aVTokyo
p702
aV\u7814\u7a76
p703
aV\u8eab\u4e0a
p704
aV\u4e1c\u4e1c
p705
aV\u611f\u52a8
p706
aV\u4e00\u9897
p707
aV\u590d\u65e6\u5927\u5b66
p708
aV\u4e00\u4f4d
p709
aVdota
p710
aV\u5546\u5708
p711
aV\u5267\u672c
p712
aV\u81ea\u4e60
p713
aV\u516b\u70b9
p714
aV\u90a3\u5e74
p715
aV\u524d\u4e24\u5929
p716
aV\u4eba\u8d29
p717
aV\u771f\u7279
p718
aV\u5565\u4e8b
p719
aV\u5317\u8def
p720
aV\u540c\u684c
p721
aV\u60f3\u8d77
p722
aV\u6b4c\u738b
p723
aV\u626f\u6de1
p724
aV110
p725
aV\u5feb\u5feb
p726
aV\u53cd\u6b63
p727
aV\u6253\u724c
p728
aV\u9003\u8131
p729
aV\u62c9\u9762
p730
aV\u5f1f\u5f1f
p731
aV077
p732
aV\u5207\u7cd5
p733
aV\u4ee3\u8868
p734
aV\u4e00\u8f86
p735
aV\u5976\u5976
p736
aV\u7b2c\u4e09\u5b63
p737
aV\u966a\u4f34
p738
aV\u543c\u543c
p739
aV\u4ece\u6765
p740
aVLOL
p741
aV\u848b\u516c
p742
aVcnBeta
p743
aV\u9884\u611f
p744
aV\u6253\u52a8
p745
aV\u4e2d\u6bd2
p746
aV\u5f00\u9898
p747
aV\u8f6c\u64ad
p748
aV\u5b98\u7f51
p749
aV\u7cbd\u5b50
p750
aVPython
p751
aV\u603b\u51a0\u519b
p752
aV\u8fa9\u624b
p753
aVapfchina
p754
aVV3
p755
aV\u671f\u672b
p756
aV\u5feb\u5feb\u4e50\u4e50
p757
aV\u4e0d\u505c
p758
aV\u4e00\u8fb9
p759
aV\u65e9\u70b9
p760
aV\u4ece\u672a
p761
aV\u6ca1\u60f3\u5230
p762
aV\u51ef\u65cb
p763
aV\u5728\u7ebf
p764
aV\u8c22\u8c22
p765
aV\u524d\u9762
p766
aV\u544a\u522b
p767
aV\u641e\u7b11
p768
aV\u51e1\u4e8b
p769
aV\u9519\u8fc7
p770
aVFighting
p771
aV\u81f3\u4eca
p772
aVVS
p773
aV\u547c\u5438
p774
aV\u53d1\u70e7
p775
aV\u998b\u5634
p776
aV\u753b\u9762
p777
aV\u5589\u5499\u75db
p778
aV\u661f\u7a7a
p779
aV\u9ed1\u773c\u5708
p780
aV\u53f8\u8003
p781
aV\u6c34\u5e73
p782
aV\u592a\u5e73\u6d0b
p783
aV\u81ea\u4ece
p784
aV\u653f\u7b56
p785
aV800
p786
aV\u65b0\u5bf6\u57ce
p787
aV\u5fc3\u4e8b
p788
aV\u5b89\u9759
p789
aV\u7075\u611f
p790
aV\u6b63\u786e
p791
aV\u624b\u673a
p792
aV\u6709\u592a\u591a
p793
aV\u5305\u5305
p794
aV\u624b\u672f
p795
aV\u4fdd\u7f57
p796
aV\u5b63\u540e\u8d5b
p797
aV\u72d7\u72d7
p798
aV\u822a\u73ed
p799
aV\u5ffd\u60a0
p800
aV\u7b49\u4e8e
p801
aV\u76f4\u89c6
p802
aV\u7b80\u5386
p803
aV\u513f\u7ae5
p804
aV\u56f4\u89c2
p805
aV\u65b0\u8863
p806
aV\u9644\u8fd1
p807
aV\u7535\u8111
p808
aV\u6843\u5b50
p809
aV\u8bfa\u57fa\u4e9a
p810
aV\u610f\u4e49
p811
aV\u7ed3\u679c
p812
aV\u6f02\u4eae
p813
aV\u5317\u4eac
p814
aV\u7b11\u8bdd
p815
aV\u5929\u6c14
p816
aV\u5988\u54aa
p817
aV\u6109\u5feb
p818
aV\u6750\u6599
p819
aV\u4e0d\u53d1
p820
aV\u75db\u82e6
p821
aV\u6587\u7ae0
p822
aV\u4e0d\u53bb
p823
aV\u4f18\u9177
p824
aV\u5bbe\u9986
p825
aV\u592a\u96be
p826
aV\u5b89\u9038
p827
aV\u7a0d\u5fae
p828
aViOS
p829
aV\u9ad8\u8ddf\u978b
p830
aV\u996d\u5708
p831
aV\u7ec6\u8282
p832
aV\u5750\u7b49
p833
aV\u5b89\u500d
p834
aV\u7f8e\u597d
p835
aV\u675c\u5170\u7279
p836
aV\u540e\u77e5\u540e\u89c9
p837
aV\u7f8e\u5973
p838
aV\u7ec8\u5c06
p839
aVWind
p840
aV\u6df1\u6df1
p841
aV\u7279\u4e48
p842
aV\u50bb\u7b11
p843
aV\u5f00\u5b66
p844
aV58
p845
aV\u7535\u5f71\u9662
p846
aV\u804a\u5230
p847
aV50
p848
aV\u8282\u76ee
p849
aV\u5723\u8bde\u5feb\u4e50
p850
aV\u4e2a\u4eba\u6210\u957f
p851
aV\u5916\u6ee9
p852
aV\u90ae\u4ef6
p853
aV\u59ff\u52bf
p854
aV\u53d1\u73b0
p855
aVwww
p856
aV\u65f6\u4ee3
p857
aV\u641e\u9519
p858
aVHR
p859
aV\u767b\u673a
p860
aV\u6211\u52d2\u4e2a
p861
aV\u9677\u5165
p862
aV\u65b9\u821f\u5b50
p863
aV\u8fd8\u4f1a
p864
aV\u6807\u51c6
p865
aV\u4e0d\u6613
p866
aV\u6709\u6728\u6709
p867
aV\u4f1a\u5458
p868
aV\u4fe1\u53f7
p869
aV\u4f7f\u7528
p870
aV\u7537\u5b69\u513f
p871
aV\u771f\u7406
p872
aVJOJO
p873
aV\u770b\u89c1
p874
aV\u66f4\u597d
p875
aV\u5fc3\u4e2d
p876
aV\u57fa\u53cb
p877
aV\u6ca1\u6709
p878
aV\u6709\u4e9b
p879
aV\u611f\u5230
p880
aV\u7f8e\u5999
p881
aV\u73a9\u800d
p882
aV\u6cd5\u5f8b
p883
aV\u5348\u996d
p884
aV\u4e1c\u8def
p885
aV\u8f66\u4e0a
p886
aV\u5927\u7b11
p887
aV\u5f02\u5e38
p888
aV\u957f\u6c5f\u8def
p889
aV\u6253\u51fb
p890
aV\u5404\u79cd
p891
aV\u7a0b\u5ea6
p892
aV\u5348\u591c
p893
aV\u4e66\u6d77
p894
aV\u563b\u563b
p895
aV\u4e0a\u7f51
p896
aV\u5b8c\u5168
p897
aV\u592a\u9633
p898
aV\u5c31\u8981
p899
aV\u5e2e\u5fd9
p900
aV\u57f9\u517b
p901
aV\u98de\u543b
p902
aV\u53eb\u9192
p903
aV\u5988\u5440
p904
aV\u8700\u9ecd
p905
aV\u660e\u5e74
p906
aV\u5468\u65e5
p907
aV\u6458\u81ea
p908
aV\u652f\u4ed8\u5b9d
p909
aV\u4ff1\u4e50\u90e8
p910
aV\u88c5\u4fee
p911
aV\u7ed3\u675f
p912
aV\u547d\u8fd0
p913
aV\u62a5\u544a
p914
aV\u989c\u503c
p915
aV\u7a0b\u5e8f
p916
aV\u795e\u5668
p917
aV\u5927\u7ed3\u5c40
p918
aV\u51c9\u5feb
p919
aV\u89c2\u4f17
p920
aV\u773c\u795e
p921
aV\u5546\u5b66\u9662
p922
aV\u88e4\u5b50
p923
aV\u5199\u4f5c
p924
aV\u51b3\u8d5b
p925
aV\u5a31\u4e50
p926
aV\u88c5\u903c
p927
aV\u529b\u6c14
p928
aV\u51cf\u80a5
p929
aV\u7ecf\u5178
p930
aV\u8ff7\u832b
p931
aV\u4e00\u9996\u6b4c
p932
aV\u5927\u8f6c\u76d8
p933
aV\u600e\u4e48\u6837
p934
aVgoogle
p935
aV\u6323\u624e
p936
aV\u6b63\u597d
p937
aV\u4e3b\u8bb2\u4eba
p938
aV\u71ac\u591c
p939
aV\u9178\u5976
p940
aV\u65e0\u7ebf
p941
aV\u770b\u4e0d\u61c2
p942
aV\u6ce8\u5b9a
p943
aV\u89e3\u91ca
p944
aV\u4e0a\u7ebf
p945
aV\u5a1c\u59d0
p946
aV\u6c34\u5cb8
p947
aV\u9009\u8bfe
p948
aV\u5976\u8336
p949
aV\u4e0b\u5348
p950
aV\u51ac\u5929
p951
aV\u5b89\u5168
p952
aV\u6211\u5fc3
p953
aV\u6700\u7231
p954
aV\u8611\u83c7
p955
aVNBA
p956
aV\u8868\u6001
p957
aV\u6570\u636e
p958
aVhappy
p959
aV\u89c6\u9891
p960
aV\u56f0\u5f97
p961
aVoffer
p962
aV\u611f\u53d7
p963
aV\u5931\u671b
p964
aV\u6210\u957f
p965
aV\u72ec\u81ea
p966
aV\u4fbf\u662f
p967
aV\u6324\u773c
p968
aV\u6781\u54c1
p969
aV\u60b2\u54c0
p970
aV\u9a97\u5b50
p971
aV\u89e3\u51b3
p972
aV\u65b0\u7248
p973
aV\u656c\u4e1a
p974
aV\u70ed\u706b
p975
aV\u5669\u68a6
p976
aV\u5929\u874e\u5ea7
p977
aV\u8d70\u8d77
p978
aV\u611f\u53f9
p979
aV\u6709\u94b1
p980
aV\u5e78\u798f\u611f
p981
aV\u5426\u5b9a
p982
aV\u662f\u4e0d\u662f
p983
aV\u810a\u67f1
p984
aV\u8b66\u5bdf
p985
aV\u5929\u8d4b
p986
aV\u751f\u5feb
p987
aV\u4e00\u8d77
p988
aV\u6674\u5929
p989
aV\u8ddf\u4e0d\u4e0a
p990
aV\u8111\u888b
p991
aV\u773c\u955c
p992
aV\u6280\u80fd
p993
aV\u6587\u5b57
p994
aV\u4e0a\u5e1d
p995
aV\u6bcf\u4e2a
p996
aV\u5df2\u62d3
p997
aV\u6821\u56ed\u5361
p998
aV\u6740\u624b
p999
aV\u667a\u6167
p1000
aV\u4e0b\u73ed
p1001
aV\u8fd9\u4e48\u665a
p1002
aV\u8111\u8865
p1003
aV\u9ebb\u70e6
p1004
aV\u5b69\u7eb8
p1005
aV\u4ed6\u5988\u7684
p1006
aV\u5730\u4e0a
p1007
aV\u5357\u4eac\u5927\u5c60\u6740
p1008
aV\u65e0\u5e38
p1009
aV\u5e26\u611f
p1010
aV\u7f51\u8d2d
p1011
aV\u4e00\u8d9f
p1012
aV\u5218\u7fd4
p1013
aV\u5c0f\u9f99\u867e
p1014
aV\u6cd5\u9662
p1015
aV\u5f8b\u6240
p1016
aVxkl
p1017
aV\u8868\u767d
p1018
aV\u5fd8\u5e26
p1019
aV\u4e3b\u6301
p1020
aV\u8c03\u67e5
p1021
aV\u513f\u5b50
p1022
aV\u65e0\u6240\u8c13
p1023
aV\u6587\u5b66
p1024
aV\u73a9\u610f
p1025
aV\u5e72\u676f
p1026
aV\u9f3b\u5c4e
p1027
aV\u62a5\u540d
p1028
aV\u5bb3\u7f9e
p1029
aV\u9f13\u52b1
p1030
aV\u65e0\u5904\u4e0d\u5728
p1031
aV\u7761\u8fc7\u53bb
p1032
aV\u80af\u5b9a
p1033
aV\u80d6\u80d6
p1034
aV\u4e0b\u53bb
p1035
aV\u96f7\u9635\u96e8
p1036
aV\u6765\u5230
p1037
aV\u7ecf\u6d4e
p1038
aV\u8054\u901a
p1039
aV\u6848\u4f8b
p1040
aV\u677e\u6c5f
p1041
aV\u4e00\u8def
p1042
aV\u4e09\u5929
p1043
aV\u6027\u611f
p1044
aV\u540e\u9057\u75c7
p1045
aV\u4e92\u8054\u7f51
p1046
aV\u4f53\u91cd
p1047
aV\u7f8e\u98df
p1048
aV\u7537\u751f
p1049
aV\u653e\u8fc7
p1050
aV\u6bd4\u5982
p1051
aV\u8868\u60c5
p1052
aV\u5eb7\u6865
p1053
aV\u58a8\u8ff9
p1054
aV\u61d2\u60f0
p1055
aV\u770b\u6765
p1056
aV\u6cd5\u5b66\u9662
p1057
aV\u6d3b\u751f\u751f
p1058
aV\u8003\u5b8c\u8bd5
p1059
aV\u9001\u7ed9
p1060
aV\u57f9\u8bad
p1061
aV\u5207\u514b
p1062
aV\u6c9f\u901a
p1063
aV\u6e10\u6e10
p1064
aV\u522b\u70e6
p1065
aV\u53f7\u7801
p1066
aV\u73b0\u573a
p1067
aV\u901a\u77e5
p1068
aV\u8868\u6f14
p1069
aV\u5f53\u4e0b
p1070
aV\u901a\u8baf\u5f55
p1071
aV\u59d4\u5c48
p1072
aVEXO
p1073
aV\u9762\u819c
p1074
aV\u5411\u65e5\u8475
p1075
aV\u73b0\u5728
p1076
aV\u6253\u5f00
p1077
aVDay
p1078
aV\u53ef\u7231
p1079
aV\u79bb\u804c
p1080
aV\u52d2\u5e03\u6717
p1081
aV\u670d\u52a1
p1082
aV\u6c14\u6b7b
p1083
aV\u8bb0\u5f55
p1084
aV\u70e6\u6b7b
p1085
aV\u868a\u5b50
p1086
aV\u5fc3\u60c5
p1087
aV\u7535\u5b50
p1088
aV\u897f\u8def
p1089
aV\u9ed8\u9ed8
p1090
aV\u897f\u74dc
p1091
aV\u5ffd\u800c
p1092
aV\u8089\u5305
p1093
aV\u6ca1\u89c1
p1094
aVdin
p1095
aV\u98a0\u8986
p1096
aV\u53bb\u4e16
p1097
aV\u5feb\u6765
p1098
aV\u997a\u5b50
p1099
aV\u5e73\u53f0
p1100
aV\u5bb6\u91cc
p1101
aV\u5f7c\u6b64
p1102
aV\u8fdb\u53bb
p1103
aV\u4f9d\u65e7
p1104
aV\u610f\u5927\u5229
p1105
aV\u957f\u80d6
p1106
aV\u8001\u4eba
p1107
aV\u7f55\u89c1
p1108
aV\u6050\u60e7
p1109
aV\u8f85\u5bfc\u5458
p1110
aV\u8868\u8fbe
p1111
aV\u8bb0\u5f97
p1112
aV\u72d7\u5c41
p1113
aV\u767d\u75f4
p1114
aV\u4e00\u628a
p1115
aVsigh
p1116
aV\u5fc3\u6001
p1117
aV\u4eba\u53bb
p1118
aV\u4f17\u5408
p1119
aV\u4e0a\u8f88\u5b50
p1120
aV\u77e5\u8bc6\u4ea7\u6743
p1121
aV\u5306\u5306
p1122
aV\u8f6c\u53d1
p1123
aV\u64cd\u573a\u4e0a
p1124
aV\u4e00\u8def\u987a\u98ce
p1125
aV\u9707\u60ca
p1126
aV\u897f\u8d21
p1127
aV\u62bd\u5230
p1128
aV\u505c\u8f66
p1129
aV\u7761\u4e00\u89c9
p1130
aV\u68d2\u5b50
p1131
aV\u6d88\u505c
p1132
aV\u8bdd\u8d39
p1133
aV\u597d\u591a\u597d\u591a
p1134
aV\u540d\u5b57
p1135
aV\u5fb7\u6bd4
p1136
aV\u6298\u817e
p1137
aV\u5348\u7761
p1138
aV\u91d1\u878d
p1139
aV\u5589\u5499
p1140
aV\u4eba\u6765
p1141
aV\u6c11\u4e3b
p1142
aV\u53d1\u5446
p1143
aV\u8001\u864e
p1144
aV\u90a3\u53e5
p1145
aV\u540c\u65f6
p1146
aV\u4e0b\u534a\u573a
p1147
aV\u7ed9\u529b
p1148
aV\u6f20\u6657\u6db5
p1149
aV\u8bb0\u5fc6
p1150
aVMr
p1151
aV\u9ad8\u56de\u62a5
p1152
aV\u603b\u662f
p1153
aV\u591a\u5c11
p1154
aV\u4f20\u5947
p1155
aV\u6211\u5011
p1156
aVMD
p1157
aV\u5fc3\u60f3\u4e8b\u6210
p1158
aVMM
p1159
aV\u5f00\u95e8
p1160
aV\u7236\u6bcd
p1161
aV\u6c38\u4e45
p1162
aV\u8fd9\u8fb9
p1163
aV\u8fc7\u6765
p1164
aV\u5e74\u7eaa
p1165
aV\u5783\u573e
p1166
aV\u665a\u62a5
p1167
aV\u5e74\u5ea6
p1168
aV\u8fd9\u4e48
p1169
aV\u9019\u500b
p1170
aV\u5ffd\u7565
p1171
aV\u8bdd\u7b52
p1172
aV\u7537\u7bee
p1173
aV\u9a6c\u6765\u897f\u4e9a
p1174
aV\u6d59\u6c5f
p1175
aV\u672c\u8eab
p1176
aV\u604b\u7231
p1177
aV89
p1178
aV\u8bd5\u7528
p1179
aV\u5c5e\u4e8e
p1180
aV\u7ea2\u7c73
p1181
aV\u5fae\u535a\u53f7
p1182
aV\u516d\u671f
p1183
aV\u500d\u513f
p1184
aV\u5723\u7ea6\u7ff0
p1185
aV\u5357\u4eac\u7ad9
p1186
aV\u7238\u5988
p1187
aV\u521b\u65b0
p1188
aV\u4e00\u5982\u65e2\u5f80
p1189
aV\u6751\u5b98
p1190
aV\u6ef4\u6ef4
p1191
aV\u5f00\u542f
p1192
aV\u4e00\u5927\u5806
p1193
aV\u9ad8\u4e2d\u751f
p1194
aV\u6c5f\u82cf\u7701
p1195
aViphone
p1196
aV\u5b9e\u4e60
p1197
aV\u53f8\u6cd5
p1198
aV\u5e7b\u60f3
p1199
aV\u679c\u7136
p1200
aV\u8fd9\u4e0b
p1201
aV\u6b63\u5728
p1202
aV\u7c89\u4e1d
p1203
aV\u5168\u4e16\u754c
p1204
aV\u590f\u5929
p1205
aV\u82f1\u8bed\u516d\u7ea7
p1206
aV\u9707\u611f
p1207
aV\u963f\u68ee\u7eb3
p1208
aV\u79d1\u5e7b
p1209
aV\u897f\u5b89
p1210
aV\u6bd5\u7adf
p1211
aV\u6d41\u91cf
p1212
aV\u5934\u53d1
p1213
aV\u4e00\u5207\u90fd\u662f
p1214
aV\u56de\u5bb6\u8def\u4e0a
p1215
aV\u51e4\u51f0
p1216
aV\u8fd9\u4e2a
p1217
aV\u8be5\u6b7b
p1218
aV\u533b\u9662
p1219
aV\u4ece\u4eca\u5929\u8d77
p1220
aV\u65b9\u6cd5
p1221
aV\u5706\u6ee1
p1222
aV\u5173\u95e8
p1223
aV\u597d\u4e45\u6ca1
p1224
aV\u5e7c\u7a1a
p1225
aV\u6c38\u8fdc
p1226
aV\u7b2c\u4e8c\u5b63
p1227
aV\u4e8b\u5b9e
p1228
aV\u5c31\u662f
p1229
aV\u6c89\u9ed8
p1230
aV\u90a3\u4e00\u523b
p1231
aV\u5fc3\u810f
p1232
aViPhone6
p1233
aV\u54ea\u5bb6
p1234
aV\u4ece\u6b64
p1235
aV\u7537\u5b69
p1236
aV\u9e2d\u68a8
p1237
aV\u80af\u5fb7\u57fa
p1238
aV\u626c\u5dde
p1239
aV\u5b89\u5fc3
p1240
aV\u6bd4\u4e0d\u4e0a
p1241
aV\u4f11\u606f
p1242
aV\u5df4\u897f
p1243
aV\u6709\u7a7a
p1244
aVIrisLee
p1245
aV\u6821\u5e86
p1246
aV\u638c\u63e1
p1247
aV\u7f8e\u7684
p1248
aV\u4e61\u9053
p1249
aV\u5fc3\u613f
p1250
aV\u5173\u952e
p1251
aV\u8fdb\u6b65
p1252
aV\u5f04\u6b7b
p1253
aV\u559c\u6b22
p1254
aV\u6bcf\u65e5
p1255
aV\u6eda\u86cb
p1256
aV\u8fd9\u4ef6
p1257
aV\u767e\u5bb6\u4e89\u9e23
p1258
aV\u9884\u6d4b
p1259
aV\u534a\u5c0f\u65f6
p1260
aV\u603b\u5f52
p1261
aV\u9ebb\u9ebb
p1262
aV\u56de\u7b54
p1263
aV\u542c\u4e0d\u61c2
p1264
aV\u540e\u4f1a\u65e0\u671f
p1265
aV\u597d\u597d\u5b66\u4e60
p1266
aV\u8fd0\u52bf
p1267
aV\u8d5b\u5b63
p1268
aV\u6559\u9662
p1269
aV\u8fd9\u4e9b
p1270
aV\u7f8e\u56fd
p1271
aV\u592a\u592a
p1272
aV\u4e24\u70b9
p1273
aV\u8fd0\u52a8
p1274
aV\u592a\u5927
p1275
aV\u77e5\u8db3
p1276
aV\u795e\u5947
p1277
aV\u53ef\u53ef
p1278
aV\u505a\u996d
p1279
aV\u73ed\u8f66
p1280
aV\u592a\u591a
p1281
aV\u57ce\u5e02
p1282
aVyimmj
p1283
aV\u65e9\u4e0a\u597d
p1284
aV\u4e2d\u67aa
p1285
aV\u767e\u5408
p1286
aV\u81ea\u62cd
p1287
aV\u4e00\u77ac\u95f4
p1288
aV\u8bc4\u8bba
p1289
aV\u6d4b\u8bd5
p1290
aV\u4e0a\u706b
p1291
aVsb
p1292
aV\u601d\u8def
p1293
aV\u597d\u6837
p1294
aV\u771f\u9898
p1295
aV\u5f97\u610f
p1296
aV\u79ef\u5206
p1297
aV\u5168\u8eab
p1298
aV\u5206\u949f
p1299
aV\u6709\u79cd
p1300
aV\u5ba3\u8bb2\u56e2
p1301
aV\u5408\u9002
p1302
aV\u7ee7\u7eed
p1303
aV\u809a\u5b50
p1304
aV\u5973\u4eba
p1305
aV\u77e5\u4e4e
p1306
aVRP
p1307
aV\u5ba4\u53cb
p1308
aV\u9752\u9752
p1309
aV\u4e0a\u53bb
p1310
aV\u4e0d\u5fcd
p1311
aVNike
p1312
aV\u5c3c\u739b
p1313
aV\u6295\u4e00\u7968
p1314
aV\u4f30\u8ba1
p1315
aVWTF
p1316
aV\u5f00\u573a
p1317
aVmail
p1318
aV\u5c0f\u5b69\u5b50
p1319
aV\u81f3\u5c11
p1320
aV\u5f88\u7d2f
p1321
aV\u65c5\u884c
p1322
aV\u5f00\u7740
p1323
aV\u673a\u7968
p1324
aV\u4e0a\u534a\u573a
p1325
aV\u65e9\u7761\u65e9\u8d77
p1326
aV\u4eac\u4e1c
p1327
aV\u90a3\u4e48
p1328
aV\u5bb6\u5ead
p1329
aV\u5199\u7ed9
p1330
aV\u5934\u50cf
p1331
aV\u89c1\u9762
p1332
aV\u67d0\u5927
p1333
aV\u9006\u5929
p1334
aV\u8fd9\u8f88\u5b50
p1335
aV\u6628\u5929
p1336
aVdown
p1337
aV\u827e\u739b
p1338
aV\u6708\u997c
p1339
aV\u6ee1\u5206
p1340
aV\u5e86\u5e78
p1341
aV\u5408\u540c
p1342
aV\u8f6f\u5de5
p1343
aV\u8fd9\u8d27
p1344
aV\u8fc7\u4e2a
p1345
aV\u4e0a\u73ed
p1346
aV\u9053\u6b49
p1347
aV12306
p1348
aV\u5f53\u521d
p1349
aV25
p1350
aV\u4e00\u6574\u5929
p1351
aV\u65e9\u9910
p1352
aV824
p1353
aV\u5e73\u51e1
p1354
aV\u6559\u80b2
p1355
aV\u9b54\u9b3c
p1356
aV\u602a\u517d
p1357
aV\u7537\u670b\u53cb
p1358
aV\u68a6\u60f3
p1359
aV\u5f81\u96c6
p1360
aV\u6211\u7279
p1361
aV\u8ffd\u5c3e
p1362
aV\u6700\u7f8e
p1363
aV\u81ea\u5351
p1364
aV\u8116\u5b50
p1365
aV\u4efb\u52a1
p1366
aV\u70b9\u4e2a
p1367
aV\u4fe1\u5ff5
p1368
aV\u8349\u6ce5\u9a6c
p1369
aV\u5916\u5356
p1370
aV\u6d6a\u6f2b
p1371
aV\u5c0f\u8bf4
p1372
aV\u52a8\u8f66
p1373
aV\u4e24\u5e74
p1374
aV\u8fdb\u884c
p1375
aV\u5973\u4e3b
p1376
aV\u9084\u662f
p1377
aV\u5927\u534a\u591c
p1378
aV\u91cd\u5e86
p1379
aV\u518d\u89c1
p1380
aV\u9ed1\u6697
p1381
aV\u5929\u6d25
p1382
aV\u9732\u8fbe
p1383
aV\u9ad8\u6821
p1384
aV\u7edd\u5bf9
p1385
aV\u5b9e\u8df5
p1386
aV\u6625\u8282
p1387
aV\u806a\u660e
p1388
aV\u8ba1\u5212
p1389
aV\u54c8\u767b
p1390
aV\u98df\u7269
p1391
aV\u591a\u5e74
p1392
aV\u6362\u6765
p1393
aV\u54e5\u54e5
p1394
aV\u7f16\u7a0b
p1395
aVorz
p1396
aV\u53a8\u623f
p1397
aV\u559d\u9152
p1398
aV\u513f\u7ae5\u8282
p1399
aV\u77e5\u4ea7
p1400
aV\u8bdd\u9898
p1401
aV\u552f\u4e00
p1402
aV\u52a8\u6f2b
p1403
aV\u4e0a\u5348
p1404
aV\u8fc7\u654f
p1405
aV\u4e0d\u592a\u597d
p1406
aV\u6e56\u4eba
p1407
aV\u8f6c\u773c
p1408
aV\u4e00\u5207\u987a\u5229
p1409
aV\u5217\u8f66
p1410
aV\u72fc\u56fe\u817e
p1411
aV\u672b\u65e5
p1412
aV\u521b\u9020
p1413
aV\u597d\u68d2
p1414
aV\u624d\u884c
p1415
aV\u6211\u521a
p1416
aV\u62c9\u62c9
p1417
aV\u5458\u5de5
p1418
aV\u5355\u4f4d
p1419
aV\u5143\u5316\u8def
p1420
aV\u4e94\u89d2\u573a
p1421
aV\u795e\u9a6c
p1422
aV\u5377\u5b50
p1423
aV\u6253\u7535\u8bdd
p1424
aV\u75b2\u60eb
p1425
aV1001
p1426
aV1000
p1427
aVxi
p1428
aV\u8054\u7cfb
p1429
aV\u7b49\u5f85
p1430
aV\u51bb\u6b7b
p1431
aV\u65e0\u52a9
p1432
aVxx
p1433
aV\u9700\u8981
p1434
aV\u8f9e\u804c
p1435
aV\u6b64\u523b
p1436
aV\u5355\u8eab
p1437
aV\u88d9\u5b50
p1438
aV\u6211\u53d1
p1439
aV\u590d\u8bd5
p1440
aV\u9009\u4fee\u8bfe
p1441
aV\u4e4b\u4e00
p1442
aV\u6cd5\u5219
p1443
aV23
p1444
aV\u8001\u5a46
p1445
aV\u60a3\u8005
p1446
aV\u5c0f\u59d1\u5a18
p1447
aV\u5ba3\u8bb2\u4f1a
p1448
aV\u53d1\u5e03
p1449
aV\u4e16\u95f4
p1450
aV\u5927\u6982
p1451
aV\u65e0\u529b
p1452
aV\u5145\u7535
p1453
aV\u653e\u5f03
p1454
aV\u54b1\u4eec
p1455
aV\u6d4e\u5357
p1456
aV\u8ba8\u8bba
p1457
aV\u4e25\u91cd
p1458
aV\u4e0b\u5355
p1459
aV\u788e\u89c9
p1460
aV\u5356\u840c
p1461
aV\u62a2\u7ea2\u5305
p1462
aV\u5feb\u6a02
p1463
aV\u884c\u52a8
p1464
aV\u672c\u79d1
p1465
aV\u7f8e\u5473
p1466
aV\u7533\u82b1
p1467
aV11
p1468
aV10
p1469
aV13
p1470
aV12
p1471
aV15
p1472
aV14
p1473
aV17
p1474
aV16
p1475
aV19
p1476
aV18
p1477
aV\u6d74\u5ba4
p1478
aV\u9648\u5bb6
p1479
aV\u5065\u8eab\u623f
p1480
aV\u76f4\u64ad
p1481
aV\u4eba\u6c11\u6cd5\u9662
p1482
aV\u603b\u4f1a
p1483
aV\u7889\u5821
p1484
aV\u5c0f\u670b\u53cb
p1485
aV\u82f1\u8bed
p1486
aV\u5408\u7167
p1487
aV\u8dea\u6c42
p1488
aV\u5207\u5c14\u897f
p1489
aV\u827e\u7279
p1490
aV\u53e3\u7f69
p1491
aVDJ
p1492
aV\u7eaa\u5ff5\u65e5
p1493
aV\u62db\u8058
p1494
aV\u4e16\u754c
p1495
aV\u7537\u7968
p1496
aV\u90a3\u70b9
p1497
aV\u7537\u5973
p1498
aV\u5012\u65f6\u5dee
p1499
aV\u79fb\u52a8
p1500
aV\u6cd5\u52a1
p1501
aV\u4e0d\u5e78
p1502
aV\u5361\u897f
p1503
aV\u5b66\u672f
p1504
aV\u7126\u8651
p1505
aV\u53ef\u597d
p1506
aV\u58f0\u97f3
p1507
aV\u5b66\u671f
p1508
aV\u9178\u75db
p1509
aV\u60b2\u5267
p1510
aV\u7537\u795e
p1511
aV\u9738\u6c14
p1512
aV200
p1513
aV\u4e2d\u6587
p1514
aV\u4e0d\u5e26
p1515
aV\u5fc3\u597d
p1516
aV\u6c99\u7530\u533a
p1517
aV\u6700\u7ec8
p1518
aV\u5927\u697c
p1519
aV\u4e2a\u8d5e
p1520
aV\u62dc\u6258
p1521
aV\u7528\u6237
p1522
aV\u56fe\u4e66\u9986
p1523
aV\u4f9d\u7136
p1524
aV\u521a\u521a
p1525
aV\u4f5c\u54c1
p1526
aV\u95fb\u5230
p1527
aV\u7761\u4e0d\u9192
p1528
aV\u671d\u9c9c
p1529
aV\u5973\u53cb
p1530
aV\u613f\u671b
p1531
aV\u897f\u6e56
p1532
aV\u7ec3\u4e60
p1533
aV\u6bcf\u4efd
p1534
aV\u8fdf\u5230
p1535
aV\u9664\u4e86
p1536
aV\u52a9\u624b
p1537
aV\u4e7e\u5e0c
p1538
aV\u9634\u9669
p1539
aV\u521a\u5230
p1540
aV\u539f\u56e0
p1541
aV\u4e0d\u77e5
p1542
aV\u540e\u6eaa
p1543
aV\u76d1\u8003
p1544
aVQAQ
p1545
aV\u56fd\u8db3
p1546
aV\u5fc3\u7406\u5b66
p1547
aV\u6d66\u4e1c
p1548
aV\u62dc\u4ec1
p1549
aV\u5927\u4eba
p1550
aV\u7acb\u6848
p1551
aV\u624b\u8d31
p1552
aV\u7403\u5458
p1553
aV\u65e9\u996d
p1554
aV\u5165\u7720
p1555
aV\u672c\u5ea7
p1556
aV\u78b0\u5230
p1557
aV\u6d3b\u52a8
p1558
aV\u6700\u5927
p1559
aV\u6807\u7b7e
p1560
aV\u653f\u6cd5
p1561
aV\u5730\u65b9
p1562
aV\u813e\u6c14
p1563
aV\u59e8\u5988
p1564
aV\u77f3\u5934
p1565
aV\u654f\u611f
p1566
aV\u6b64\u751f
p1567
aV\u8bb2\u5ea7
p1568
aV\u65c5\u6e38
p1569
aV\u91cd\u611f\u5192
p1570
aV\u5927\u4e8c
p1571
aV\u5927\u4e8b
p1572
aV\u53ea\u597d
p1573
aV\u6ee1\u5929\u661f
p1574
aV\u653f\u6cbb
p1575
aV\u7a7a\u865a
p1576
aV\u7b11\u50b2\u6c5f\u6e56
p1577
aVget
p1578
aV\u822a\u7ad9\u697c
p1579
aV\u5f3a\u8feb\u75c7
p1580
aV\u8f6c\u5708
p1581
aV\u8054\u7cfb\u65b9\u5f0f
p1582
aV\u534e\u4e3a
p1583
aV\u597d\u4e66
p1584
aV\u534e\u4e3d
p1585
aV\u7ecf\u6d4e\u6cd5\u5b66
p1586
aV\u79d1\u5b66
p1587
aV\u4e00\u665a
p1588
aV\u53d1\u7968
p1589
aV\u8003\u7814
p1590
aV\u4e13\u4e1a
p1591
aV\u8fd0\u6c14
p1592
aV\u7eb8\u724c
p1593
aV\u4e0d\u5982
p1594
aV\u8fd9\u6b21
p1595
aV\u5f88\u60f3
p1596
aV\u5b89\u7a33
p1597
aV\u6279\u8bc4
p1598
aV\u53ea\u8981
p1599
aV\u597d\u4e45
p1600
aV\u627f\u53d7
p1601
aV\u534e\u653f
p1602
aV\u6728\u6709
p1603
aV\u8303\u513f
p1604
aV\u5927\u4e09
p1605
aV\u6bd4\u5206
p1606
aV\u5fae\u535a\u4e0a
p1607
aV\u5c4f\u5e55
p1608
aV\u76f4\u63a5
p1609
aV\u6700\u597d
p1610
aV\u7535\u8bdd
p1611
aV\u6b27\u8036
p1612
aV\u65e0\u9521
p1613
aV\u5706\u6ee1\u7ed3\u675f
p1614
aV##
p1615
aV\u53ef\u4e0d\u53ef\u4ee5
p1616
aV\u5367\u69fd
p1617
aV\u7efd\u653e
p1618
aV\u8d77\u6765
p1619
aV\u597d\u4eba
p1620
aV\u65e0\u8bba
p1621
aV\u6700\u8fd1
p1622
aV\u4e0d\u597d
p1623
aV\u5fae\u7b11
p1624
aV\u5357\u4eac\u4e1c\u8def
p1625
aV\u516c\u4ea4\u8f66
p1626
aVweibo
p1627
aV\u7f51\u6613
p1628
aV\u9ad8\u6e29
p1629
aV\u597d\u5f00\u5fc3
p1630
aV\u9ad8\u4e2d
p1631
aV\u670b\u53cb
p1632
aV\u771f\u4e0d\u9519
p1633
aV\u6253\u7b97
p1634
aV\u6d17\u4e2a
p1635
aV\u5357\u95e8
p1636
aV\u4fe1\u79d1
p1637
aV\u4e5d\u4e61
p1638
aV\u8fdb\u4e66
p1639
aV\u4f53\u9a8c
p1640
aV\u8d8a\u6765\u8d8a
p1641
aV\u8bc4\u4ef7
p1642
aV\u5965\u7279\u66fc
p1643
aV\u597d\u4e8b
p1644
aV\u4e2d\u5927\u5956
p1645
aV\u52a8\u4f5c
p1646
aV\u5e73\u9759
p1647
aV\u5934\u6655
p1648
aV\u5012\u6570
p1649
aV\u5148\u751f
p1650
aV\u9879\u76ee
p1651
aV\u5bf9\u9762
p1652
aV\u98de\u673a
p1653
aV\u9a91\u58eb
p1654
aV\u4e0d\u592a
p1655
aV\u529e\u4e8b
p1656
aV\u800c\u5df2
p1657
aV\u7968\u9009
p1658
aV\u6b23\u6170
p1659
aV\u5408\u96c6
p1660
aV\u4e09\u5206
p1661
aV\u8282\u65e5
p1662
aV\u751f\u547d
p1663
aV\u4ece\u4e0d
p1664
aV\u6210\u719f
p1665
aV\u5b63\u8282
p1666
aV\u9707\u64bc
p1667
aV\u6df7\u86cb
p1668
aV\u592a\u5c11
p1669
aV\u7814\u7a76\u751f\u90e8
p1670
aV\u62a5\u8868
p1671
aV\u8111\u7ec6\u80de
p1672
aV\u54ea\u6015
p1673
aV\u4e0d\u591f
p1674
aV\u4e0d\u591a
p1675
aVECUPL
p1676
aV\u5e26\u8d70
p1677
aV\u6545\u4e8b
p1678
aV150
p1679
aV\u6c5f\u5357
p1680
aV\u7761\u4e0d\u7740
p1681
aV\u6295\u8d44
p1682
aV60
p1683
aV\u592a\u5dee
p1684
aV\u6982\u7387
p1685
aV\u82f1\u8d85
p1686
aV\u6a21\u5f0f
p1687
aV\u6709\u6728
p1688
aV\u6c14\u6e29
p1689
aV\u5f00\u901a
p1690
aV\u641e\u4e0d\u61c2
p1691
aV\u51e0\u70b9
p1692
aV\u4e00\u671f
p1693
aV\u6ee1\u8111\u5b50
p1694
aV\u8d77\u4e0d\u6765
p1695
aV\u6210\u7ee9
p1696
aV\u7238\u7238\u5988\u5988
p1697
aV\u627f\u8ba4
p1698
aV\u957f\u6c99
p1699
aV\u91cd\u590d
p1700
aV\u59d1\u5a18
p1701
aV\u81ea\u52a8
p1702
aV\u660e\u5a9a
p1703
aV\u4e00\u672c
p1704
aVmark
p1705
aV\u5de5\u4f5c
p1706
aV\u5468\u4e09
p1707
aV\u6ce8\u518c
p1708
aV\u624b\u6c14
p1709
aV\u6c11\u8bc9
p1710
aV\u5468\u4e00
p1711
aV\u5bb6\u957f
p1712
aV500
p1713
aV\u56fe\u7247
p1714
aV\u672c\u4e66
p1715
aV\u80d6\u5b50
p1716
aV\u659c\u773c
p1717
aV\u9ad8\u4e2d\u540c\u5b66
p1718
aV\u5e86\u795d
p1719
aV\u7f8e\u5267
p1720
aV\u7b14\u8bb0
p1721
aV\u80a9\u8180
p1722
aV\u751f\u75c5
p1723
aV\u771f\u5fc3
p1724
aV\u4e22\u4eba
p1725
aV\u624b\u673a\u53f7
p1726
aV\u62b1\u62b1
p1727
aV\u949f\u6c49\u826f
p1728
aV\u4e00\u6761
p1729
aV\u5185\u4f24
p1730
aV\u86cb\u86cb
p1731
aV\u5927\u8fde
p1732
aV\u5927\u5b78\u57ce
p1733
aV\u81ea\u8650
p1734
aV\u4e00\u676f
p1735
aV\u770b\u6210
p1736
aV\u5931\u8d25
p1737
aV\u804a\u5929
p1738
aV\u66f4\u52a0
p1739
aV\u62b5\u5236
p1740
aV\u4eca\u665a
p1741
aV\u8bf7\u5047
p1742
aV\u903c\u683c
p1743
aV\u53d8\u6001
p1744
aV\u5e74\u8f7b\u4eba
p1745
aV\u97ec\u594b
p1746
aV\u6708\u5e95
p1747
aV\u5f69\u7968
p1748
aV\u4e2d\u56fd\u79fb\u52a8
p1749
aV\u4f60\u5bb6
p1750
aV\u5e26\u6765
p1751
aV\u4e00\u679a
p1752
aV\u6076\u610f
p1753
aV\u521b\u610f
p1754
aV\u65b9\u4fbf\u9762
p1755
aV\u8f6c\u76d8
p1756
aV\u4e0d\u987a
p1757
aV\u5927\u4f17
p1758
aV\u66fc\u8054
p1759
aV\u62bd\u5956
p1760
aV\u68c0\u67e5
p1761
aV\u5b59\u6960
p1762
aVXXX
p1763
aV\u5927\u4f1a
p1764
aV\u5468\u4e94
p1765
aV\u5927\u5927\u7684
p1766
aV\u8bb8\u591a
p1767
aV\u5395\u6240
p1768
aV\u5468\u4e8c
p1769
aV\u9002\u5408
p1770
aV\u6b3a\u9a97
p1771
aV\u7d20\u8d28
p1772
aV\u597d\u96be
p1773
aV\u714e\u71ac
p1774
aV\u6821\u53cb\u4f1a
p1775
aV\u50bb\u50bb
p1776
aV\u8bf7\u95ee
p1777
aV\u592a\u597d\u4e86
p1778
aV\u8d8a\u53d1
p1779
aV\u8d22\u795e
p1780
aV\u5bc6\u7801
p1781
aV\u592a\u7d2f
p1782
aV\u8398\u5e84
p1783
aV\u591a\u591a
p1784
aV\u5404\u4f4d\u670b\u53cb
p1785
aVSevenApphttp
p1786
aV\u6211\u7528
p1787
aV\u65e0\u8bed
p1788
aV\u4eba\u8270
p1789
aV\u5bb9\u6613
p1790
aV\u4ed9\u6797
p1791
aV\u4eba\u624d
p1792
aV\u623f\u4e1c
p1793
aV\u5373\u4f7f
p1794
aV\u597d\u8fd0
p1795
aV\u6211\u9519
p1796
aV\u6fc0\u52a8
p1797
aV\u5220\u6389
p1798
aV\u8270\u96be
p1799
aV\u81ea\u4e60\u5ba4
p1800
aV\u5e72\u6d3b
p1801
aV\u613f\u610f
p1802
aV\u9280\u6fb3\u8def
p1803
aV\u4e71\u4e03\u516b\u7cdf
p1804
aV\u4e86\u89e3
p1805
aV\u52c7\u6562
p1806
aV\u534a\u5e74
p1807
aV\u5357\u4eac\u5e02
p1808
aV\u6c42\u95ee
p1809
aV\u5c71\u8def
p1810
aV\u98ce\u96e8
p1811
aV\u6c6a\u4e1c\u57ce
p1812
aV\u4e94\u70b9
p1813
aV\u5c71\u4e1c
p1814
aV\u603b\u80fd
p1815
aV\u592a\u5751
p1816
aV\u5fc3\u8840\u6765\u6f6e
p1817
aV\u624d\u80fd
p1818
aV\u770b\u4e0d\u4e0b\u53bb
p1819
aV\u51fa\u53bb\u73a9
p1820
aV\u6b4c\u58f0
p1821
aV\u76f8\u58f0
p1822
aV\u60ca\u8273
p1823
aV\u6628\u665a
p1824
aV\u6291\u90c1
p1825
aV\u4e24\u5468
p1826
aV\u7206\u70b8
p1827
aV\u7136\u540e
p1828
aV\u597d\u60f3\u4f60
p1829
aV\u9009\u62e9
p1830
aV\u623f\u4ef7
p1831
aV\u73ab\u7470
p1832
aV\u4eca\u65e9
p1833
aV\u53cd\u601d
p1834
aV\u4eca\u65e5
p1835
aV\u9a84\u50b2
p1836
aV\u653e\u7a7a
p1837
aV\u9ed1\u8272
p1838
aV\u4e0d\u7ba1
p1839
aV\u597d\u610f\u601d
p1840
aV\u65e0\u77e5
p1841
aVR7FzA9e
p1842
aV\u7b49\u4f60\u62ff
p1843
aV\u9a6c\u514b
p1844
aV\u968f\u4fbf
p1845
aV\u6210\u529f
p1846
aV\u54cd\u8d77
p1847
aV\u6c7d\u8f66
p1848
aV\u7403\u961f
p1849
aV\u7855\u58eb
p1850
aV\u5957\u9910
p1851
aVmoc
p1852
aVamp
p1853
aV\u5468\u6d66
p1854
aV\u6548\u7387
p1855
aV\u521d\u604b
p1856
aV\u4e09\u70b9
p1857
aV\u5564\u9152
p1858
aV\u62db\u65b0
p1859
aV\u53cb\u60c5
p1860
aV\u95f9\u5fc3
p1861
aV\u56f0\u96be
p1862
aV\u5355\u8bcd
p1863
aV\u542c\u8bf4
p1864
aV\u6050\u6016\u7247
p1865
aV\u6625\u665a
p1866
aV\u4f55\u5fc5
p1867
aV\u5931\u8e2a
p1868
aV\u9a6c\u523a
p1869
aV\u68a6\u840d
p1870
aV\u8fc7\u8282
p1871
aV\u8fd8\u6709
p1872
aV\u4e5d\u70b9
p1873
aV\u7f9e\u55d2
p1874
aV\u529e\u6cd5
p1875
aV\u89c9\u5f97
p1876
aV\u4e89\u53d6
p1877
aV\u6e29\u99a8
p1878
aV\u9009\u624b
p1879
aV\u4e13\u6ce8
p1880
aV\u5750\u8f66
p1881
aV\u4f20\u8bf4
p1882
aV\u6e05\u695a
p1883
aV\u53f7\u7ebf
p1884
aV\u7535\u89c6
p1885
aV\u5916\u9762
p1886
aV\u5e7f\u4e1c
p1887
aV\u54c8\u54c8\u54c8\u54c8
p1888
aV\u6e38\u620f
p1889
aV\u54b3\u55fd
p1890
aV\u4e00\u65e0\u6240\u6709
p1891
aV\u83ab\u975e
p1892
aV\u95ed\u5634
p1893
aV\u8336\u53f6\u86cb
p1894
aV\u756a\u8304
p1895
aV\u90a3\u53e5\u8bdd
p1896
aV\u5143\u65e6
p1897
aV\u5fc3\u7075\u9e21\u6c64
p1898
aV\u610f\u5916
p1899
aV\u73a9\u610f\u513f
p1900
aV\u73b0\u91d1
p1901
aV\u901b\u8857
p1902
aV\u521a\u770b
p1903
aV\u56f4\u8116
p1904
aV\u542c\u6b4c
p1905
aV\u5b9d\u8d1d\u513f
p1906
aV\u952e\u76d8
p1907
aV\u5f00\u53d1
p1908
aV\u660e\u767d
p1909
aV\u82b1\u56ed
p1910
aV\u5929\u671d
p1911
aV\u793e\u56e2
p1912
aV\u987a\u4e30
p1913
aV\u611a\u4eba\u8282
p1914
aV\u55f7\u55f7
p1915
aV\u5386\u53f2
p1916
aVok
p1917
aV\u6d17\u6fa1
p1918
aV\u6797\u8def
p1919
aV\u5426\u5219
p1920
aV\u672c\u8d28
p1921
aV\u4e1c\u65b9
p1922
aV\u65e9\u5b89
p1923
aV\u534e\u653f\u7814
p1924
aV\u540c\u4e8b
p1925
aV\u676f\u5177
p1926
aV\u4e0d\u7231
p1927
aV\u5174\u8da3
p1928
aV\u4e0a\u9762
p1929
aV\u4e0d\u5230
p1930
aV\u5413\u6b7b
p1931
aV\u5f69\u8679
p1932
aV\u6b4c\u8bcd
p1933
aV\u539f\u5219
p1934
aV\u8e81\u72c2\u75c7
p1935
aV\u8ba2\u7968
p1936
aV\u5927\u672c\u8425
p1937
aV\u96c5\u601d
p1938
aV\u4e0d\u723d
p1939
aV\u5b57\u5e55
p1940
aV\u4e09\u53f7
p1941
aV\u592a\u5feb
p1942
aV\u7a7a\u95f4
p1943
aV\u6ca1\u4eba
p1944
aV\u5531\u6b4c
p1945
aV\u627e\u5230
p1946
aV\u51fa\u884c
p1947
aV\u5934\u75bc
p1948
aV\u624b\u4e00
p1949
aV\u5b89\u597d
p1950
aV\u96ea\u4eba
p1951
aV\u4eb2\u4eb2
p1952
aV\u7ea0\u7ed3
p1953
aV\u5de5\u8d44
p1954
aV\u6ca1\u4e8b
p1955
aV\u4f24\u5bb3
p1956
aVlow
p1957
aV\u5706\u68a6
p1958
aV\u9ad8\u8003
p1959
aV\u4eba\u6c11\u5e7f\u573a
p1960
aV\u5ad6\u5a3c
p1961
aV\u4e8c\u7248
p1962
aV\u6bb5\u6ce2
p1963
aV\u70ed\u60c5
p1964
aV\u6bd5\u798f\u5251
p1965
aV\u5934\u75db
p1966
aV\u5fae\u98ce
p1967
aV\u597d\u70b9
p1968
aVidea
p1969
aV\u6bb5\u5b50
p1970
aV\u9192\u6765
p1971
aV\u987a\u4fbf
p1972
aV\u5947\u5999
p1973
aV\u597d\u597d\u770b
p1974
aV\u5927\u8def
p1975
aV\u7231\u4e0a
p1976
aV\u518d\u4e5f
p1977
aV\u4f60\u597d
p1978
aV\u5475\u5475
p1979
aV\u732b\u54aa
p1980
aV\u96f6\u4e0b
p1981
aV\u7b56\u5212
p1982
aV\u4e0d\u820d
p1983
aV\u5f20\u56fd\u8363
p1984
aV\u4eb2\u4eec
p1985
aV\u8fd9\u6837
p1986
aV\u4e00\u7897
p1987
aV\u5c11\u5973
p1988
aV\u5357\u4eac
p1989
aV600
p1990
aV\u6c5f\u5357style
p1991
aV\u5883\u754c
p1992
aV\u62a5\u9500
p1993
aV\u6027\u683c
p1994
aV\u51b0\u6dc7\u6dcb
p1995
aV\u8fd9\u4e48\u4e45
p1996
aV\u6d17\u6d17
p1997
aV\u597d\u4e0d\u5bb9\u6613
p1998
aV\u5609\u5b9a
p1999
aV\u88ab\u76d7
p2000
aV\u5dee\u8ddd
p2001
aV\u805a\u4f1a
p2002
aV\u4e0d\u7ba1\u600e\u6837
p2003
aV\u53d8\u6210
p2004
aV\u4f60\u59b9
p2005
aV\u5267\u573a\u7248
p2006
aV\u56e2\u59d4
p2007
aV\u7b19\u7bab
p2008
aV\u8bf4\u597d
p2009
aV\u8179\u808c
p2010
aV\u5fc3\u614c
p2011
aV\u901d\u53bb
p2012
aV\u6062\u590d
p2013
aV\u5357\u56ed
p2014
aV\u77e5\u8bc6
p2015
aV\u69b4\u83b2
p2016
aV2000
p2017
aV1111
p2018
aV\u7ecf\u6d4e\u6cd5
p2019
aV\u94a5\u5319
p2020
aV\u5077\u7b11
p2021
aV\u4e00\u65e5
p2022
aV\u95ed\u773c
p2023
aV\u62bd\u7b4b
p2024
aV\u6cd5\u56fd
p2025
aV\u6587\u5316
p2026
aV\u6ca1\u610f\u601d
p2027
aV\u5fd9\u788c
p2028
aV\u5343\u91cc
p2029
aV\u7237\u7237
p2030
aV\u7cbe\u5f69
p2031
aV\u5c0f\u4eba
p2032
aV\u4e2d\u5173\u6751
p2033
aV\u8865\u8d34
p2034
aV\u9e22\u5c3e
p2035
aV\u4e38\u5b50
p2036
aV\u4f34\u7740
p2037
aV\u5fc3\u75db
p2038
aV\u5c0f\u4e8b
p2039
aV\u65b9\u5f0f
p2040
aV\u60c5\u7eea
p2041
aV\u9047\u89c1
p2042
aV\u4eba\u6c11\u65e5\u62a5
p2043
aVwifi
p2044
aV\u5927\u8d5b
p2045
aV\u4e1a\u52a1
p2046
aV\u76f8\u5904
p2047
aV\u65e0\u9650
p2048
aV\u5730\u94c1
p2049
aV\u8f6c\u94b1
p2050
aV\u62b1\u6028
p2051
aV\u6dd8\u6c70
p2052
aV\u804c\u4e1a
p2053
aVfighting
p2054
aV\u8fc7\u5f97
p2055
aV\u5fc3\u788e
p2056
aVali
p2057
aV\u597d\u723d
p2058
aV\u5f80\u4e8b
p2059
aV\u7cdf\u7cd5
p2060
aV\u901a\u8fc7
p2061
aV\u5343\u4e07
p2062
aV\u4e00\u5200
p2063
aV\u51cc\u6668
p2064
aV\u60c5\u611f
p2065
aV.....
p2066
aV\u6b4c\u66f2
p2067
aV\u798f\u5efa
p2068
aV\u8fc7\u5f80
p2069
aV\u51fa\u8f68
p2070
aV\u603b\u7ed3
p2071
aV\u6ee1\u8840
p2072
aV\u6b63\u4e49
p2073
aV\u7ecf\u9a8c
p2074
aV\u7cfb\u5217
p2075
aV\u65c5\u7a0b
p2076
aV\u6728\u5b50
p2077
aV\u9996\u90fd\u673a\u573a
p2078
aVvs
p2079
aV\u4f24\u611f
p2080
aV\u56fd\u5185
p2081
aV\u4f3c\u7684
p2082
aVtm
p2083
aV\u5609\u56ed
p2084
aV\u94ed\u8bb0
p2085
aV\u6d53\u6d53\u7684
p2086
aV\u5929\u6c14\u9884\u62a5
p2087
aV\u5206\u4eab
p2088
aVpresentation
p2089
aV\u9006\u88ad
p2090
aV\u5168\u660e\u661f
p2091
aVta
p2092
aV\u5f31\u5f31
p2093
aV\u62cd\u7167
p2094
aV\u5929\u7a7a
p2095
aV\u4fee\u597d
p2096
aV\u4e0d\u65ad
p2097
aV\u62a2\u7968
p2098
aV\u8282\u594f
p2099
aV\u4f59\u989d
p2100
aV\u51fa\u573a
p2101
aV\u795d\u798f
p2102
aV\u5e78\u8fd0
p2103
aV\u570b\u7acb
p2104
aV\u56fd\u91d1
p2105
aV\u597d\u5fc3\u4eba
p2106
aV\u7f51\u7ad9
p2107
aV\u4e3b\u9898
p2108
aV\u4eba\u5fc3
p2109
aV\u5b9e\u5728
p2110
aV\u9e21\u86cb
p2111
aV\u8fd9\u573a
p2112
aV\u5bf9\u8bdd
p2113
aV\u5962\u4f88
p2114
aV\u52c7\u58eb
p2115
aV\u4e00\u5768
p2116
aV\u5927\u7237
p2117
aV\u6c49\u53e3\u8def
p2118
aV\u6bcf\u5929
p2119
aV\u4e0d\u6562
p2120
aV\u5751\u7239
p2121
aV\u5f88\u5c11
p2122
aV\u964d\u6e29
p2123
aV\u65e9\u65e9
p2124
aV\u964d\u4e34
p2125
aV\u4e94\u4e2a
p2126
aV\u4e8c\u5341\u5e74
p2127
aV\u9759\u591c
p2128
aV\u5317\u95e8
p2129
aV\u529b\u5b8f
p2130
aV\u90a3\u6bb5
p2131
aV\u83ab\u8fc7\u4e8e
p2132
aV\u6562\u4e0d\u6562
p2133
aV\u516d\u7ea7
p2134
aV\u770b\u8d77\u6765
p2135
aV\u6709\u611f
p2136
aV\u4f55\u4ee5\u582a
p2137
aV\u4e0b\u4e2a\u6708
p2138
aV\u97e9\u5bd2
p2139
aV\u592a\u7ed9\u529b
p2140
aV\u53cd\u5e94
p2141
aV\u6700\u65b0
p2142
aV\u7406\u89e3
p2143
aV\u5143\u5bb5\u8282
p2144
aV\u724c\u5b50
p2145
aV\u6837\u5b50
p2146
aV\u65c1\u8fb9
p2147
aV\u6ca1\u6cd5
p2148
aV\u5d29\u6e83
p2149
aV\u5510\u840c\u840c
p2150
aV\u6349\u6025
p2151
aV\u4e94\u4e00
p2152
aV\u72af\u56f0
p2153
aV\u52a8\u753b
p2154
aV\u6559\u7a0b
p2155
aV5000
p2156
aV\u81ea\u4fe1
p2157
aV\u79bd\u6d41\u611f
p2158
aV\u7559\u8a00
p2159
aV\u4e16\u4e0a
p2160
aV\u4e3b\u9875
p2161
aV\u8bf4\u660e
p2162
aV\u98ce\u683c
p2163
aV\u5fc3\u585e
p2164
aV\u8bbe\u7f6e
p2165
aV\u8377\u5170
p2166
aV\u4e0d\u89c1\u4e0d\u6563
p2167
aV\u4e00\u7ad9
p2168
aV\u5c0f\u51b0
p2169
aV\u600e\u4e48
p2170
aV\u53f8\u673a
p2171
aV\u6625\u98ce
p2172
aV3000
p2173
aV\u5c0f\u718a
p2174
aVlxhx
p2175
aV\u70b9\u5f00
p2176
aV\u8d76\u4e0a
p2177
aV\u6a31\u82b1
p2178
aV\u6e29\u67d4
p2179
aV\u6211\u64cd
p2180
aV\u83b7\u5f97
p2181
aV\u8e0f\u5b9e
p2182
aV\u6682\u65f6
p2183
aV\u4e09\u4e2a
p2184
aV\u770b\u5f97
p2185
aV\u8f9b\u82e6
p2186
aV\u8fd8\u597d
p2187
aV\u6b66\u6c49
p2188
aV\u6bd5\u4e1a\u8bba\u6587
p2189
aV\u654f\u5fb7\u8def
p2190
aV2317528910
p2191
aV\u63a7\u5236
p2192
aV\u4fdd\u4f51
p2193
aV\u4f5c\u4e1a
p2194
aV\u60c5\u6000
p2195
aV\u5927\u53a6
p2196
aV\u6a31\u6843
p2197
aV\u9ea6\u5f53\u52b3
p2198
aV\u5e72\u51c0
p2199
aV\u7f8e\u4e3d
p2200
aV\u4e00\u7b14
p2201
aV\u5f53\u505a
p2202
aV\u5c0f\u5077
p2203
aV\u672a\u77e5
p2204
aV\u539f\u8c05
p2205
aV\u4ef7\u503c
p2206
aV\u56fe\u4e66
p2207
aV\u6298\u78e8
p2208
aV\u661f\u4eba
p2209
aV\u4e0b\u96ea
p2210
aV\u4e22\u8138
p2211
aV\u9633\u53f0
p2212
aV\u4f5c\u4e3a
p2213
aV\u4e4b\u540e
p2214
aV\u96be\u5f97
p2215
aV\u6885\u897f
p2216
aV\u5148\u68ee
p2217
aV\u82f9\u679c
p2218
aV\u82b1\u94b1
p2219
aV\u8981\u6b7b
p2220
aV\u5835\u8f66
p2221
aV\u7280\u5229
p2222
aV\u5927\u7231
p2223
aV\u7a76\u7adf
p2224
aV\u751f\u7269\u949f
p2225
aV\u6709\u8da3
p2226
aV\u7247\u5b50
p2227
aV\u5fc5\u8981
p2228
aV\u7684\u8bdd
p2229
aV\u5927\u767d
p2230
aVG15
p2231
aV\u67e5\u6536
p2232
aV\u96be\u5fd8
p2233
aV\u9e21\u8840
p2234
aV\u903b\u8f91
p2235
aV\u5927\u53d4
p2236
aV\u600e\u53ef\u5c11
p2237
aV\u90a3\u79cd
p2238
aV\u8001\u5b50
p2239
aVnozuonodie
p2240
aV\u5145\u6ee1
p2241
aV\u6559\u5ba4
p2242
aV\u4f46\u613f
p2243
aV\u6211\u8981
p2244
aV\u4e0d\u670d
p2245
aV\u5b98\u65b9
p2246
aV\u9192\u8fc7\u6765
p2247
aV\u7761\u5f97
p2248
aV\u6216\u8bb8
p2249
aVSB
p2250
aV\u505c\u4e0b\u6765
p2251
aV\u5176\u5b9e
p2252
aV\u65e5\u8bed
p2253
aV\u7b97\u4e86
p2254
aV\u5973\u751f
p2255
aV\u4e2d\u5fc3
p2256
aV\u5f71\u5b50
p2257
aV\u75af\u72c2
p2258
aV\u6700\u5f3a
p2259
aV\u4e1c\u7ad9
p2260
aV\u56de\u60f3
p2261
aV\u51fa\u56fd
p2262
aV\u6c89\u91cd
p2263
aV\u6bdb\u75c5
p2264
aV\u91cd\u65b0
p2265
aV\u5b66\u751f\u516c\u5bd3
p2266
aV\u7d27\u5f20
p2267
aV\u4e00\u5b9a
p2268
aV\u518d\u6b21
p2269
aV\u597d\u73a9
p2270
aV\u5317\u5927
p2271
aV\u7406\u7531
p2272
aV\u540c\u5fd7
p2273
aV\u9a6c\u8def
p2274
aV\u820d\u4e0d\u5f97
p2275
aV\u5154\u5b50
p2276
aV\u6e29\u6696
p2277
aV\u4eba\u6e23
p2278
aV\u81f4\u656c
p2279
aV\u4e00\u5bb6
p2280
aV\u8981\u8bf4
p2281
aV\u66fe\u7ecf
p2282
aV\u81ea\u89c9
p2283
aV\u563f\u563f
p2284
aV\u51b3\u5b9a
p2285
aV\u6f14\u51fa
p2286
aV\u4e00\u7bc7
p2287
aV\u5fae\u535a\u53bb
p2288
aV\u76f8\u7ea6
p2289
aV\u5e08\u59d0
p2290
aV\u6240\u6709
p2291
aV\u73af\u5883
p2292
aV\u661f\u5df4\u514b
p2293
aV\u76f8\u673a
p2294
aV\u6b3a\u8d1f
p2295
aV\u666e\u901a
p2296
aV\u8bf4\u670d
p2297
aV\u4e00\u4e0a\u5348
p2298
aV\u521d\u5fc3
p2299
aV\u8f66\u7968
p2300
aV\u96f6\u70b9
p2301
aV\u65e5\u8bb0
p2302
aV\u590d\u6d3b
p2303
aV\u5403\u706b\u9505
p2304
aV\u8fc7\u5e74
p2305
aV\u56de\u56fd
p2306
aV\u56fd\u9053
p2307
aV\u7b2c\u4e00\u5b63
p2308
aV\u73bb\u7483\u5fc3
p2309
aV\u77ac\u95f4
p2310
aV\u5076\u5c14
p2311
aV\u65b0\u95fb\u5468\u520a
p2312
aV\u5757\u94b1
p2313
aV\u957f\u5047
p2314
aV\u4e00\u5bf9
p2315
aV\u6bd4\u8f83
p2316
aV\u597d\u53cb
p2317
aV\u6700\u6700
p2318
aV\u4e00\u5806
p2319
aV\u8def\u4e0a
p2320
aV\u793c\u82b1
p2321
aV\u5904\u7406
p2322
aV\u5496\u5561\u9986
p2323
aV\u4ec0\u4e48
p2324
aV\u70b8\u9e21
p2325
aV\u5fae\u8584
p2326
aV\u6635\u79f0
p2327
aV\u957f\u5b81\u8def
p2328
aVpaper
p2329
aV\u5173\u4e8e
p2330
aV\u5f00\u4f1a
p2331
aV\u7761\u61d2\u89c9
p2332
aV\u8003\u8651
p2333
aV\u7535\u5546
p2334
aV\u53d8\u5f97
p2335
aV\u8001\u4eba\u5bb6
p2336
aV\u7528\u6765
p2337
aV24
p2338
aV\u6587\u4ef6
p2339
aV26
p2340
aV27
p2341
aV20
p2342
aV21
p2343
aV22
p2344
aV\u6bd5\u4e1a
p2345
aV\u79bb\u5a5a
p2346
aV28
p2347
aV29
p2348
aV\u8bb0\u4f4f
p2349
aV\u53ea\u6709
p2350
aV\u4fee\u6539
p2351
aV\u70ed\u7231
p2352
aV\u5fd8\u8bb0
p2353
aV\u5929\u5802
p2354
aV\u51b2\u52a8
p2355
aV\u819c\u62dc
p2356
aV\u51b7\u9759
p2357
aV\u6ce8\u610f
p2358
aV\u57fa\u672c
p2359
aV\u5b9c\u5bb6
p2360
aV\u660e\u6cd5\u697c
p2361
aVgood
p2362
aV\u5c0f\u732b
p2363
aV\u5c0f\u732a
p2364
aV\u96e8\u58f0
p2365
aV\u9a6c\u4e0a
p2366
aV\u53d1\u5fae\u535a
p2367
aV\u4e24\u6b21
p2368
aV\u53d1\u6761
p2369
aV\u53d1\u6765
p2370
aV\u5c0f\u533a
p2371
aV2B
p2372
aV\u5468\u516d
p2373
aV\u9762\u5bf9
p2374
aV\u9002\u5e94
p2375
aV\u4e0a\u8bfe
p2376
aV\u597d\u7f8e
p2377
aV\u5f00\u8f66
p2378
aV\u8863\u670d
p2379
aV\u94f6\u884c\u5361
p2380
aV\u8f66\u7ad9
p2381
aV\u793c\u62dc
p2382
aV\u4f4e\u8c03
p2383
aV\u771f\u60f3
p2384
aV\u6ca1\u53d1
p2385
aV\u66f2\u5947
p2386
aV\u5723\u8bde
p2387
aV\u65e0\u6bd4
p2388
aV\u4e00\u9879
p2389
aV\u501f\u53e3
p2390
aV\u4e00\u987f
p2391
aV\u4e0d\u6765
p2392
aV\u5730\u7b11
p2393
aV\u51fa\u95e8
p2394
aV\u590d\u4e60
p2395
aV\u89d2\u8272
p2396
aV\u6b65\u6b65
p2397
aV\u6bdb\u7ebf
p2398
aV\u63a5\u4e0b\u6765
p2399
aV\u4e00\u584c\u7cca\u6d82
p2400
aV\u6df1\u591c
p2401
aV\u5185\u5fc3
p2402
aV\u5ef6\u8bef
p2403
aV\u5565\u65f6\u5019
p2404
aV\u5361\u5361
p2405
aV\u9ad8\u901f
p2406
aV\u4f26\u6566
p2407
aV\u5973\u795e
p2408
aV\u5efa\u8bae
p2409
aV\u8fdc\u4e1c
p2410
aV\u8292\u679c
p2411
aV\u80fd\u591f
p2412
aV\u505a\u9b3c\u8138
p2413
aV\u51b2\u523a
p2414
aV\u67d0\u4eba
p2415
aV\u6d3b\u7740
p2416
aV\u9635\u96e8
p2417
aV\u8282\u64cd
p2418
aV\u4e0b\u5348\u8336
p2419
aV\u4e0a\u6b21
p2420
aV\u82f1\u683c\u5170
p2421
aV\u4eca\u591c
p2422
aV\u7f51\u9875
p2423
aV\u987a\u5229
p2424
aV\u6162\u6162
p2425
aV\u6c49\u5b50
p2426
aV\u7948\u7977
p2427
aV\u6f5c\u6c34
p2428
aV\u8679\u6865\u673a\u573a
p2429
aV\u95ee\u9898
p2430
aV\u5b8c\u6574
p2431
aV\u597d\u70e6
p2432
aV\u5708\u91cc
p2433
aV\u6d3b\u5728
p2434
aV\u6bd4\u8d5b
p2435
aV\u5927\u9053
p2436
aV\u6d66\u53e3
p2437
aV\u5e1d\u90fd
p2438
aV\u4e07\u8fbe
p2439
aV\u8003\u524d
p2440
aV\u8d31\u4eba
p2441
aV\u533b\u751f
p2442
aV\u5dee\u70b9
p2443
aV\u4e00\u58f0
p2444
aV\u68a6\u5883
p2445
aV\u9762\u5b50
p2446
aV\u4eca\u5929
p2447
aV\u597d\u50cf
p2448
aV\u65f6\u901f
p2449
aV\u81ea\u79c1
p2450
aV\u662f\u56e0\u4e3a
p2451
aV\u5403\u9971
p2452
aV\u5fc3\u5b89
p2453
aV\u5f97\u4e0d\u5230
p2454
aV\u5632\u7b11
p2455
aV\u4e0b\u6765
p2456
aV\u964c\u751f\u4eba
p2457
aV\u7167\u987e
p2458
aV\u8349\u8393
p2459
aV\u5929\u5929
p2460
aV\u65e9\u6668
p2461
aV\u6ca1\u52b2
p2462
aV\u6211\u8be5
p2463
aV\u8fdc\u79bb
p2464
aV\u7231\u5fc3
p2465
aV\u5a5a\u7eb1\u7167
p2466
aV\u5de5\u5177
p2467
aV\u4e0d\u66fe
p2468
aV\u90a3\u6837
p2469
aV\u5496\u5561
p2470
aV\u4e00\u591c
p2471
aV\u7ade\u6807
p2472
aV\u8fd9\u5468
p2473
aV\u5b58\u5728
p2474
aV\u4e00\u5927
p2475
aV\u8fdb\u51fb
p2476
aV\u9019\u6a23
p2477
aV\u91d1\u5c1a
p2478
aV\u94f6\u884c
p2479
aV\u6218\u6597
p2480
aV\u8fc7\u671f
p2481
aV\u5c0f\u725b
p2482
aV\u516c\u5e73
p2483
aV\u6691\u5047
p2484
aV\u65b0\u6625
p2485
aV\u6b27\u6d32\u676f
p2486
aV\u795e\u63a2
p2487
aV\u6551\u547d
p2488
aV\u53d1\u660e
p2489
aV\u91d1\u5c71
p2490
aV\u505a\u597d
p2491
aV\u653e\u677e
p2492
aV\u9547\u6c5f
p2493
aV\u8003\u8fc7
p2494
aV\u81ea\u6211
p2495
aV\u575a\u6301
p2496
aV\u5211\u8bc9
p2497
aVXX
p2498
aV\u6052\u5927
p2499
aV\u4e00\u5957
p2500
aV\u90ae\u7bb1
p2501
aV\u9886\u5148
p2502
aV\u5b9d\u5c71
p2503
aV\u5c0f\u9676\u5149
p2504
aV\u5f88\u957f
p2505
aV\u9f99\u95e8
p2506
aV\u4e0d\u5403
p2507
aV\u542f\u52a8
p2508
aV\u6cea\u5954
p2509
aV\u54c8\u54c8
p2510
aV\u4eba\u548c\u4e8b
p2511
aV\u8bb8\u4e45
p2512
aV\u897f\u8857
p2513
aV\u5305\u5bb9
p2514
aV\u670b\u53cb\u5708
p2515
aV\u8ba8\u538c
p2516
aV\u538b\u529b
p2517
aV\u4eab\u53d7
p2518
aV\u534e\u4e1c\u653f\u6cd5
p2519
aV\u6f14\u5531\u4f1a
p2520
aV\u9a6c\u5230\u6210\u529f
p2521
aV\u55d3\u5b50
p2522
aV\u664b\u7ea7
p2523
aV\u653b\u7565
p2524
aV\u51e0\u4e2a
p2525
aV888
p2526
aV\u715e\u7b14
p2527
aV\u60c5\u8282
p2528
aV\u6ca1\u5230
p2529
aV\u5f00\u6e90
p2530
aV\u4e00\u9996
p2531
aV\u544a\u8bc9
p2532
aV\u5982\u679c
p2533
aV\u4eca\u590f
p2534
aV\u9632\u5b88
p2535
aV\u5305\u5b50
p2536
aV\u8138\u4e0a
p2537
aV\u7fbd\u7ed2\u670d
p2538
aV\u4eb2\u7231
p2539
aV\u7b2c\u4e00\u5929
p2540
aV\u5931\u8bef
p2541
aV\u5341\u5929
p2542
aV\u56f0\u6b7b
p2543
aV\u667a\u5546
p2544
aV\u60f3\u5bb6
p2545
aV\u5b66\u5f1f
p2546
aV\u5347\u7ea7
p2547
aV\u6e3a\u5c0f
p2548
aV\u53d6\u6d88
p2549
aV\u4e27\u5fc3\u75c5\u72c2
p2550
aV\u9875\u5ca9
p2551
aVcc12
p2552
aV\u8fdb\u5165
p2553
aV\u4f1f\u5927
p2554
aV\u8ddf\u7740
p2555
aV\u4e00\u4e2a\u6708
p2556
aV\u9648\u831c
p2557
aV\u4e07\u6e90
p2558
aV\u8def\u8fc7
p2559
aV\u8fc7\u5c71\u8f66
p2560
aV\u4e0d\u662f
p2561
aV\u4e60\u60ef
p2562
aV\u8003\u9a8c
p2563
aV\u4e00\u79cd
p2564
aV\u4e00\u79d2
p2565
aV\u7b97\u6cd5
p2566
aV\u5faa\u73af
p2567
aV\u89e3\u653e
p2568
aV70
p2569
aV\u5b81\u590f\u8def
p2570
aV\u4eba\u6709
p2571
aV\u8f66\u5b50
p2572
aV\u516b\u70b9\u534a
p2573
aV\u5bfc\u6f14
p2574
aVGoogle
p2575
aV65
p2576
aV\u4e00\u4e2a\u591a
p2577
aV\u5931\u53bb
p2578
aV\u51e0\u4e4e
p2579
aV\u98df\u6b32
p2580
aVkm
p2581
aV\u6536\u85cf
p2582
aV\u8010\u5fc3
p2583
aV\u5e74\u85aa
p2584
aV\u62d6\u5ef6
p2585
aV\u53d1\u77ed\u4fe1
p2586
aV\u5934\u6761
p2587
aV\u9ad8\u5174
p2588
aV\u611f\u609f
p2589
aV\u65e0\u8da3
p2590
aV\u5de6\u8033
p2591
aV\u6765\u81ea
p2592
aV\u8981\u4e48
p2593
aV\u6559\u7ec3
p2594
aV\u4e07\u4e00
p2595
aV\u65e0\u610f
p2596
aV\u901d\u8005
p2597
aV\u6574\u7406
p2598
aV\u76ee\u6d4b
p2599
aV\u5168\u662f
p2600
aV\u677e\u6c5f\u533a
p2601
aV\u5e78\u597d
p2602
aV\u68a6\u4e4b\u58f0
p2603
aV\u6bcd\u6821
p2604
aV\u4eba\u5bb6
p2605
aV\u542c\u5199
p2606
aV\u955c\u5934
p2607
aV\u672c\u79d1\u751f
p2608
aV\u76ae\u76ae
p2609
aV\u5de5\u7a0b\u5e08
p2610
aV\u5c0f\u9547
p2611
aV\u5e26\u7ed9
p2612
aV\u516c\u796d
p2613
aV\u7533\u8bf7
p2614
aV\u65b0\u613f
p2615
aV\u9a6c\u6876
p2616
aV\u6c61\u67d3
p2617
aV\u6069\u7231
p2618
aV\u8fc7\u5ba2
p2619
aV\u9605\u8bfb
p2620
aV520
p2621
aV\u4e0a\u73ed\u65cf
p2622
aV\u77e5\u9053
p2623
aV\u8be5\u4e0d\u8be5
p2624
aV\u5e2e\u52a9
p2625
aV\u9b45\u65cf
p2626
aV1314
p2627
aV\u6a35\u6751
p2628
aV\u540c\u4e00\u4e2a
p2629
aV\u5065\u8eab
p2630
aV\u5927\u56fe
p2631
aV\u4f55\u65f6
p2632
aV\u6c6a\u5cf0
p2633
aV\u5988\u86cb
p2634
aV\u786e\u5b9a
p2635
aV\u6c42\u52a9
p2636
aV\u786e\u5b9e
p2637
aV\u95e8\u53e3
p2638
aV\u611f\u60c5
p2639
aV\u5409\u4ed6
p2640
aV\u5927\u96ea
p2641
aV\u8d44\u6e90
p2642
aV\u5927\u96e8
p2643
aV\u7533\u8bba
p2644
aV\u5df2\u7136
p2645
aV\u793c\u5802
p2646
aV\u53c2\u52a0
p2647
aV\u809a\u5b50\u75bc
p2648
aV\u6f14\u5458
p2649
aV\u7535\u4fe1
p2650
aV\u4e4b\u5149
p2651
aV\u6d41\u6cea
p2652
aV\u5927\u56db
p2653
aV\u7984\u53e3
p2654
aV\u5e74\u4ee3
p2655
aV\u5fd7\u613f\u8005
p2656
aV\u65b0\u52a0\u5761
p2657
aV\u5f90\u6c47
p2658
aV\u641c\u7d22
p2659
aV\u4e00\u5e74
p2660
aV\u65f6\u5c1a
p2661
aV\u56de\u590d
p2662
aV\u6e05\u534e
p2663
aV\u96c5\u5b89
p2664
aV\u6c14\u8d28
p2665
aV\u6ca1\u7528
p2666
aV\u8868\u73b0
p2667
aV\u5d07\u62dc
p2668
aV315
p2669
aV\u51fa\u53e3
p2670
aV\u90a3\u8fb9
p2671
aV\u4fdd\u6696
p2672
aV\u6ca1\u7535
p2673
aV\u8f6c\u8fd0
p2674
aV\u7ecf\u5e38
p2675
aV\u606d\u559c
p2676
aV\u786c\u76d8
p2677
aV\u9009\u9879
p2678
aVproject
p2679
aV\u4e16\u754c\u672b\u65e5
p2680
aV\u5fd0\u5fd1
p2681
aV\u597d\u65e5\u5b50
p2682
aV\u574f\u6389
p2683
aV\u5f88\u5feb
p2684
aV\u5357\u8def
p2685
aV\u4e00\u822c
p2686
aV\u8fd9\u53e5
p2687
aV\u6b4c\u624b
p2688
aV\u706b\u8f66\u7ad9
p2689
aV\u771f\u662f
p2690
aV\u636e\u8bf4
p2691
aV\u9910\u5385
p2692
aV\u6ca1\u9519
p2693
aV\u8212\u670d
p2694
aV\u51fa\u53d1
p2695
aV\u5de5\u519c\u8def
p2696
aV\u7559\u4e0b
p2697
aV\u597d\u56f0
p2698
aV\u5c31\u7b97
p2699
aV\u96f7\u9706
p2700
aV\u6551\u52a9\u8005
p2701
aV\u8270\u8f9b
p2702
aV\u6f14\u8bb2
p2703
aV\u4e8b\u662f
p2704
aV\u62c5\u5fc3
p2705
aV\u732e\u7ed9
p2706
aV\u7ec8\u4e8e
p2707
aV\u51fa\u53bb
p2708
aV\u4e09\u8a00
p2709
aV\u4e0d\u613f
p2710
aV\u672c\u5b50
p2711
aV\u51fa\u73b0
p2712
aV\u60c5\u4eba\u8282
p2713
aV\u4e00\u5927\u65e9
p2714
aV\u79c1\u4fe1
p2715
aV\u505c\u4e0d\u4e0b\u6765
p2716
aV\u6cbb\u7597
p2717
aV\u5e78\u798f
p2718
aV\u7801\u519c
p2719
aV\u9633\u9633
p2720
aV\u5730\u94c1\u7ad9
p2721
aV\u65e5\u5b50
p2722
aV\u4e0a\u6d77
p2723
aV\u5947\u8ff9
p2724
aV\u5927\u9646
p2725
aV\u516d\u70b9\u534a
p2726
aV\u5341\u5e74
p2727
aV\u5357\u4eac\u5927\u5b66
p2728
aV\u8001\u7238
p2729
aV\u4e0a\u6d77\u5e02
p2730
aV\u6de1\u5b9a
p2731
aV\u90d1\u5bb9
p2732
aV\u90a3\u4e2a
p2733
aV\u665a\u5b89
p2734
aV\u7d2f\u89c9
p2735
aV\u5b66\u59b9
p2736
aV\u4fe1\u606f
p2737
aV\u73a9\u73a9
p2738
aV\u6545\u969c
p2739
aV\u96c6\u4f53
p2740
aVTMD
p2741
aV\u72b6\u51b5
p2742
aV\u4e0d\u60f3
p2743
aV\u4e0d\u80fd
p2744
aV\u7ae5\u5e74
p2745
aV\u80cc\u5355\u8bcd
p2746
aV\u642c\u5bb6
p2747
aV\u4e00\u5f20
p2748
aV\u4e2d\u5b66
p2749
aVjava
p2750
aV\u4e66\u5e97
p2751
aV\u56de\u5230
p2752
aV\u8bfb\u4e66\u4f1a
p2753
aV\u819d\u76d6
p2754
aV\u5230\u8fbe
p2755
aV\u8d77\u5e8a
p2756
aV\u82cf\u5b81
p2757
aV\u8461\u8404\u7259
p2758
aV\u8d39\u5f5d\u6c11
p2759
aV\u9065\u8fdc
p2760
aV\u6d77\u5e95
p2761
aV\u9762\u524d
p2762
aV\u5728\u4e4e
p2763
aV\u846b\u82a6\u5a03
p2764
aVNJU
p2765
aV\u53e3\u6c34
p2766
aV\u592a\u5e73
p2767
aV\u9053\u7406
p2768
aV\u597d\u770b
p2769
aV\u63d0\u524d
p2770
aV\u5ac9\u5992
p2771
aV\u9e21\u6c64
p2772
aV\u5a1c\u5a1c
p2773
aV\u7f18\u5206
p2774
aV\u5267\u573a
p2775
aV\u53d7\u4f24
p2776
aV\u673a\u667a
p2777
aV\u53a8\u827a
p2778
aVppb
p2779
aV\u5de5\u5730
p2780
aV\u4e0d\u5f97\u4e0d
p2781
aV\u9633\u5149\u660e\u5a9a
p2782
aV\u5b66\u59d0
p2783
aV\u6709\u610f\u601d
p2784
aV\u7f3a\u4e4f
p2785
aV\u603b\u7b97
p2786
aV\u600e\u4e48\u56de\u4e8b
p2787
aV\u8981\u547d
p2788
aV\u6b8b\u7c89
p2789
aV\u5403\u8d27
p2790
aV\u9633\u5149
p2791
aV\u4f20\u9012
p2792
aV\u60f3\u60f3
p2793
aV\u5077\u61d2
p2794
aV\u534a\u4e2a
p2795
aV\u65e0\u6cd5
p2796
aV\u5438\u6bd2
p2797
aV\u55a7\u56a3
p2798
aV\u6709\u610f\u8005
p2799
aVMiss
p2800
aV\u795d\u613f
p2801
aV\u5f88\u591a
p2802
aV\u5c0f\u65f6\u5019
p2803
aV\u719f\u6089
p2804
aV\u8d70\u8d70
p2805
aV\u67f4\u9759
p2806
aV\u5e72\u4ec0\u4e48
p2807
aV\u5c0f\u54e5
p2808
aV\u6843\u82b1
p2809
aV\u60ca\u6050
p2810
aV\u65f6\u5dee
p2811
aV36
p2812
aV\u56db\u516d\u7ea7
p2813
aV\u9003\u907f
p2814
aV\u7701\u9053
p2815
aV\u6000\u7591
p2816
aV\u591a\u8c22
p2817
aV\u7801\u5b57
p2818
aV\u6536\u83b7
p2819
aV\u5c31\u884c\u4e86
p2820
aV\u5fb7\u56fd
p2821
aV\u9646\u5bb6\u5634
p2822
aV\u8fc7\u7a0b
p2823
aV\u6253\u6298
p2824
aV\u751f\u6d3b
p2825
aV\u4e00\u7fa4
p2826
aV\u67d0\u67d0
p2827
aV\u4eca\u5e74
p2828
aV\u53d4\u53d4
p2829
aV\u522b\u7684
p2830
aV\u6cea\u6d41\u6ee1\u9762
p2831
aV\u90a3\u4e9b
p2832
aV\u79d1\u6280
p2833
aV\u6781\u81f4
p2834
aV\u5b8c\u6210
p2835
aV\u5c81\u6708
p2836
aV\u4fee\u70bc
p2837
aV\u5f88\u5927
p2838
aV\u53ea\u80fd
p2839
aV\u6b63\u5e38
p2840
aV\u827a\u672f
p2841
aV\u7b2c\u4e09\u6b21
p2842
aV\u540e\u9762
p2843
aV\u5b89\u6392
p2844
aV\u592e\u89c6
p2845
aV\u53ea\u60f3
p2846
aV\u4f3c\u4e4e
p2847
aV\u6ee1\u8db3
p2848
aV\u97e9\u7ea2
p2849
aV\u672c\u6765
p2850
aV\u5341\u5927
p2851
aV\u7740\u6025
p2852
aV\u5389\u5bb3
p2853
aV\u6d41\u6d6a
p2854
aV\u75d8\u75d8
p2855
aV\u64cd\u86cb
p2856
aV\u8d44\u8baf
p2857
aV\u4e0d\u6015
p2858
aV\u6700\u60f3
p2859
aV\u5269\u4e0b
p2860
aV\u5728\u4e8e
p2861
aV\u611f\u6168
p2862
aV\u4e09\u6b21
p2863
aV\u4e24\u573a
p2864
aV\u7f51\u4e0a
p2865
aV\u4e00\u8282\u8bfe
p2866
aV\u5b66\u4f1a
p2867
aV\u6d3b\u8be5
p2868
aV\u4e00\u4e0d\u5c0f\u5fc3
p2869
aV\u4ea4\u901a\u5361
p2870
aV\u89c6\u89d2
p2871
aV\u6253\u8138
p2872
aV\u793e\u4f1a\u5b66
p2873
aV\u771f\u5b9e
p2874
aV\u547c\u547c
p2875
aV\u623f\u95f4
p2876
aV\u6bcf\u5929\u665a\u4e0a
p2877
aV\u674e\u5065
p2878
aV\u4f24\u5fc3
p2879
aV\u8c6a\u5ead
p2880
aV\u70e7\u70e4
p2881
aV\u5185\u5b58
p2882
aV\u597d\u542c
p2883
aV\u4e0d\u597d\u610f\u601d
p2884
aV\u5f00\u5ead
p2885
aV\u7ea7\u522b
p2886
aV\u6211\u4eec
p2887
aV\u770b\u597d
p2888
aV\u9648\u5955\u8fc5
p2889
aV\u6b8b\u5fcd
p2890
aV\u6709\u65f6
p2891
aV\u963f\u91cc
p2892
aV\u5b89\u606f
p2893
aV\u6293\u72c2
p2894
aV\u4e70\u7968
p2895
aV\u8fc7\u8282\u8d39
p2896
aV\u540c\u5b66
p2897
aV...
p2898
aV\u76f8\u4fe1
p2899
aV\u652f\u884c
p2900
aVTAT
p2901
aV\u7206\u68da
p2902
aV\u9ad8\u94c1
p2903
aV\u7edd\u671b
p2904
aV\u80c3\u75db
p2905
aV\u5927\u54e5
p2906
aV\u82f1\u96c4
p2907
aV\u625b\u4e0d\u4f4f
p2908
aV\u5927\u54ed
p2909
aV\u503c\u73ed
p2910
aV\u67da\u5b50
p2911
aV\u6e05\u9192
p2912
aV\u504f\u504f
p2913
aV\u5403\u4e2a
p2914
aV\u8be1\u5f02
p2915
aVOK
p2916
aV\u6c5f\u6e7e
p2917
aV\u9f3b\u6d95
p2918
aV\u7f8a\u5e74
p2919
aV\u82f1\u56fd
p2920
aV\u7535\u89c6\u5267
p2921
aV\u653e\u624b
p2922
aV\u8fd9\u513f
p2923
aV\u522b\u4eba
p2924
aV\u5e73\u6de1
p2925
aV\u6124\u6012
p2926
aV\u60ca\u8bb6
p2927
aV\u4f46\u662f
p2928
aV\u6ee1\u6ee1
p2929
aV\u5c1d\u8bd5
p2930
aV\u51e0\u6b21
p2931
aVJava
p2932
aV\u8fd9\u91cc
p2933
aV\u706b\u9505
p2934
aV\u519c\u6751
p2935
aV\u901b\u901b
p2936
aV\u4f53\u80b2
p2937
aV\u5f00\u673a
p2938
aV3.5
p2939
aVCSDN
p2940
aV\u516c\u5bd3
p2941
aV\u793e\u4ea4
p2942
aV\u5f3a\u5236
p2943
aV\u600e\u6837
p2944
aV\u5927\u8fc7\u5e74
p2945
aV\u6ca1\u770b
p2946
aV\u751f\u5b58
p2947
aV\u8bfe\u4e0a
p2948
aV\u96f7\u950b
p2949
aV\u76f8\u805a
p2950
aV\u978b\u5b50
p2951
aV\u516c\u52a1\u5458
p2952
aV\u6691\u671f\u793e\u4f1a
p2953
aV\u963f\u6839\u5ef7
p2954
aV\u5929\u5929\u5411\u4e0a
p2955
aV\u5927\u5409
p2956
aV\u6ca1\u7761
p2957
aV\u5730\u73a9
p2958
aV\u4e00\u89c9
p2959
aV\u4e0d\u5f97
p2960
aV\u8a79\u59c6\u65af
p2961
aV\u4f53\u4f1a
p2962
aV300
p2963
aVbm
p2964
aV\u6885\u8d5b\u5fb7\u65af
p2965
aV\u79bb\u7ebf
p2966
aV\u81ea\u5df1
p2967
aV\u5e72\u561b
p2968
aV\u8fdb\u7403
p2969
aV\u94b1\u5305
p2970
aV\u9e21\u6392
p2971
aV\u9ad8\u67b6\u8def
p2972
aV\u5750\u5728
p2973
aV\u804c\u573a
p2974
aVHello
p2975
aV\u63d0\u9192
p2976
aV77
p2977
aV\u80cc\u666f\u97f3\u4e50
p2978
aV\u6beb\u65e0
p2979
aV\u9a6c\u7532
p2980
aV\u822a\u7a7a
p2981
aV\u5b9e\u51b5
p2982
aV\u7a7a\u8c03
p2983
aV\u8fc7\u5206
p2984
aV\u534e\u653f\u5fae
p2985
aV\u4e03\u70b9
p2986
aV\u70b9\u591a
p2987
aV\u5185\u5bb9
p2988
aV\u6d88\u606f
p2989
aV\u9f13\u638c
p2990
aV\u7a7a\u6c14
p2991
aV\u4e0a\u8f66
p2992
aV\u821c\u5929
p2993
aV\u6bcf\u5f53
p2994
aV\u5dc5\u5cf0
p2995
aV\u571f\u8c6a
p2996
aV\u5b66\u8f66
p2997
aV\u5047\u671f
p2998
aV\u800c\u662f
p2999
aV\u54fc\u54fc
p3000
aV\u4eba\u7c7b
p3001
aV\u5f53\u7136
p3002
aV\u7206\u53d1
p3003
aV\u8bc1\u660e
p3004
aV\u5c4f\u853d
p3005
aV\u4e2d\u5956
p3006
aV\u65e0\u4eba
p3007
aV\u65e5\u8d77
p3008
aV\u4e09\u89c2
p3009
aV\u53f0\u98ce
p3010
aV\u597d\u7528
p3011
aV\u706b\u8f66\u7968
p3012
aVA\u80a1
p3013
aV\u7efc\u5408\u75c7
p3014
aV\u793e\u4f1a
p3015
aV\u770b\u4e0d\u5230
p3016
aV..
p3017
aV\u8bfb\u7814
p3018
aV\u6211\u5927
p3019
aV\u5b89\u6170
p3020
aV\u52a0\u5165
p3021
aV\u6bc5\u529b
p3022
aV\u62f3\u5934
p3023
aV\u820c\u5c16
p3024
aV\u70e6\u8e81
p3025
aV\u5171\u9e23
p3026
aV\u7eff\u8336
p3027
aV\u5168\u5bb6
p3028
aV\u7b2c\u4e00\u540d
p3029
aV\u597d\u51e0\u4e2a
p3030
aV\u6d77\u9c9c
p3031
aV\u5feb\u8981
p3032
aV\u5f98\u5f8a
p3033
aV\u592a\u8fc7
p3034
aV\u4e24\u4e2a
p3035
aV\u7ec4\u5408
p3036
aV\u957f\u76f8
p3037
aV\u987f\u65f6
p3038
aV\u505a\u4eba
p3039
aV\u826f\u5fc3
p3040
aV\u6c64\u5706
p3041
aV\u8d85\u5e02
p3042
aV\u4e45\u8fdd
p3043
aV\u62bd\u98ce
p3044
aV\u6613\u8d2d
p3045
aVMark
p3046
aV\u6c42\u7b7e
p3047
aVGDP
p3048
aV\u52a8\u529b
p3049
aV\u738b\u529b\u5b8f
p3050
aV\u61d2\u5f97
p3051
aV\u6539\u540d\u5b57
p3052
aV\u4efb\u4f55
p3053
aV\u80cc\u540e
p3054
aV\u592b\u5b50\u5e99
p3055
aV\u56db\u70b9
p3056
aV\u4e2d\u592e
p3057
aV....
p3058
aV\u96be\u602a
p3059
aV\u4e4b\u524d
p3060
aV\u62ac\u5934
p3061
aV\u4ed8\u51fa
p3062
aV\u5931\u7720
p3063
aV\u79bb\u5f00
p3064
aV\u86cb\u7cd5
p3065
aV\u6bd5\u4e1a\u5178\u793c
p3066
aV\u5730\u9707
p3067
aV\u9700\u6c42
p3068
aV\u5ffd\u7136
p3069
aV\u754c\u9762
p3070
aV\u5e7f\u573a
p3071
aV\u73a9\u513f
p3072
aV\u6559\u6388
p3073
aV\u6559\u5e08\u8282
p3074
aV\u6b7b\u673a
p3075
aV\u8eab\u4f53\u5065\u5eb7
p3076
aV\u4e0d\u80fd\u4e0d\u8981
p3077
aV\u975e\u8bda
p3078
aV\u4e2d\u79cb
p3079
aV\u84dd\u9cb8
p3080
aV\u9759\u9759
p3081
aV\u6210\u5c31\u611f
p3082
aV\u52a8\u7269
p3083
aV\u8bf4\u5b9e\u8bdd
p3084
aV\u91d1\u9675
p3085
aV\u6709\u70b9\u513f
p3086
aV\u6765\u4e0d\u53ca
p3087
aV\u665a\u9910
p3088
aV\u5b89\u5168\u611f
p3089
aV\u5165\u804c
p3090
aV\u4e8b\u6545
p3091
aV\u597d\u559d
p3092
aVTT
p3093
aV\u7ed1\u5b9a
p3094
aV\u8001\u516c
p3095
aV\u4e8c\u6708
p3096
aV\u4ea4\u6d41
p3097
aV\u65e9\u5c31
p3098
aV\u5c34\u5c2c
p3099
aVTM
p3100
aV\u7d2f\u6b7b
p3101
aV\u5b81\u613f
p3102
aV\u542c\u5230
p3103
aV\u8bb2\u8bdd
p3104
aV\u80a1\u7968
p3105
aV\u7403\u8ff7
p3106
aV\u9f99\u6e90\u8def
p3107
aVnice
p3108
aV\u5bb6\u4e61
p3109
aV\u957f\u767d
p3110
aV\u624b\u8868
p3111
aV\u90c1\u95f7
p3112
aV\u77eb\u60c5
p3113
aV\u5bf9\u8c61
p3114
aVT2
p3115
aV\u8f85\u8def
p3116
aV\u652f\u6301
p3117
aV\u6ecb\u5473
p3118
aV\u5931\u843d
p3119
aV\u627e\u4e2a
p3120
aV\u5bbd\u5e26
p3121
aV\u89e3\u8131
p3122
aV\u6bcf\u5e74
p3123
aV\u884c\u4e3a
p3124
aV\u6709\u65f6\u5019
p3125
aV\u987a\u4e49
p3126
aV\u6d6a\u8d39
p3127
aV\u665a\u996d
p3128
aV\u62dc\u5e74
p3129
aV\u6709\u6ca1\u6709
p3130
aV\u505a\u4e2a
p3131
aV\u8e22\u7403
p3132
aV\u8bd5\u8bd5
p3133
aV\u6311\u6218
p3134
aV\u8d85\u7ea7
p3135
aV\u6211\u4f1a
p3136
aV\u6d17\u8863\u670d
p3137
aV\u60f3\u5ff5
p3138
aV\u8fd9\u70b9
p3139
aV\u4e58\u5ba2
p3140
aV\u884c\u4e14
p3141
aV\u656c\u8bf7\u671f\u5f85
p3142
aV\u592a\u6709
p3143
aV\u5b8c\u7f8e
p3144
aV\u8f93\u7403
p3145
aV2008
p3146
aV\u4e0a\u6d77\u7ad9
p3147
aV\u6211\u60f3
p3148
aV\u4e00\u5207
p3149
aV\u5220\u9664
p3150
aV\u53bb\u5e74
p3151
aVCPA
p3152
aV\u8d56\u5e8a
p3153
aV\u6211\u80fd
p3154
aV\u53f8\u6cd5\u8003\u8bd5
p3155
aV\u65e9\u8d77
p3156
aV\u7a0b\u5e8f\u5458
p3157
aV\u53d1\u8d22
p3158
aV\u4efb\u6027
p3159
aV\u53d1\u8d27
p3160
aV\u6dd8\u5b9d
p3161
aVgo
p3162
aV\u6c42\u5a5a
p3163
aV\u5c41\u80a1
p3164
aV\u73ed\u7ea7
p3165
aV\u770b\u7740
p3166
aV\u771f\u662f\u592a
p3167
aV\u4e91\u5357
p3168
aV\u6240\u4ee5
p3169
aV\u505a\u68a6
p3170
aV\u4e8e\u662f
p3171
aV\u7535\u5f71
p3172
aV\u706b\u7bad
p3173
aV\u7cbe\u529b
p3174
aV\u4e00\u5230
p3175
aV\u8d8a\u662f
p3176
aV\u6211\u60c5
p3177
aV\u5c0f\u76c6\u53cb
p3178
aV\u4e00\u523b
p3179
aV\u56e2\u961f
p3180
aV\u5f00\u653e
p3181
aV\u5e0c\u671b
p3182
aV\u9ed1\u7ebf
p3183
aV\u4e3a\u4f55
p3184
aV\u68a6\u5230
p3185
aV\u65b0\u5e74\u5feb\u4e50
p3186
aV\u706b\u8f66
p3187
aV\u4e00\u7247
p3188
aV\u574f\u4eba
p3189
aV\u56de\u5f52
p3190
aV\u975e\u8981
p3191
aV\u5bb3\u6015
p3192
aV\u5f53\u5e74
p3193
aV\u503c\u5f97\u7eaa\u5ff5
p3194
aV\u5954\u5b9d
p3195
aV\u8dd1\u6b65
p3196
aV\u7948\u798f
p3197
aV\u5237\u65b0
p3198
aV\u76f8\u4eb2
p3199
aV\u6253\u8f66
p3200
aV\u64ad\u62a5
p3201
aV\u6536\u5230
p3202
aV\u7ea2\u706f\u7b3c
p3203
aV\u9ad8\u7aef
p3204
aV\u6001\u5ea6
p3205
aV\u770b\u770b
p3206
aV\u5fae\u4fe1
p3207
aV\u6743\u529b
p3208
aV\u9b54\u5492
p3209
aV\u5fc3\u70e6
p3210
aV\u65b0\u6c14\u8c61
p3211
aV\u5145\u5b9e
p3212
aV\u624b\u5957
p3213
aV\u554a\u554a\u554a
p3214
aV\u65b0\u6d6a
p3215
aV\u65f6\u5019
p3216
aV\u7b2c\u4e00\u53e5
p3217
aV\u9875\u9762
p3218
aV\u661f\u671f
p3219
aV\u5403\u60ca
p3220
aV\u601d\u8003
p3221
aV\u5341\u5206
p3222
aV\u8fce\u6765
p3223
aV\u4e0d\u8d77
p3224
aV\u6b8b\u9177
p3225
aV\u5927\u6c14
p3226
aVzz
p3227
aV\u8d3a\u7535
p3228
aV\u957f\u5927
p3229
aV\u8d25\u5bb6
p3230
aV\u514d\u8d39
p3231
aV\u5e08\u5085
p3232
aV\u4e50\u4e50
p3233
aV\u6821\u533a
p3234
aV\u6295\u7ed9
p3235
aV\u4e00\u5929
p3236
aV\u8bf4\u8d70\u5c31\u8d70
p3237
aV\u5730\u513f
p3238
aV\u623f\u5b50
p3239
aV\u674e\u654f
p3240
aV\u7ffb\u8bd1\u6210
p3241
aV\u4e2d\u56fd
p3242
aV\u6574\u4e2a
p3243
aVnikerunning
p3244
aV\u611f\u8c22
p3245
aV\u5bb6\u95e8\u53e3
p3246
aV\u5c0f\u59d0
p3247
aV\u60f3\u4e0d\u8d77\u6765
p3248
aV\u4e07\u4e8b\u5982\u610f
p3249
aV\u8001\u5e08
p3250
aV\u5927\u5e45
p3251
aVCCTV
p3252
aV\u4f60\u4eec
p3253
aV\u7ad9\u5e86
p3254
aV\u9ebb\u8fa3
p3255
aV\u5047\u88c5
p3256
aV\u5fe7\u4f24
p3257
aV\u5218\u6d77
p3258
aV\u5230\u624b
p3259
aV\u61c2\u4e8b
p3260
aV\u7f51\u53cb
p3261
aV\u56de\u5fc6
p3262
aV\u7535\u95ea\u96f7\u9e23
p3263
aV\u5783\u573e\u6876
p3264
aV38
p3265
aV\u6211\u6015
p3266
aV\u4e66\u5355
p3267
aV\u5fae\u8f6f
p3268
aV33
p3269
aV32
p3270
aV31
p3271
aV30
p3272
aV.......
p3273
aV35
p3274
aV34
p3275
aV\u7761\u89c9
p3276
aV\u5c0f\u599e
p3277
aV\u4e00\u4f1a\u513f
p3278
aV\u4f4d\u5b50
p3279
aV\u4e2d\u5956\u7387
p3280
aV\u6109\u60a6
p3281
aV\u65b0\u8def
p3282
aV\u5fc3\u7075
p3283
aV\u722c\u8d77\u6765
p3284
aV\u5206\u6790
p3285
aV\u5927\u5bb6
p3286
aV\u590d\u65e6
p3287
aV\u540a\u4e1d
p3288
aV\u6c38\u8fdc\u90fd\u662f
p3289
aV\u4e00\u5e2e
p3290
aVapp
p3291
aV\u6d17\u5b8c
p3292
aV\u8981\u6c42
p3293
aV\u6253\u4e2a
p3294
aV\u5929\u732b
p3295
aV\u738b\u83f2
p3296
aV\u5c11\u5e74
p3297
aV........
p3298
aV\u7fbd\u6bdb\u7403
p3299
aV\u5f53\u4e8b\u4eba
p3300
aV\u97e9\u5267
p3301
aV\u652f\u8def
p3302
aV\u80a0\u80c3
p3303
aV\u53cd\u7701
p3304
aV\u5e74\u8f7b
p3305
aV\u7b97\u662f
p3306
aV\u65f6\u5149
p3307
aV\u840c\u840c
p3308
aV\u5730\u70b9
p3309
aV\u526a\u8f91
p3310
aV\u80fd\u529b
p3311
aV\u7167\u7247
p3312
aV\u89c1\u5230
p3313
aV\u897f\u6e38
p3314
aV\u5e7f\u544a
p3315
aV\u65e0\u6094
p3316
aV\u5f97\u5230
p3317
aV\u82cf\u5dde
p3318
aV\u7834\u4ea7
p3319
aV\u7b2c\u4e8c\u6b21
p3320
aV\u50b2\u9aa8
p3321
aV\u5f20\u6c5f
p3322
aV\u79c1\u623f
p3323
aV\u63d0\u5347
p3324
aV\u5c3d\u5934
p3325
aV\u60a0\u60a0
p3326
aV\u5e74\u4f1a
p3327
aV\u771f\u8bda
p3328
aV\u5fc3\u91cc
p3329
aV\u4e00\u534a
p3330
aV\u5dee\u8bc4
p3331
aV\u5145\u65a5
p3332
aV\u795e\u6e05\u6c14\u723d
p3333
aV\u5b87\u5b99
p3334
aV\u5b9e\u4e60\u751f
p3335
aV\u6e05\u65b0
p3336
aV\u95ee\u5019
p3337
aV\u4e4b\u7c7b
p3338
aV\u884c\u653f
p3339
aV\u53f7\u697c
p3340
aV\u5e08\u5144
p3341
aVhigh
p3342
aV\u4f1a\u8bae
p3343
aV\u594b\u6218
p3344
aV\u9984\u9968
p3345
aV\u6587\u6c47
p3346
aV\u7384\u6b66\u6e56
p3347
aV\u4f1a\u8ba1
p3348
aV\u6ee1\u610f
p3349
aV\u65cb\u5f8b
p3350
aV\u50b2\u5a07
p3351
aV\u5371\u9669
p3352
aV\u8f6f\u4ef6
p3353
aV\u516c\u4ea4\u7ad9
p3354
aV\u54c8\u54c8\u54c8
p3355
aV\u4e2d\u573a
p3356
aV\u561f\u561f
p3357
aV\u56de\u9f99\u89c2
p3358
aV\u4e5d\u53f7
p3359
aVYY
p3360
aV\u667a\u9f7f
p3361
aV\u597d\u4e45\u4e0d\u89c1
p3362
aV\u81ea\u52a9
p3363
aV\u8c8c\u4f3c
p3364
aV\u805a\u9910
p3365
aV\u591c\u91cc
p3366
aV\u7761\u7740
p3367
aV\u574f\u4e8b
p3368
aV\u8ba1\u7b97\u673a
p3369
aV\u8857\u821e
p3370
aV\u7f16\u5267
p3371
aV\u6df1\u523b
p3372
aV\u505c\u6c34
p3373
aV\u5b66\u751f
p3374
aV\u542c\u529b
p3375
aV\u96be\u770b
p3376
aV\u4e94\u6708
p3377
aV\u4e00\u4e2a\u534a
p3378
aV\u4e00\u74f6
p3379
aV\u7687\u9a6c
p3380
aV\u5409\u7965
p3381
aV\u96f6\u98df
p3382
aV\u7761\u7720
p3383
aVde
p3384
aV\u7eaf\u7cb9
p3385
aV\u4e94\u671f
p3386
aV\u79d8\u5bc6
p3387
aVKTV
p3388
aV\u4e00\u8f88\u5b50
p3389
aV\u4e00\u53cc
p3390
aV\u5927\u5b78
p3391
aV\u5927\u5b66
p3392
aV\u51fa\u7ebf
p3393
aV\u820d\u5f97
p3394
aV\u76f8\u4f3c
p3395
aV\u9e21\u9e23\u5bfa
p3396
aV\u9a7e\u6821
p3397
aV\u676d\u5dde
p3398
aV\u56db\u5929
p3399
aV\u7269\u8bed
p3400
aV\u5ba2\u6237\u7aef
p3401
aV\u9752\u5965\u4f1a
p3402
aV\u8001\u9f20
p3403
aV\u5bf9\u624b
p3404
aV\u56fd\u5916
p3405
aV\u4e00\u53e5
p3406
aV\u65e0\u804a
p3407
aV\u56db\u5e74
p3408
aV\u6211\u6821
p3409
aV\u665a\u7761
p3410
aV\u5bdd\u5ba4
p3411
aV\u5fc3\u9178
p3412
aV\u4e00\u53f7
p3413
aV\u66b4\u96e8
p3414
aV\u7d2f\u5230
p3415
aV\u771f\u6b63
p3416
aV\u7279\u522b
p3417
aV\u56fd\u5bb6
p3418
aV\u4e8c\u53f7\u7ebf
p3419
aV\u5c0f\u5b69
p3420
aV\u9082\u9005
p3421
aV\u5c0f\u5b66
p3422
aV\u81ea\u7136
p3423
aV\u54ea\u6837
p3424
aV\u540c\u5b66\u805a\u4f1a
p3425
aV\u601d\u5bc6\u8fbe
p3426
aV\u53ef\u601c
p3427
aV\u5174\u594b
p3428
aV\u652f\u4ed8
p3429
aV\u6d51\u8eab
p3430
aV\u767d\u5929
p3431
aV\u5065\u5eb7
p3432
aV\u60f3\u8981
p3433
aV\u623f\u79df
p3434
aV\u503c\u5f97
p3435
aV\u4e0d\u8fc7
p3436
aV\u6cb3\u897f
p3437
aV\u82b1\u75f4
p3438
aV\u53ea\u4f1a
p3439
aV\u9884\u7ea6
p3440
aV\u5730\u53bb
p3441
aV\u60f3\u5230
p3442
aV\u5e08\u7236
p3443
aV\u6309\u65f6
p3444
aVlt
p3445
aV\u8c46\u74e3
p3446
aV\u5207\u6362
p3447
aV\u5341\u70b9
p3448
aV2014
p3449
aV\u53ef\u4e50
p3450
aV2011
p3451
aV2010
p3452
aV2013
p3453
aV2012
p3454
aV\u8981\u8003
p3455
aV\u4f11\u5047
p3456
aV\u6548\u679c
p3457
aVpython
p3458
aV\u4e0b\u4e2a
p3459
aV\u5c31\u591f
p3460
aV\u771f\u68d2
p3461
aV\u4e00\u904d
p3462
aV\u59b9\u7eb8
p3463
aV\u8282\u65e5\u5feb\u4e50
p3464
aViPhone
p3465
aV\u9493\u9c7c\u5c9b
p3466
aV\u79bb\u522b
p3467
aV\u65f6\u523b
p3468
aV\u591a\u4e91
p3469
aV\u8bcd\u6c47
p3470
aV\u6d3b\u5f97
p3471
aV\u5acc\u5f03
p3472
aV\u771f\u4e0d\u77e5\u9053
p3473
aV\u9ad8\u4e09
p3474
aV\u7f57\u672c
p3475
aV\u66f4\u65b0
p3476
aV\u788e\u7247
p3477
aV\u6700\u4f73
p3478
aV\u8bfe\u7a0b
p3479
aV\u6253\u8d4f
p3480
aV\u9080\u8bf7
p3481
aV\u591a\u4eba
p3482
aV\u51cc\u4e71
p3483
aV\u5927\u98ce
p3484
aV\u80fd\u91cf
p3485
aV\u5b64\u5355
p3486
aV\u70ed\u95f9
p3487
aV\u6bcd\u4eb2\u8282
p3488
aV\u6de1\u6de1\u7684
p3489
aV\u51fa\u5dee
p3490
aVcry
p3491
aV\u591a\u4e48
p3492
aV\u6cea\u70b9
p3493
aV\u6ca1\u5173\u7cfb
p3494
aV\u786e\u8ba4
p3495
aV\u62d6\u978b
p3496
aV\u6d88\u5931
p3497
aV\u7f51\u7edc
p3498
aV\u5b89\u5b89\u9759\u9759
p3499
aV\u4f5c\u6587
p3500
aV\u6e05\u660e\u4e0a\u6cb3\u56fe
p3501
aV\u4ef2\u88c1
p3502
aV\u54a8\u8be2
p3503
aV80
p3504
aV86
p3505
aV87
p3506
aV\u5979\u4eec
p3507
aV\u8f7b\u6613
p3508
aV\u8106\u5f31
p3509
aV\u516c\u77e5
p3510
aV140
p3511
aV\u4f18\u79c0
p3512
aVCEO
p3513
aV\u7b49\u5230
p3514
aV\u4e0d\u4f4f
p3515
aV\u73cd\u60dc
p3516
aV\u8f6c\u81ea
p3517
aV\u7529\u624b
p3518
aV\u7f51\u901f
p3519
aV\u98ce\u6247
p3520
aV\u8ff7\u8def
p3521
aV\u4e2d\u56fd\u961f
p3522
aV\u4eba\u751f
p3523
aV\u6b22\u4e50
p3524
aV\u9605\u89c8\u5ba4
p3525
aV\u4e0d\u4f5c
p3526
aV\u96be\u5403
p3527
aV\u6f2b\u957f
p3528
aV\u53ef\u60b2
p3529
aV\u5408\u80a5
p3530
aV\u4fe1\u7528\u5361
p3531
aV\u4e3a\u4ec0\u4e48
p3532
aV\u6216\u8005
p3533
aV\u60ec\u610f
p3534
aV\u9ad8\u5bcc\u5e05
p3535
aV\u4e0d\u6b62
p3536
aV\u7f62\u4e86
p3537
aV\u6240\u8c13
p3538
aV\u5b66\u9662
p3539
aV\u53ef\u60dc
p3540
aV\u82b1\u56ed\u8def
p3541
aV\u7b2c\u4e00\u4ef6
p3542
aV\u6587\u660e
p3543
aV\u5b66\u957f
p3544
aV\u529b\u91cf
p3545
aV\u60f3\u8c61
p3546
aV\u79d1\u7814
p3547
aV\u961f\u957f
p3548
aV\u601d\u7ef4
p3549
aV\u529f\u80fd
p3550
aV\u4fbf\u5b9c
p3551
aV\u627e\u56de
p3552
aV\u4e09\u6708
p3553
aV\u524d\u884c
p3554
aV\u4e00\u90e8
p3555
aV\u767d\u7389
p3556
aVmac
p3557
aV\u717d\u60c5
p3558
aV\u53ef\u80fd
p3559
aV\u4e00\u53d1
p3560
aV\u54c8\u76ae
p3561
aV\u5fae\u535a\u9886
p3562
aV\u8ffd\u6c42
p3563
aV\u653e\u5047
p3564
aV\u6885\u82b1
p3565
aV\u7406\u8bba
p3566
aV\u63ea\u5fc3
p3567
aV\u9646\u6052
p3568
aV\u7ca4\u8bed
p3569
aV\u4e0b\u8f66
p3570
aV\u5bf9\u4e0d\u8d77
p3571
aV\u5f7b\u5e95
p3572
aV\u602a\u4e0d\u5f97
p3573
aV\u77ed\u8896
p3574
aV\u5927\u6e05\u65e9
p3575
aV\u5355\u7eaf
p3576
aV\u53d1\u4e2a
p3577
aV\u5e74\u9f84
p3578
aV\u4e0b\u8f7d
p3579
aV\u5de8\u5927
p3580
aV\u603b\u5728
p3581
aV\u5403\u836f
p3582
aV\u68d2\u68d2
p3583
aV\u65e0\u8bba\u5982\u4f55
p3584
aV\u62d2\u7edd
p3585
aV\u6b22\u8fce
p3586
aV\u611f\u89e6
p3587
aV\u8425\u9500
p3588
aV\u597d\u591a
p3589
aV\u597d\u5904
p3590
aV\u54f2\u5b66
p3591
aV\u76f8\u4f34
p3592
aV\u4e94\u6708\u5929
p3593
aV\u4e00\u6b21\u6b21
p3594
aV9.8
p3595
aV\u9664\u5915
p3596
aV\u5947\u602a
p3597
aV\u5927\u5988
p3598
aV\u9759\u5b89
p3599
aV\u79df\u623f
p3600
aV\u751f\u6c14
p3601
aV\u770b\u5427
p3602
aV\u591c\u6df1
p3603
aV\u4e00\u53e3
p3604
aV\u597d\u597d
p3605
aV\u4e3a\u5565
p3606
aV\u751c\u871c
p3607
aV\u97f3\u4e50
p3608
aV\u6bb5\u65f6\u95f4
p3609
aV\u76ee\u6807
p3610
aV\u505a\u4e8b
p3611
aV\u4e50\u8da3
p3612
aV\u9152\u5e97
p3613
aV\u610f\u601d
p3614
aV\u5357\u6cc9
p3615
aV\u817e\u8baf
p3616
aV\u53eb\u505a
p3617
aV\u672c\u547d\u5e74
p3618
aV\u5988\u5988
p3619
aV\u5982\u4f55
p3620
aV\u534a\u51b3\u8d5b
p3621
aV\u770b\u7403
p3622
aV\u6c5f\u4e1c
p3623
aV\u4e0d\u4e86
p3624
aV\u7cbe\u795e
p3625
aV2015
p3626
aV\u4e09\u65b0
p3627
aV\u7070\u5e38
p3628
aV\u5c0f\u9ed1
p3629
aV\u4eba\u54c1
p3630
aVbed
p3631
aV\u4e2d\u996d
p3632
aV\u4e00\u53ea
p3633
aV\u597d\u5947
p3634
aV\u65e9\u4e0a
p3635
aV\u6211\u5feb
p3636
aV\u7761\u8863
p3637
aV\u5a5a\u59fb
p3638
aV\u54ea\u4e9b
p3639
aV\u4f18\u5de5\u7ec4
p3640
aV\u540e\u5929
p3641
aV\u843d\u53f6
p3642
aV\u7535\u5b50\u4e66
p3643
aV\u9886\u5bfc
p3644
aV\u6709\u70b9\u7d2f
p3645
aV\u5927\u793c
p3646
aV\u516c\u76ca
p3647
aV\u773c\u775b
p3648
aV\u5927\u5927
p3649
aV8sGm3yZ
p3650
aV\u5e94\u7528
p3651
aV\u5c0f\u65f6
p3652
aV\u8fc7\u540e
p3653
aV\u4fe1\u4efb
p3654
aV\u5df2\u7ecf
p3655
aV\u6bcf\u5230
p3656
aV\u5173\u673a
p3657
aV\u526a\u5934\u53d1
p3658
aV\u6211\u7231\u4f60
p3659
aV\u590d\u6742
p3660
aV4000
p3661
aV\u5b69\u5b50
p3662
aV\u63a8\u8350
p3663
aV\u516c\u56ed
p3664
aV\u9ad8\u5927
p3665
aV\u90fd\u8fd8\u6ca1
p3666
aV\u5a5a\u793c
p3667
aV\u4e00\u56de
p3668
aV\u53d1\u4e86
p3669
aV\u68a6\u91cc
p3670
aV\u4f20\u7edf
p3671
aV02
p3672
aV\u5b64\u72ec
p3673
aV\u9ed8\u9ed8\u5730
p3674
aV\u95ed\u5173
p3675
aV\u8111\u5b50
p3676
aV\u732a\u5934
p3677
aV\u4e0b\u5b66\u671f
p3678
aV\u5927\u597d
p3679
aV\u8f7b\u677e
p3680
aV\u5f00\u5f00\u5fc3\u5fc3
p3681
aV\u5435\u9192
p3682
aV\u56de\u53bb
p3683
aV\u5176\u4ed6\u4eba
p3684
aV\u56db\u4e2a
p3685
aV\u5171\u52c9
p3686
aV\u5e05\u6c14
p3687
aV\u6253\u6e38\u620f
p3688
aV\u603b\u6709
p3689
aV\u8087\u5609
p3690
aV07
p3691
aV\u601d\u5ff5
p3692
aV\u5927\u5956
p3693
aV\u53d1\u5e03\u4f1a
p3694
aV\u70b9\u540d
p3695
aV\u4eba\u80fd
p3696
aV\u5927\u795e
p3697
aV\u70b9\u7403
p3698
aV\u5f8b\u5e08
p3699
aV\u4e0d\u4e0a
p3700
aV\u53d1\u7ea2\u5305
p3701
aV\u7248\u672c
p3702
aV\u4e00\u51fa
p3703
aV\u5c71\u5be8
p3704
aV\u5c4c\u4e1d
p3705
aV08
p3706
aV\u7a7f\u7740
p3707
aV\u6c34\u679c
p3708
aV1http
p3709
aV\u6f47\u6d12
p3710
aV\u9f13\u697c
p3711
aV\u6210\u4e3a
p3712
aV\u80c3\u53e3
p3713
aV\u865a\u62df\u673a
p3714
aV\u4e5f\u597d
p3715
aV\u6307\u5bfc
p3716
aVanyway
p3717
aV\u52a0\u73ed
p3718
aV\u4e54\u5e03\u65af
p3719
aV\u4f46\u6c42
p3720
aV\u5149\u68cd\u8282
p3721
aV\u8bb8\u613f
p3722
aV\u54ea\u4e2a
p3723
aV\u4f24\u4e0d\u8d77
p3724
aVTA
p3725
aV\u53ef\u662f
p3726
aV\u65e2\u7136
p3727
aV\u98de\u5e38\u51c6
p3728
aV\u4e0d\u89c1
p3729
aV\u88c1\u5224
p3730
aV\u5bf9\u4e8e
p3731
aV\u8fc7\u53bb
p3732
aV\u9ad8\u7ea7
p3733
aV\u535a\u5ba2
p3734
aV\u6cf0\u56fd
p3735
aV\u597d\u5e05
p3736
aV\u5b9d\u5b9d
p3737
aV\u4e94\u5206\u949f
p3738
aV\u673a\u4f1a
p3739
aV\u4e00\u500b
p3740
aVTheGirlisratHerheaDstrong
p3741
aV\u6587\u6863
p3742
aV\u793c\u8c8c
p3743
aVnikeplus
p3744
aV\u672c\u4eba
p3745
aV\u4e4b\u591c
p3746
aV\u4e0b\u5b9a\u51b3\u5fc3
p3747
aV\u7ed3\u5a5a
p3748
aV\u575a\u5f3a
p3749
aV\u7aef\u5348
p3750
aV\u91cd\u6e29
p3751
aV\u7406\u6027
p3752
aV\u771f\u4e0d\u5bb9\u6613
p3753
aV\u8fce\u63a5
p3754
aV\u72c2\u5954
p3755
aV120
p3756
aV\u6539\u4e3a
p3757
aV\u961f\u53cb
p3758
aV\u521a\u624d
p3759
aV\u53d1\u73b0\u81ea\u5df1
p3760
aV\u7537\u4eba
p3761
aV\u7075\u9b42
p3762
aVqq
p3763
aV\u4ece\u6765\u4e0d
p3764
aV\u4e0d\u8981
p3765
aV\u4e8b\u4e8b
p3766
aV\u8c22\u8c22\u4f60\u4eec
p3767
aV\u8981\u662f
p3768
aV\u95fa\u871c
p3769
aV\u5b8c\u6bd5
p3770
aV\u674e\u5a1c
p3771
aV\u78ca\u5929
p3772
aV\u5fc5\u987b
p3773
aVshi
p3774
aV\u63a5\u53d7
p3775
aV\u4ee5\u540e
p3776
aViPad
p3777
aV\u5410\u820c\u5934
p3778
aV\u72d7\u8840
p3779
aV\u5b9d\u8d1d
p3780
aV\u7eaa\u5ff5
p3781
aV\u516c\u91cc
p3782
aV\u6d6e\u5938
p3783
aV\u593a\u51a0
p3784
aV\u5fc3\u7406
p3785
aV\u6c5f\u82cf
p3786
aV\u597d\u6d88\u606f
p3787
aVPassion
p3788
aV\u64b7\u82f1
p3789
aV\u5149\u660e
p3790
aV\u53ef\u6015
p3791
aV\u6606\u660e
p3792
aVgmail
p3793
aV\u975e\u5e38
p3794
aVPS
p3795
aV\u6df1\u5733
p3796
aV\u70b9\u534a
p3797
aV\u4eca\u5929\u4e0b\u5348
p3798
aV\u89c9\u7740
p3799
aV\u7ba1\u7406
p3800
aV\u7089\u77f3
p3801
aV\u8c37\u6b4c
p3802
aV\u7761\u524d
p3803
aV\u56de\u5bb6
p3804
aV\u60b2\u4f24
p3805
aV\u7ffb\u7ffb
p3806
aV\u6bd5\u4e1a\u751f
p3807
aV\u8d28\u91cf
p3808
aV\u6c11\u6cd5
p3809
aV\u89d2\u843d
p3810
aVPK
p3811
aVHappy
p3812
aV\u6240\u6709\u4eba
p3813
aV\u5411\u524d
p3814
aV\u56de\u4e0d\u53bb
p3815
aV\u5927\u5e08
p3816
aV\u5706\u5b50
p3817
aV\u4e00\u96c6
p3818
aV\u53f0\u5317
p3819
aV\u798f\u5229
p3820
aV\u778c\u7761
p3821
aV\u7b7e\u5230
p3822
aV\u6307\u5bfc\u8001\u5e08
p3823
aV\u4f4d\u7f6e
p3824
aV\u6696\u548c
p3825
aV\u618b\u5c48
p3826
aV\u65e0\u6570
p3827
aV\u6653\u5f97
p3828
aV\u5f90\u5bb6\u6c47
p3829
aV\u5f88\u96be
p3830
aV\u5206\u624b
p3831
aV\u7537\u4e3b
p3832
aV\u611f\u4eba
p3833
aV\u91cd\u88c5
p3834
aV\u53d1\u90ae\u4ef6
p3835
aV\u6050\u6016
p3836
aV\u79d1\u6bd4
p3837
aV\u7ae5\u978b
p3838
aV\u70e6\u4eba
p3839
aV\u7cfb\u7edf
p3840
aV\u65e0\u654c
p3841
aVIvy
p3842
aV\u8089\u5939\u998d
p3843
aV\u706b\u5f71
p3844
aV\u6821\u53f2
p3845
aVyuki
p3846
aV\u4e00\u76f4
p3847
aV\u4e0b\u793c\u62dc
p3848
aV\u773c\u524d
p3849
aV\u4ea4\u6613
p3850
aV\u5357\u65b9
p3851
aV\u591a\u597d
p3852
aV\u8bf4\u8bdd
p3853
aV\u770b\u5267
p3854
aVcn
p3855
aV\u7559\u7ed9
p3856
aV\u533a\u522b
p3857
aV\u6bdb\u6bdb
p3858
aV\u4e00\u770b
p3859
aV\u4e00\u5708
p3860
aV\u4e2d\u534e
p3861
aV\u91d1\u878d\u4e2d\u5fc3
p3862
aV\u4e2d\u5348
p3863
aV3G
p3864
aV\u5c0f\u9c7c
p3865
aV\u4e00\u5c81
p3866
aV\u8ff7\u5931
p3867
aV\u6b27\u51a0
p3868
aV\u65e0\u80fd\u4e3a\u529b
p3869
aV\u671f\u5f85
p3870
aV\u5c0f\u7c73
p3871
aV\u751f\u65e5\u5feb\u4e50
p3872
aV\u89e3\u8bf4
p3873
aV\u4ee5\u524d
p3874
aV\u4e07\u6076
p3875
aV\u8f93\u7ed9
p3876
aV\u9898\u76ee
p3877
aV\u5927\u5b66\u751f
p3878
aV\u653e\u97ad\u70ae
p3879
aV\u8fa9\u8bba
p3880
aV\u50f5\u5c38
p3881
aV\u8bba\u6587
p3882
aV\u6700\u9ad8
p3883
aV\u6218\u7565
p3884
aV\u5feb\u5230
p3885
aV\u62ff\u4e0b
p3886
aV\u6536\u62fe
p3887
aV\u5fc3\u75bc
p3888
aV\u4e00\u573a
p3889
aV\u672c\u5b66\u671f
p3890
aV\u8def\u7531\u5668
p3891
aV\u8d5a\u94b1
p3892
aV\u4e00\u773c
p3893
aV\u65e5\u672c
p3894
aV\u4e60\u4e60
p3895
aV\u4eba\u6027
p3896
aV\u7f8e\u5e1d
p3897
aV\u7b11\u70b9
p3898
aV\u73af\u7403
p3899
aV\u5bfb\u627e
p3900
aV\u5468\u5e74
p3901
aV\u953b\u70bc
p3902
aV\u59b9\u59b9
p3903
aV\u66fc\u57ce
p3904
aV\u6709\u4e8b
p3905
aV\u770b\u5230
p3906
aV\u4fdd\u6301
p3907
aV\u4e00\u5757
p3908
aV\u611f\u89c9
p3909
aV\u5341\u4e8c\u70b9
p3910
aV\u67d0\u4e2a
p3911
aV\u53d1\u8868
p3912
aV\u8d8b\u52bf
p3913
aV\u5b66\u751f\u4f1a
p3914
aV\u8981\u4e0d\u7136
p3915
aV\u5c0f\u5c0f
p3916
aV\u5e7f\u5dde
p3917
aV\u6709\u4eba
p3918
aV\u77ed\u4fe1
p3919
aV\u9f20\u6807
p3920
aV\u8111\u5b50\u91cc
p3921
aV\u5609\u5bbe
p3922
aV\u7761\u610f
p3923
aV\u5fcd\u4f4f
p3924
aV3D
p3925
aV\u4ecb\u7ecd
p3926
aV\u96be\u53d7
p3927
aV\u559c\u60a6
p3928
aV\u54ea\u4f4d
p3929
aV\u8857\u5934
p3930
aV\u4e0d\u8fdb
p3931
aV\u8001\u5bb6
p3932
aV\u4e5f\u8bb8
p3933
aV\u51a0\u519b
p3934
aV\u751f\u65e5
p3935
aVRvSl6rG
p3936
aV\u53ef\u4ee5
p3937
aV\u524d\u8fdb
p3938
aV\u5343\u4e07\u522b
p3939
aV\u70c2\u7247
p3940
aV\u97e9\u56fd
p3941
aV\u7ed3\u5c3e
p3942
aV\u889c\u5b50
p3943
aV\u7ec4\u7ec7
p3944
aV\u79cb\u5929
p3945
aV\u5dee\u4e0d\u591a
p3946
aV\u5730\u7403
p3947
aV\u597d\u6000\u5ff5
p3948
aV\u65f6\u95f4
p3949
aV\u5403\u665a\u996d
p3950
aV\u7a7a\u6c14\u8d28\u91cf
p3951
aV\u5357\u660c
p3952
aV\u63a5\u5230
p3953
aV\u592a\u8d5e
p3954
aV\u91cd\u8981
p3955
aV\u8981\u4e0d\u662f
p3956
aV\u5076\u9047
p3957
aV\u73a9\u7b11
p3958
aV\u4e0d\u884c
p3959
aV\u4e07\u80fd
p3960
aV00
p3961
aV\u9648\u8d6b
p3962
aV\u5fcd\u4e0d\u4f4f
p3963
aV\u6708\u4eae
p3964
aV\u6caa\u84c9
p3965
aVPPT
p3966
aV\u600e\u4e48\u529e
p3967
aV\u4fc4\u7f57\u65af
p3968
aV\u80dc\u5229
p3969
aV\u6050\u60e7\u75c7
p3970
aV\u4e2d\u79cb\u8282
p3971
aV\u611f\u6069
p3972
aV\u6bcf\u5468
p3973
aV\u5473\u9053
p3974
aV\u62bd\u9009
p3975
aV\u53d1\u8a93
p3976
aV\u4e2d\u5c71\u8def
p3977
aV\u7acb\u9a6c
p3978
aV\u5c31\u8ba9
p3979
aVv3
p3980
aV\u5b9e\u9a8c
p3981
aV\u725b\u8089
p3982
aV\u7ec8\u6781
p3983
aV\u5927\u4e00
p3984
aV\u6848\u5b50
p3985
aV\u8fd8\u662f
p3986
aV\u529e\u516c\u5ba4
p3987
aV\u5927\u9152\u5e97
p3988
aV\u6bcd\u4eb2
p3989
aV\u5fe7\u6851
p3990
aV\u5c0f\u7c89
p3991
aV\u4e00\u9053
p3992
aV\u67d0\u4e9b
p3993
aV\u7ffb\u76d8
p3994
aV\u523a\u6fc0
p3995
aV\u65b0\u5e74\u597d
p3996
aV\u8ddd\u79bb
p3997
aV\u9003\u79bb
p3998
aV\u6709\u4e2a
p3999
aV\u597d\u5fc3
p4000
aV\u5230\u6765
p4001
aV\u9057\u61be
p4002
aV\u7ed3\u5c40
p4003
aV\u5b9e\u73b0
p4004
aV\u4e0d\u8be5
p4005
aV\u6539\u9769
p4006
aV\u83ab\u540d\u5176\u5999
p4007
aV\u6237\u53e3
p4008
aV\u592a\u68d2\u4e86
p4009
aV\u4e0d\u77e5\u4e0d\u89c9
p4010
aV\u591c\u665a
p4011
aV\u81ea\u7531
p4012
aV\u4e00\u540d
p4013
aV\u5bf9\u65b9
p4014
aV\u4eba\u95f4
p4015
aV\u6b7b\u4ea1
p4016
aV\u6ce1\u9762
p4017
aV\u8b66\u62a5
p4018
aV\u65b0\u95fb\u8054\u64ad
p4019
aV\u963f\u59e8
p4020
aV\u5c24\u5176
p4021
aV\u6765\u8bf4
p4022
aV\u9662\u56e2\u59d4
p4023
aV\u5954\u6ce2
p4024
aV\u9047\u4e0a
p4025
aV\u86cb\u75bc
p4026
aV\u6284\u88ad
p4027
aV\u6652\u592a\u9633
p4028
aV\u957f\u5f97
p4029
aV\u5168\u6c11
p4030
aV\u56de\u5934
p4031
aV\u8fd1\u671f
p4032
aVVictoria
p4033
aV\u8d8a\u72f1
p4034
aV\u665a\u70b9
p4035
aV\u6ca1\u5f97
p4036
aV\u5f39\u5e55
p4037
aV\u5956\u54c1
p4038
aV\u6839\u672c
p4039
aV\u540c\u884c
p4040
aV\u6d6e\u8e81
p4041
aV\u545c\u545c
p4042
aV\u4e0d\u8ba9
p4043
aV\u90b1\u52c7
p4044
aV\u83ab\u540d
p4045
aV\u7b14\u8bd5
p4046
aV\u597d\u4e0d\u597d
p4047
aV\u5c0a\u91cd
p4048
aV\u5c0f\u5f3a
p4049
aV\u6d6e\u4e91
p4050
aV\u6253\u8d25
p4051
aV\u6cd5\u6761
p4052
aV\u4ed6\u4eba
p4053
aV\u6797\u5fd7\u70ab
p4054
aV\u4e0d\u8bba
p4055
aV\u8fd9\u5929
p4056
aV\u653f\u5e9c
p4057
aV\u5fc3\u76ee
p4058
aV\u540c\u6837
p4059
aV\u4e00\u5468
p4060
aV\u9a6c\u822a
p4061
aV\u5e73\u65f6
p4062
aV\u4f5c\u6b7b
p4063
aVCOMhttp
p4064
aV\u5237\u7259
p4065
aV\u6574\u5929
p4066
aV\u559d\u5496\u5561
p4067
aV\u5c0f\u7f16
p4068
aV\u9ad8\u5cf0
p4069
aV\u9694\u58c1
p4070
aV\u5b66\u5230
p4071
aV\u6ee1\u6ee1\u7684
p4072
aV\u52a0\u70b9
p4073
aV\u59cb\u7ec8
p4074
aV\u8fd9\u79cd
p4075
aV\u5e8a\u4e0a
p4076
aV\u98ce\u666f
p4077
aV\u8d77\u552e
p4078
aV\u9053\u5fb7
p4079
aV\u660e\u65e9
p4080
aV\u821e\u8e48
p4081
aV\u611f\u60f3
p4082
aV\u8eab\u4efd\u8bc1
p4083
aV\u897f\u96c5\u56fe
p4084
aV\u660e\u663e
p4085
aV\u8d85\u597d
p4086
aV\u5b89\u68c0
p4087
aV\u9739\u96f3
p4088
aV\u53d8\u5316
p4089
aV\u5373\u5c06
p4090
aV\u6765\u5f97\u53ca
p4091
aV\u660e\u660e
p4092
aV\u5f88\u723d
p4093
aV\u884c\u674e
p4094
aV\u8003\u5b8c
p4095
aV\u5c0f\u5fc3
p4096
aV\u6587\u827a
p4097
aV\u60c5\u4fa3
p4098
aVtmd
p4099
aV\u4e8c\u4e13
p4100
aV\u5230\u5904
p4101
aV\u660e\u661f
p4102
aV\u592a\u4e45
p4103
aV\u516d\u70b9
p4104
aV\u5012\u9709
p4105
aV\u516c\u53f8
p4106
aV\u5728\u610f
p4107
aV\u5bf9\u5f97\u8d77
p4108
aV\u5973\u5b50
p4109
aV\u997f\u6b7b
p4110
aVps
p4111
aV\u671f\u672b\u8003\u8bd5
p4112
aV\u4e00\u5468\u5e74
p4113
aV\u4e5d\u6b7b\u4e0d\u6094
p4114
aV\u62db\u751f
p4115
aV\u7070\u7070
p4116
aV\u4f4e\u843d
p4117
aV\u6210\u5c31
p4118
aV\u5730\u5740
p4119
aV\u5f80\u524d\u8d70
p4120
aV\u70b9\u513f
p4121
aV\u51c6\u5907
p4122
aV\u571f\u8c46
p4123
aV\u539f\u6765
p4124
aV\u7d2f\u6210
p4125
aV\u91d1\u91d1
p4126
aV\u5237\u5237
p4127
aV\u5185\u73af
p4128
aV\u6cb3\u4e1c\u8def
p4129
aV\u5404\u81ea
p4130
aV\u56fd\u9645
p4131
aV\u767b\u5f55
p4132
aV\u4f5c\u54c1\u5c55
p4133
aV\u96be\u9053
p4134
aV\u6c88\u6d77
p4135
aV\u82b1\u513f
p4136
aV\u8ba4\u771f
p4137
aV\u660e\u665a
p4138
aV\u65f6\u9694
p4139
aV\u8be6\u60c5
p4140
aV\u8868\u793a
p4141
aV\u4e0a\u6765
p4142
aV\u8721\u70db
p4143
aV\u4f53\u68c0
p4144
aV\u4ece\u5c0f\u5230\u5927
p4145
aV\u5435\u67b6
p4146
aV\u6307\u5357
p4147
aV\u5b9a\u4f4d
p4148
aV\u53e3\u8bed
p4149
aV\u5b8c\u7ed3
p4150
aV\u62dc\u62dc
p4151
aV\u72ec\u7acb
p4152
aV\u6563\u6b65
p4153
aV\u9ed1\u591c
p4154
aV\u5feb\u9012
p4155
aV\u5173\u6389
p4156
aV\u96be\u71ac
p4157
aV\u6295\u7968
p4158
aV\u897f\u73ed\u7259
p4159
aV\u5df4\u795e
p4160
aV\u597d\u7d2f
p4161
aV\u8fdc\u65b9
p4162
aV\u4e00\u751f
p4163
aV\u603b\u51b3\u8d5b
p4164
aV\u7d2b\u8346
p4165
aV\u751f\u6daf
p4166
aV\u5929\u751f
p4167
aV\u6709\u96e8
p4168
aV\u7b2c\u4e00\u573a
p4169
aV\u5954\u8dd1
p4170
aV\u4e3b\u52a8
p4171
aV\u800c\u4e14
p4172
aV\u56fd\u5e86
p4173
aV\u6570\u5b66
p4174
aV\u591a\u4e45
p4175
aV\u901f\u5ea6
p4176
aV\u5feb\u8239
p4177
aV\u60f3\u592a\u591a
p4178
aV\u4e0b\u6b21
p4179
aV\u5927\u5df4
p4180
aV\u51fa\u79df\u8f66
p4181
aV\u4e2a\u4eba
p4182
aV\u5403\u5b8c\u996d
p4183
aV\u8001\u5988
p4184
aV\u505a\u8fc7
p4185
aV\u7259\u75bc
p4186
aV\u6b21\u6570
p4187
aV\u4e2d\u6c47
p4188
aVOops
p4189
aV\u65b9\u4fbf
p4190
aV\u8d44\u6599
p4191
aV\u7edd\u4e0d
p4192
aV\u60f3\u7740
p4193
aV\u4e8b\u4ef6
p4194
aVbug
p4195
aV\u4e03\u5915
p4196
aV\u5982\u6b64
p4197
aV\u4e03\u5929
p4198
aV\u5927\u653e\u9001
p4199
aV\u53d1\u8868\u6587\u7ae0
p4200
aV\u535a\u58eb
p4201
aV\u5c0f\u4f19\u4f34
p4202
aV\u5730\u56fe
p4203
aVG42
p4204
aV\u7325\u7410
p4205
aV\u5e73\u5b89\u591c
p4206
aV\u5bbf\u820d
p4207
aV\u7761\u9192
p4208
aV\u6628\u5929\u665a\u4e0a
p4209
aV\u9020\u578b
p4210
aV\u4f5c\u606f
p4211
aV\u5176\u4ed6
p4212
aV\u697c\u4e0a
p4213
aV\u697c\u4e0b
p4214
aV\u5947\u8469
p4215
aV\u67ef\u9707\u4e1c
p4216
aV\u4e00\u65e9
p4217
aV\u6d4f\u89c8\u5668
p4218
aV\u6ca1\u5e26
p4219
aV\u517b\u6d3b
p4220
aV\u62a4\u7167
p4221
aV\u4e66\u5446\u5b50
p4222
aV\u6211\u6765
p4223
aVTheClassic
p4224
aVing
p4225
aV\u4e0b\u8bfe
p4226
aV\u8003\u8bd5
p4227
aV\u7591\u95ee
p4228
aV\u5f00\u62a2
p4229
aV\u4e0d\u7ed9\u529b
p4230
aV\u6253\u4e0d\u5f00
p4231
aV\u4e16\u754c\u676f
p4232
aV\u95ee\u95ee
p4233
aV\u5a01\u6b66
p4234
aV46
p4235
aV\u5c0f\u7ec4
p4236
aV\u7535\u68af
p4237
aV40
p4238
aV\u677e\u8fb0
p4239
aV\u4e00\u4e0b\u5b50
p4240
aV\u4eca\u5929\u5929\u6c14
p4241
aV\u4e00\u6bb5\u65f6\u95f4
p4242
aV\u60c5\u4eba
p4243
aV\u59b9\u5b50
p4244
aV\u5feb\u70b9
p4245
aV\u5c45\u7136
p4246
aV\u4e0a\u6620
p4247
aV\u9a82\u4eba
p4248
aV0.1
p4249
aV\u9762\u5305
p4250
aV\u4e3b\u573a
p4251
aV\u822a\u6e21
p4252
aV\u8bba\u575b
p4253
aV\u4e92\u76f8
p4254
aV\u671f\u672b\u8003
p4255
aV\u9119\u89c6
p4256
aV\u653e\u4e0b
p4257
aV\u4e00\u80a1
p4258
aV\u6fc0\u60c5
p4259
aV\u5076\u50cf
p4260
aV\u8001\u5916
p4261
aV4G
p4262
aV\u5408\u4f19\u4eba
p4263
aV\u8033\u673a
p4264
aV\u8461\u8404
p4265
aV\u8001\u5927
p4266
aV\u8001\u5929
p4267
aV\u662f\u5426
p4268
aV\u4e00\u95e8
p4269
aV\u4e70\u70b9
p4270
aV\u4ed6\u4eec
p4271
aV\u591a\u6b21
p4272
aV\u8033\u6735
p4273
aV\u5012\u8ba1\u65f6
p4274
aV\u5973\u5b69
p4275
aV\u52b3\u52a8
p4276
aV\u5927\u5b66\u57ce
p4277
aV\u8001\u5934
p4278
aV\u6000\u5ff5
p4279
aV\u795e\u7ecf\u75c5
p4280
aV\u8d76\u811a
p4281
aV\u6a21\u578b
p4282
aV\u773c\u5149
p4283
a.