(lp0
V\u4e66\u8bb0
p1
aV\u597d\u65e5\u5b50
p2
aV\u5931\u8054
p3
aV\u52b1\u5fd7
p4
aV\u51fa\u6765
p5
aV\u7b2c\u4e8c
p6
aV\u8fd8\u8981
p7
aV\u65b0\u751f
p8
aV\u5e73\u5b89
p9
aV\u8c46\u6d46
p10
aV\u9a91\u8f66
p11
aV120
p12
aV\u559d\u5b8c
p13
aV\u5931\u604b
p14
aV\u5317\u4eac\u5927\u5b66\u56fe\u4e66\u9986
p15
aV\u8ba9\u5ea7
p16
aV\u516d\u4e00
p17
aV\u5e94\u8be5
p18
aV\u60ca\u95fb
p19
aV\u4e00\u95e8
p20
aV\u4ec0\u4e48\u6837
p21
aV\u53d1\u751f
p22
aV\u516d\u4e2a
p23
aV\u5927\u5927\u7684
p24
aV\u4ea4\u6d41
p25
aV\u5bd2\u5047
p26
aV\u5305\u88f9
p27
aV\u505a\u70b9
p28
aV\u6c5f\u6e56
p29
aV\u521d\u4e2d
p30
aV\u670d\u52a1\u5668
p31
aVWind
p32
aV\u91cd\u542f
p33
aV\u592a\u70c2
p34
aV\u60ca\u559c
p35
aV\u7d2b\u91d1\u5c71
p36
aV\u4e0b\u5468
p37
aV\u5144\u5f1f\u59d0\u59b9
p38
aV\u4e24\u5929
p39
aV\u9996\u6b4c
p40
aV\u8fd9\u5e74\u5934
p41
aV\u7bee\u7403
p42
aV\u6cb3\u5317
p43
aV\u54c1\u724c
p44
aV\u54c8\u6c14
p45
aV\u5145\u7535
p46
aV\u9017\u6bd4
p47
aV\u6e38\u6cf3
p48
aV\u7ed9\u6211\u53d1
p49
aV\u96be\u4ee5
p50
aV\u770b\u4f3c
p51
aV\u5173\u7cfb
p52
aV\u5750\u7b49
p53
aV\u4eff\u4f5b
p54
aV\u76f8\u968f
p55
aV\u521b\u4e1a\u8005
p56
aV\u766b\u75eb
p57
aV\u82b1\u5fc3
p58
aVOK
p59
aV\u5410\u8840
p60
aV\u8111\u6b8b
p61
aVdeadline
p62
aV\u6cbb\u6108
p63
aV\u6392\u7248
p64
aV\u5546\u573a
p65
aV\u4e00\u53e3\u6c14
p66
aV\u6781\u54c1
p67
aV\u5750\u5730\u94c1
p68
aV\u6258\u798f
p69
aV\u665a\u4e0a
p70
aV\u4e00\u8f6e
p71
aV\u4e8b\u7269
p72
aV\u89c9\u9192
p73
aV\u5165\u7761
p74
aV\u65e9\u95f4
p75
aV\u7b2c\u4e09
p76
aV\u4e2d\u897f\u533a
p77
aV\u961f\u4f0d
p78
aV\u4ee3\u91d1\u5238
p79
aV\u65b0\u7586
p80
aV49
p81
aV\u53a6\u95e8
p82
aV\u610f\u5473\u7740
p83
aV\u773c\u4e2d
p84
aV\u9a7e\u7167
p85
aV\u59d0\u59d0
p86
aV\u9f3b\u5b50
p87
aV\u770b\u8fc7
p88
aV\u5b9e\u9a8c\u5ba4
p89
aV\u7f8e\u7f8e
p90
aV\u54ce\u5440
p91
aV\u516c\u8def
p92
aV\u4e3a\u4e86
p93
aV\u6280\u672f
p94
aV\u4e25\u8083
p95
aV\u5927\u6218
p96
aV\u540d\u5355
p97
aV\u4eba\u4f1a
p98
aV\u513f\u7ae5\u8282
p99
aV\u60c5\u51b5
p100
aV\u89e3\u51b3\u95ee\u9898
p101
aV\u5965\u4f53
p102
aV\u6444\u5f71
p103
aV\u89c1\u8bc1
p104
aV\u9ad8\u624b
p105
aV\u4f9d\u8d56
p106
aV\u4ee3\u8d2d
p107
aV\u89c1\u8bc6
p108
aV\u4e94\u5e74
p109
aV\u7761\u4e2a
p110
aV\u5728\u5bb6
p111
aV\u4e0d\u7528
p112
aV\u4e00\u70b9\u70b9
p113
aVGRE
p114
aV\u5fb7\u56fd\u961f
p115
aV102
p116
aV100
p117
aV\u56db\u6708
p118
aV\u7f57\u6c38\u6d69
p119
aV\u7ffb\u8bd1
p120
aV\u6b23\u8d4f
p121
aV\u6210\u72d7
p122
aV\u771f\u7279
p123
aV\u65b0\u95fb
p124
aV\u65e0\u5948
p125
aV\u8001\u662f
p126
aV\u82b1\u56ed\u8def
p127
aV\u53ef\u60dc
p128
aV\u4ea7\u54c1
p129
aV\u9f99\u867e
p130
aV\u4e0d\u9519
p131
aV\u5973\u670b\u53cb
p132
aV\u4e22\u5931
p133
aV\u5b89\u9759
p134
aV\u5f80\u5f80
p135
aV\u795e\u519c
p136
aV\u770b\u4e66
p137
aV\u5f88\u957f
p138
aV077
p139
aV\u7ec8\u7a76
p140
aV\u795d\u4f60\u4eec
p141
aV\u8d76\u5feb
p142
aV\u6700\u540e
p143
aV45
p144
aV\u4e00\u5206\u949f
p145
aV\u62ff\u5230
p146
aV\u5446\u5446
p147
aV\u70b9\u6ef4
p148
aV\u8054\u76df
p149
aV\u4e70\u4e70
p150
aV\u4e00\u6b21
p151
aV\u5230\u5bb6
p152
aV\u5e3d\u5b50
p153
aV\u5403\u996d
p154
aV\u5927\u59e8\u5988
p155
aV\u7537\u53cb
p156
aV\u8bdd\u5267
p157
aV\u6253\u54c8\u6b20
p158
aV\u8001\u9f20
p159
aV\u7a7f\u8d8a
p160
aV\u718a\u732b
p161
aV\u661f\u5ea7
p162
aV\u5403\u9971
p163
aV\u636e\u8bf4
p164
aV\u61d2\u89c9
p165
aV\u9524\u5b50
p166
aVmatlab
p167
aV\u4eba\u4eec
p168
aV\u5927\u8857
p169
aV\u906d\u9047
p170
aV\u5217\u8f66
p171
aV\u770b\u4e2a
p172
aV\u5c97\u4f4d
p173
aV\u592a\u51b7
p174
aVhaha
p175
aV\u529f\u80fd
p176
aV\u660e\u65e9
p177
aV\u52ff\u6270
p178
aV\u5fae\u76d8
p179
aV\u6848\u4f8b
p180
aV\u5feb\u4e50
p181
aV\u8003\u751f
p182
aV\u8bfb\u4e66
p183
aV\u4ee5\u4e3a
p184
aV\u6d6a\u8d39\u65f6\u95f4
p185
aV\u8d44\u6599
p186
aVhold
p187
aV\u8d34\u5fc3
p188
aV\u6559\u5e08\u8282
p189
aV\u98ce\u666f
p190
aV\u6b63\u5f0f
p191
aV\u6ee1\u8840
p192
aV\u8fd9\u662f
p193
aV\u4e00\u6b65
p194
aVmm
p195
aV\u5ba2\u670d
p196
aV\u597d\u68d2
p197
aV\u5965\u8fd0
p198
aV\u5e38\u5dde
p199
aV\u505a\u51fa
p200
aV\u53d1\u5446
p201
aV\u4e70\u4e2a
p202
aV\u6211\u5988
p203
aV\u96be\u8fc7
p204
aV\u660e\u5929
p205
aV\u6b27\u6d32
p206
aV\u8299\u84c9\u91cc
p207
aV\u4e2d\u592e
p208
aV\u4f18\u96c5
p209
aV\u51b3\u5fc3
p210
aV\u83ab\u8a00
p211
aV\u7231\u60c5
p212
aV\u665a\u4f1a
p213
aV\u672a\u6765
p214
aV\u60f3\u8981
p215
aV\u5341\u5206
p216
aVLG
p217
aV\u5723\u8bde\u8282
p218
aV\u6e05\u6668
p219
aV\u5143\u5316\u8def
p220
aV\u5237\u5c4f
p221
aV\u8fc7\u7a0b
p222
aV\u53f0\u6e7e
p223
aV\u914d\u5408
p224
aV\u7b2c\u4e00\u6b21
p225
aV\u6539\u53d8
p226
aV\u524d\u8fdb
p227
aV\u4e00\u6bb5
p228
aV\u9006\u5929
p229
aV\u957f\u8005
p230
aV\u8d70\u8def
p231
aV\u8001\u677f
p232
aV\u5fae\u535a\u9886
p233
aV\u5815\u843d
p234
aV\u70b9\u4e2a
p235
aV\u5f88\u8d5e
p236
aV\u7406\u6559
p237
aV\u5835\u5f97
p238
aV\u5077\u4e50
p239
aV\u6821\u56ed
p240
aV\u7ed1\u5b9a
p241
aV\u8de8\u5e74
p242
aV\u5410\u69fd
p243
aV\u5144\u5f1f
p244
aV\u6211\u5927
p245
aV\u7b80\u5355
p246
aV\u751f\u6d3b
p247
aV\u62e5\u62b1
p248
aV\u53d7\u4e0d\u4e86
p249
aV\u79d1\u76ee
p250
aV\u5584\u826f
p251
aVPython
p252
aV\u5165\u624b
p253
aV\u9519\u8bef
p254
aV\u73e0\u6c5f\u8def
p255
aV\u4e0d\u540c
p256
aV......
p257
aV\u5c0f\u5c41\u5b69
p258
aV\u9752\u5c9b
p259
aV\u7545\u6625
p260
aV\u671f\u672b\u8003\u8bd5
p261
aV\u60b2\u5267
p262
aV\u4e0d\u4f1a
p263
aV\u5468\u6770\u4f26
p264
aV__
p265
aV\u90a3\u5929
p266
aV\u867d\u7136
p267
aV\u8d26\u53f7
p268
aV\u6c42\u804c
p269
aV\u670d\u52a1\u5458
p270
aV\u5609\u5e74\u534e
p271
aV\u535a\u6587
p272
aV\u56e2\u59d4
p273
aV\u5567\u5567
p274
aV\u5f52\u6765
p275
aV\u7ca4\u8bed
p276
aV\u65e9\u7761
p277
aV\u95fa\u5973
p278
aV\u7cbe\u529b
p279
aV\u51c6\u65f6
p280
aV\u9047\u5230
p281
aV\u8ba4\u8bc6
p282
aV\u4e1c\u897f
p283
aV\u6574\u6574
p284
aV\u76ae\u80a4
p285
aV\u81ea\u884c\u8f66
p286
aV\u6a21\u5f0f
p287
aV\u8ba4\u8bc1
p288
aVRhpjdBi
p289
aVxb
p290
aV\u9a6c\u5e74
p291
aV\u5370\u8c61
p292
aV\u4e00\u6837
p293
aV\u6c14\u8d28
p294
aV400
p295
aV\u770b\u7535\u89c6
p296
aV\u4e00\u6839
p297
aV\u540e\u6094
p298
aV\u84b2\u71a0\u661f
p299
aV\u534a\u591c
p300
aV\u5357\u5927
p301
aV\u73a9\u6e38\u620f
p302
aV\u6291\u90c1
p303
aV\u4ef7\u503c\u89c2
p304
aV\u6536\u8d2d
p305
aV\u519c\u5386
p306
aV\u516c\u4f17
p307
aV\u624d\u80fd
p308
aV\u773c\u6cea
p309
aV\u62ef\u6551
p310
aV\u6bcf\u6bcf
p311
aV\u51bb\u6210
p312
aV\u5730\u8bf4
p313
aV\u5a92\u4f53
p314
aV\u7070\u673a
p315
aV\u5f97\u77e5
p316
aVAPP
p317
aV\u9c9c\u82b1
p318
aV\u5988\u5988
p319
aV\u66b4\u8d70
p320
aV\u5f88\u5927
p321
aV\u9762\u8bd5
p322
aV\u6c49\u8bed
p323
aV\u534a\u5929
p324
aV\u7a81\u7136
p325
aV\u679c\u65ad
p326
aV\u6e05\u65b0
p327
aV\u660e\u4fe1\u7247
p328
aV\u50cf\u662f
p329
aV\u4e0d\u9760
p330
aV\u96ea\u4eba
p331
aV\u4e0b\u96ea
p332
aV\u9ebb\u75f9
p333
aV\u4e0b\u96e8
p334
aV\u884c\u4e3a
p335
aV\u5947\u5999
p336
aV\u9886\u609f
p337
aV\u62c9\u809a\u5b50
p338
aV\u7238\u7238
p339
aV\u5b66\u6e23
p340
aV\u96be\u602a
p341
aV\u975e\u8981
p342
aV\u56e0\u4e3a
p343
aV\u5904\u5973\u5ea7
p344
aV\u7ecf\u5386
p345
aV\u8bb0\u8005\u56e2
p346
aV\u5e10\u53f7
p347
aV\u6ca1\u4ec0\u4e48
p348
aV\u51b0\u7bb1
p349
aV\u6cd5\u5b98
p350
aV\u9999\u6e2f
p351
aV\u592a\u725b
p352
aV\u4e24\u7bc7
p353
aV\u80b2\u513f
p354
aV\u8def\u7ebf
p355
aV\u5267\u60c5
p356
aV\u5173\u6ce8
p357
aV\u684c\u5b50
p358
aV\u70b9\u8d5e
p359
aV\u5e78\u8fd0
p360
aV\u505a\u5230
p361
aV\u6f14\u6280
p362
aV\u5f00\u5fc3
p363
aV\u963f\u91cc\u5df4\u5df4
p364
aV1500
p365
aV\u8f9c\u8d1f
p366
aV\u6210\u90fd
p367
aV\u5b66\u4e60
p368
aV\u5168\u90e8
p369
aV\u4e4b\u4e00
p370
aV\u592e\u89c6
p371
aV\u65b0\u57ce
p372
aV\u793c\u7269
p373
aV\u7684\u786e
p374
aVBTW
p375
aV\u6c34\u997a
p376
aV\u6765\u770b
p377
aV\u4e2b\u4e2b
p378
aV\u63a5\u8fd1
p379
aV\u7532\u5348\u5e74
p380
aV\u4e0d\u770b
p381
aV\u8111\u6d1e
p382
aV\u4e0b\u96e8\u5929
p383
aV\u6559\u4f1a
p384
aV\u8fde\u7eed
p385
aV\u7fa4\u4f17
p386
aV\u4e0a\u5b66
p387
aVYeeaoohttp
p388
aV\u5bfc\u5e08
p389
aV\u9752\u5e74
p390
aV\u54c8\u4f5b
p391
aV\u54ea\u513f
p392
aV\u5fc5\u6709
p393
aV\u8bad\u7ec3
p394
aV\u8138\u7ea2
p395
aV\u819c\u62dc
p396
aV\u4e0d\u7ecf\u610f
p397
aV\u9002\u5e94
p398
aVRvtNRlR
p399
aV\u6bdb\u75c5
p400
aV\u53e3\u97f3
p401
aV\u4ee3\u4ef7
p402
aV\u6162\u70b9
p403
aV\u6bd4\u4e0d\u4e0a
p404
aV\u5de7\u514b\u529b
p405
aV\u62d6\u978b
p406
aV\u7b2c\u4e00
p407
aV\u53cc\u5341
p408
aV\u821e\u53f0
p409
aV\u597d\u611f
p410
aVdoge
p411
aV\u8d2d\u7269
p412
aV\u5b9e\u4e60\u751f
p413
aV\u51a0\u519b
p414
aV\u9996\u9875
p415
aV\u8ba1\u7b97
p416
aV\u6b21\u6570
p417
aV\u6253\u7403
p418
aV\u5e7c\u513f\u56ed
p419
aV\u7814\u7a76\u751f
p420
aV\u6211\u5bb6
p421
aV\u629b\u5f03
p422
aV\u70e6\u607c
p423
aV\u521d\u8d5b
p424
aV\u5355\u66f2
p425
aV\u4f55\u4ee5
p426
aV\u61c2\u5f97
p427
aV\u7b54\u8fa9
p428
aV\u5173\u5fc3
p429
aV\u52a0\u6cb9
p430
aVBBS
p431
aV\u5e72\u6389
p432
aV\u767e\u5ea6
p433
aV\u6000\u65e7
p434
aV\u6709\u70b9
p435
aV\u65e9\u65e9
p436
aV\u67e5\u770b
p437
aV\u661f\u671f\u4e94
p438
aV\u5fd7\u613f\u8005
p439
aV\u52aa\u529b
p440
aV\u7535\u6c60
p441
aV99
p442
aV\u6218\u7565
p443
aV\u538b\u6291
p444
aV\u5973\u751f\u8282
p445
aV\u793e\u56e2\u6d3b\u52a8
p446
aV\u6d4e\u5357
p447
aV\u4ee3\u7801
p448
aV\u54e5\u4eec
p449
aV\u5916\u5a46
p450
aV\u8c08\u604b\u7231
p451
aV\u767e\u5e74
p452
aV\u6362\u4e2a
p453
aV\u6c34\u5e73
p454
aV\u53e3\u5473
p455
aV\u6bd5\u4e1a\u751f
p456
aV\u8d70\u8fc7
p457
aV\u719f\u6089
p458
aV\u5357\u7ad9
p459
aV\u56fd\u822a
p460
aV\u80a1\u5e02
p461
aV\u968f\u624b
p462
aV\u5927\u8111
p463
aV\u610f\u8bc6
p464
aV\u5b66\u4f1a
p465
aV\u6210\u719f
p466
aV\u5f80\u524d
p467
aV\u6b65\u884c\u8005
p468
aV\u4e0d\u600e\u4e48
p469
aV\u68a6\u89c1
p470
aV\u594b\u6597
p471
aV\u5ea6\u8fc7
p472
aV\u4eba\u6c14
p473
aV\u7fa1\u6155
p474
aV\u540c\u5b66\u805a\u4f1a
p475
aV\u5149\u5927
p476
aV\u6d17\u8138
p477
aV\u9519\u89c9
p478
aV\u5f3a\u58ee
p479
aV\u9645\u534e
p480
aV\u5fd0\u5fd1
p481
aV\u552f\u6709
p482
aV\u8d76\u7d27
p483
aV\u4e2b\u5934
p484
aV\u5c0f\u62bd
p485
aV\u51e0\u5e74
p486
aV\u4f01\u4e1a
p487
aV\u4e8b\u513f
p488
aV\u5c0f\u82b1
p489
aVQQ
p490
aV\u4e56\u4e56
p491
aV\u516c\u4ea4
p492
aV\u591c\u5bb5
p493
aV\u95ea\u7535
p494
aV\u8fd9\u70b9
p495
aV\u4e50\u8da3
p496
aV\u7adf\u7136
p497
aV\u4f55\u4ee5\u582a
p498
aV\u5de8\u6c57
p499
aV\u4e9a\u9a6c\u900a
p500
aV\u54ea\u91cc
p501
aV\u77e5\u679c
p502
aV\u4f1a\u513f
p503
aV\u4f69\u670d
p504
aV\u8fc7\u751f\u65e5
p505
aV\u4e00\u4e0d\u5c0f\u5fc3
p506
aV\u6253\u96f7
p507
aV\u65b0\u56ed
p508
aV\u663e\u793a
p509
aVpku
p510
aV\u59a5\u59a5
p511
aV\u4e00\u4e0b
p512
aV\u5341\u4e8c
p513
aV\u4e09\u5e74
p514
aV\u7559\u7ed9
p515
aV\u5468\u672b
p516
aV\u5e7f\u64ad
p517
aV\u5145\u5b9e
p518
aV\u5f53\u996d
p519
aV\u771f\u7231
p520
aV\u673a\u573a
p521
aV\u8bbe\u8ba1
p522
aV\u771f\u7684
p523
aV\u6d77\u8fb9
p524
aV\u53f0\u8bcd
p525
aV\u4e24\u5206\u949f
p526
aV\u970d\u6bd4\u7279
p527
aV\u725b\u5976
p528
aV\u4e16\u4e8b
p529
aV\u4e00\u4e2a
p530
aV\u767e\u79d1
p531
aV\u5f53\u6210
p532
aV\u5bf9\u5f85
p533
aV\u70b9\u8bc4
p534
aV\u6ee1\u5c4f
p535
aV\u4e00\u4e2d
p536
aV\u516c\u5f00\u8bfe
p537
aV\u5929\u4e0b
p538
aV\u5176\u4ed6
p539
aV\u786e\u8ba4
p540
aV\u611f\u6fc0
p541
aV\u4e0d\u53ef
p542
aV\u6253\u5305
p543
aV\u56fd\u9645\u5408\u4f5c\u90e8
p544
aV\u770b\u7403
p545
aV\u5207\u5c14\u897f
p546
aV\u5f88\u68d2
p547
aV\u60c5\u5546
p548
aV\u8679\u6865
p549
aV\u60ca\u9192
p550
aV\u5317\u4eac\u5927\u5b66
p551
aV\u7f16\u8f91
p552
aV\u5ba2\u6237
p553
aV\u6696\u6c14
p554
aV\u65e5\u5e38
p555
aV\u8425\u4e1a\u5385
p556
aV\u6253\u5361
p557
aV\u6b32\u671b
p558
aV\u5fae\u535a\u662f
p559
aV\u7406\u60f3
p560
aV\u62e5\u6709
p561
aV\u65b0\u5e74
p562
aV\u771f\u76f8
p563
aV\u4e0d\u518d
p564
aV\u62a5\u544a\u5385
p565
aV\u5931\u843d
p566
aV\u653e\u4e0d\u4e0b
p567
aV\u6691\u671f
p568
aV\u505a\u4e2a
p569
aV\u5b89\u5229
p570
aV\u5348\u89c9
p571
aV\u65b0\u8857\u53e3
p572
aV\u7b80\u76f4
p573
aV\u4eca\u513f
p574
aV\u7b2c\u4e00\u4ef6
p575
aV\u60f3\u8c61
p576
aV\u89c2\u70b9
p577
aV\u829d\u58eb
p578
aV\u5ffd\u60a0
p579
aV\u5341\u4e00
p580
aV\u52c7\u6c14
p581
aV\u8bed\u8a00
p582
aV\u4e07\u79d1
p583
aV\u6587\u5316\u8282
p584
aV\u51e0\u5929
p585
aV\u73b0\u5b9e
p586
aVnju
p587
aV\u5b66\u6821
p588
aV\u9636\u6bb5
p589
aV\u5929\u4eae
p590
aV\u62b1\u6b49
p591
aV\u5c0f\u65f6
p592
aVAndroid
p593
aV\u4f53\u529b
p594
aV03
p595
aV00
p596
aV01
p597
aV06
p598
aV\u7b2c\u4e00\u4e2a
p599
aV04
p600
aV05
p601
aV\u4e00\u8eab
p602
aV\u897f\u73ed\u7259
p603
aV09
p604
aV\u597d\u6851\u5fc3
p605
aV\u675c\u53a6
p606
aV\u65e9\u4e0a
p607
aV\u5fc3\u5e95
p608
aV\u7b54\u6848
p609
aV\u9634\u5929
p610
aV\u4e00\u4eba
p611
aV\u7b11\u54c8\u54c8
p612
aV\u7f51\u4e0a
p613
aV\u5973\u6027
p614
aV\u57fa\u91d1
p615
aV360
p616
aV\u5168\u56fd
p617
aV\u5f00\u59cb
p618
aV\u5bb6\u4eba
p619
aV\u60f3\u6cd5
p620
aVboss
p621
aV\u5077\u5077
p622
aV\u6740\u4eba
p623
aV\u5fae\u535a
p624
aV\u4e0d\u7136
p625
aV\u76f8\u7231
p626
aV\u5c0f\u670b\u53cb
p627
aV\u676f\u5b50
p628
aV\u8bf4\u660e
p629
aV\u601d\u60f3
p630
aV\u6821\u53cb
p631
aV\u7c73\u5170
p632
aV\u611a\u8822
p633
aV\u795d\u8d3a
p634
aV\u5341\u4e00\u70b9
p635
aV\u4e00\u4ef6
p636
aV\u5df4\u8428
p637
aV\u65b9\u5411
p638
aV\u8eab\u8fb9
p639
aV\u5237\u591c
p640
aVcom
p641
aV\u6765\u7535
p642
aV\u4e00\u4efd
p643
aV\u5168\u573a
p644
aV\u662f\u4ece
p645
aV\u6ce1\u9762
p646
aV\u8fd9\u624d
p647
aV\u8df3\u821e
p648
aV\u540e\u5929
p649
aV\u80cc\u666f
p650
aV\u5b89\u5353
p651
aV\u8377\u5170
p652
aV\u611f\u5192
p653
aV\u4eba\u8981
p654
aV\u7a97\u5916
p655
aV\u4ee4\u4eba
p656
aV365
p657
aV\u82f1\u6587
p658
aV\u4e00\u4f1a
p659
aV\u5bc2\u5bde
p660
aV\u6653\u4e1c
p661
aV\u534a\u5e74
p662
aV\u745c\u4f3d
p663
aV\u53bf\u9053
p664
aV\u98df\u5802
p665
aV\u8d5b\u5b63
p666
aV\u5b66\u9738
p667
aV\u540e\u679c
p668
aV\u95f9\u949f
p669
aV\u6267\u7740
p670
aV\u7b7e\u8bc1
p671
aV\u671b\u4eac
p672
aV\u600e\u4e48
p673
aV\u641e\u5b9a
p674
aV\u573a\u666f
p675
aV\u673a\u5668
p676
aV\u536b\u89c6
p677
aV\u4e16\u754c\u676f
p678
aVTokyo
p679
aV\u7814\u7a76
p680
aV\u8eab\u4e0a
p681
aV\u4e1c\u4e1c
p682
aV\u611f\u52a8
p683
aV\u4e00\u9897
p684
aV\u4e00\u4f4d
p685
aVdota
p686
aV\u8868\u626c
p687
aV\u5267\u672c
p688
aV\u81ea\u4e60
p689
aV\u4e70\u7968
p690
aV\u90a3\u5e74
p691
aV\u89c1\u4e60
p692
aV\u524d\u4e24\u5929
p693
aV\u4e4b\u65c5
p694
aV\u5565\u4e8b
p695
aV\u5317\u8def
p696
aV\u540c\u884c
p697
aV\u60f3\u8d77
p698
aV\u6b4c\u738b
p699
aV\u626f\u6de1
p700
aV110
p701
aVlxhx
p702
aV\u770b\u4e0d\u5230
p703
aV\u539f\u6765
p704
aV\u8003\u5b8c\u8bd5
p705
aV\u5f1f\u5f1f
p706
aV\u4e00\u5c42
p707
aV\u4ee3\u8868
p708
aV\u4e00\u8f86
p709
aV\u6492\u82b1
p710
aV\u7b2c\u4e09\u5b63
p711
aV\u966a\u4f34
p712
aV\u543c\u543c
p713
aV\u4ece\u6765
p714
aV\u6e29\u67d4
p715
aV\u9884\u611f
p716
aV\u6253\u52a8
p717
aV\u5f00\u9898
p718
aV\u4fe1\u4efb
p719
aV\u5546\u57ce
p720
aV\u83b7\u5f97
p721
aV\u79fb\u52a8
p722
aV\u7cbd\u5b50
p723
aV\u9171\u6cb9
p724
aV\u6c88\u9633
p725
aV\u603b\u51a0\u519b
p726
aV\u848b\u516c
p727
aVV3
p728
aV\u671f\u672b
p729
aV\u672c\u5730
p730
aV\u4e0d\u505c
p731
aV\u65e5\u5fd7
p732
aV\u4e00\u8fb9
p733
aV\u65e9\u70b9
p734
aV\u4ece\u672a
p735
aV\u6ca1\u60f3\u5230
p736
aV\u5728\u7ebf
p737
aV\u8c22\u8c22
p738
aV\u524d\u9762
p739
aV\u641e\u7b11
p740
aV\u76ee\u7684
p741
aV\u9519\u8fc7
p742
aV\u81f3\u4eca
p743
aVVS
p744
aV\u5f55\u97f3
p745
aV\u53d1\u70e7
p746
aV\u998b\u5634
p747
aV\u753b\u9762
p748
aV\u5149\u5934
p749
aV\u5931\u8e2a
p750
aV\u661f\u7a7a
p751
aV\u590d\u6742
p752
aV\u4e3a\u8bc1
p753
aV\u5341\u4f73
p754
aV\u653f\u7b56
p755
aV\u4e1c\u4eac
p756
aV800
p757
aV\u64c2\u4e3b
p758
aV\u5de8\u4eba
p759
aV\u7075\u611f
p760
aV\u6b63\u786e
p761
aV\u624b\u673a
p762
aV\u6709\u592a\u591a
p763
aV\u5305\u5305
p764
aV\u624b\u672f
p765
aV\u4fdd\u7f57
p766
aV\u5b63\u540e\u8d5b
p767
aV\u72d7\u72d7
p768
aV\u822a\u73ed
p769
aV\u4f4d\u65b0
p770
aV\u9009\u62e9
p771
aV\u76f4\u89c6
p772
aV\u91cc\u9762
p773
aV\u513f\u7ae5
p774
aV\u56f4\u89c2
p775
aV\u9644\u8fd1
p776
aV\u7535\u8111
p777
aV\u8bfa\u57fa\u4e9a
p778
aV\u610f\u4e49
p779
aV\u7ed3\u679c
p780
aV\u8774\u8776
p781
aV\u6f02\u4eae
p782
aV\u5317\u4eac
p783
aV\u7b11\u8bdd
p784
aV\u5929\u6c14
p785
aV\u7eaa\u5ff5\u65e5
p786
aV\u6109\u5feb
p787
aV\u75db\u82e6
p788
aV\u6587\u7ae0
p789
aV\u4f18\u9177
p790
aV\u5bbe\u9986
p791
aV\u4e3d\u6c34
p792
aV\u592a\u96be
p793
aV\u4e00\u500b
p794
aV\u65e0\u5fc3
p795
aV\u4e3b\u4eba
p796
aV\u7a0d\u5fae
p797
aViOS
p798
aV\u4e24\u5f20
p799
aV\u7ec6\u8282
p800
aV\u7ebd\u7ea6
p801
aV\u5b89\u500d
p802
aV\u7f8e\u597d
p803
aV\u675c\u5170\u7279
p804
aV\u6539\u540d
p805
aV\u7f8e\u5973
p806
aV\u7ec8\u5c06
p807
aV\u4e0d\u53bb
p808
aV\u6df1\u6df1
p809
aV\u7279\u4e48
p810
aV\u50bb\u7b11
p811
aV\u5f00\u5b66
p812
aV58
p813
aV\u6d77\u6dc0
p814
aV\u7535\u5f71\u9662
p815
aV\u804a\u5230
p816
aV50
p817
aV\u7f8a\u5e74
p818
aV\u54c1\u5473
p819
aV\u5723\u8bde\u5feb\u4e50
p820
aV\u84dd\u5929
p821
aV\u672a\u540d\u6e56\u7554
p822
aV\u90ae\u4ef6
p823
aV\u59ff\u52bf
p824
aV\u53d1\u73b0
p825
aVwww
p826
aV\u65f6\u4ee3
p827
aV\u4eba\u4eba
p828
aVHR
p829
aV\u767b\u673a
p830
aV\u6211\u52d2\u4e2a
p831
aV\u7b14\u8bb0\u672c
p832
aV\u5b64\u72ec
p833
aV\u65b9\u821f\u5b50
p834
aV\u8fd8\u4f1a
p835
aV\u6807\u51c6
p836
aV\u6709\u6728\u6709
p837
aV\u4f1a\u5458
p838
aV\u73bb\u7483\u5fc3
p839
aV\u5b89\u9038
p840
aV\u65ed\u4e1c
p841
aV\u7535\u89c6\u5267
p842
aV\u62a5\u540d
p843
aV\u770b\u89c1
p844
aV\u66f4\u597d
p845
aV\u6821\u5185
p846
aV\u5fc3\u4e2d
p847
aV\u57fa\u53cb
p848
aV\u6ca1\u6709
p849
aV\u611f\u5230
p850
aV\u7f8e\u5999
p851
aV\u73a9\u800d
p852
aV\u6cd5\u5f8b
p853
aV\u5348\u996d
p854
aV\u4e1c\u8def
p855
aV\u8f66\u4e0a
p856
aV\u5927\u7b11
p857
aV\u997a\u5b50
p858
aV\u957f\u6c5f\u8def
p859
aV\u6253\u51fb
p860
aV\u5404\u79cd
p861
aV\u62bd\u5230
p862
aV\u5348\u591c
p863
aV\u4e3b\u89d2
p864
aV\u563b\u563b
p865
aV\u4e0a\u7f51
p866
aV\u5b8c\u5168
p867
aV\u592a\u9633
p868
aV\u5c31\u8981
p869
aV\u5e2e\u5fd9
p870
aV\u57f9\u517b
p871
aV\u5f00\u5f00\u5fc3\u5fc3
p872
aV\u660e\u5e74
p873
aV\u5468\u65e5
p874
aV\u5feb\u8981
p875
aV\u652f\u4ed8\u5b9d
p876
aV\u4ff1\u4e50\u90e8
p877
aV\u88c5\u4fee
p878
aV\u7ed3\u675f
p879
aV\u547d\u8fd0
p880
aV\u683c\u5b50
p881
aV\u62a5\u544a
p882
aV\u76f8\u4f3c
p883
aV\u989c\u503c
p884
aV\u7a0b\u5e8f
p885
aV\u795e\u5668
p886
aV\u5927\u7ed3\u5c40
p887
aV\u51c9\u5feb
p888
aV\u773c\u795e
p889
aV\u6c38\u6052
p890
aV\u5546\u5b66\u9662
p891
aV\u88e4\u5b50
p892
aV\u51b3\u8d5b
p893
aV\u5a31\u4e50
p894
aV\u88c5\u903c
p895
aV\u7eaa\u5f55\u7247
p896
aVNike
p897
aV\u8ba1\u7b97\u673a\u8f85\u52a9
p898
aV\u51cf\u80a5
p899
aV\u7ecf\u5178
p900
aV\u8ff7\u832b
p901
aV\u4e00\u9996\u6b4c
p902
aV\u4e24\u70b9
p903
aV\u600e\u4e48\u6837
p904
aV\u51e0\u6b21
p905
aVppt
p906
aV\u4eac\u4e1c
p907
aV\u9178\u5976
p908
aV\u65e0\u7ebf
p909
aV\u8fd9\u91cc
p910
aV\u6ce8\u5b9a
p911
aV\u89e3\u91ca
p912
aV\u4e0a\u7ebf
p913
aV\u706b\u9505
p914
aV\u9009\u8bfe
p915
aV\u7761\u89c9
p916
aV\u4e0b\u5348
p917
aV\u51ac\u5929
p918
aV\u5b89\u5168
p919
aV\u6700\u7231
p920
aV\u6cd5\u5e08
p921
aV\u4e0b\u5355
p922
aV\u4f53\u80b2
p923
aVNBA
p924
aV\u8868\u6001
p925
aV\u6570\u636e
p926
aV\u4e5f\u7f62
p927
aVhappy
p928
aV\u89c6\u9891
p929
aV\u56f0\u5f97
p930
aVoffer
p931
aV\u611f\u53d7
p932
aV\u5931\u671b
p933
aV\u6210\u957f
p934
aV\u975e\u5e38\u611f\u8c22
p935
aV\u4fbf\u662f
p936
aV\u6324\u773c
p937
aV\u60b2\u54c0
p938
aV\u9a97\u5b50
p939
aV\u89e3\u51b3
p940
aV\u65b0\u7248
p941
aV\u656c\u4e1a
p942
aV\u5669\u68a6
p943
aV\u611f\u53f9
p944
aVHK
p945
aV\u6709\u94b1
p946
aV\u5e78\u798f\u611f
p947
aV\u662f\u4e0d\u662f
p948
aV\u810a\u67f1
p949
aV\u8b66\u5bdf
p950
aV\u5929\u8d4b
p951
aV\u751f\u5feb
p952
aV\u4e00\u8d77
p953
aV\u6674\u5929
p954
aV\u8ddf\u4e0d\u4e0a
p955
aV\u8111\u888b
p956
aV\u773c\u955c
p957
aV\u6280\u80fd
p958
aV\u6587\u5b57
p959
aV\u4e0a\u5e1d
p960
aV\u7ec3\u4e60
p961
aV\u6bcf\u4e2a
p962
aV\u5927\u5409
p963
aV\u6821\u56ed\u5361
p964
aV\u6740\u624b
p965
aV\u667a\u6167
p966
aV\u7a3f\u5b50
p967
aV\u4e0b\u73ed
p968
aV\u8fd9\u4e48\u665a
p969
aV\u9ebb\u70e6
p970
aV\u5b69\u7eb8
p971
aV\u5730\u4e0a
p972
aV\u5357\u4eac\u5927\u5c60\u6740
p973
aV\u957f\u6625
p974
aV\u5e26\u611f
p975
aV\u7f51\u8d2d
p976
aV\u4e3e\u62a5
p977
aV\u5218\u7fd4
p978
aV\u5c0f\u9f99\u867e
p979
aV\u7535\u5b50\u7248
p980
aV\u793e\u4ea4
p981
aVnb
p982
aV\u8868\u767d
p983
aV\u5fd8\u5e26
p984
aV\u4e3b\u6301
p985
aV\u8c03\u67e5
p986
aV\u513f\u5b50
p987
aV\u65e0\u6240\u8c13
p988
aV\u6587\u5b66
p989
aV\u597d\u6587
p990
aV\u79d2\u6740
p991
aV\u73a9\u610f
p992
aVtest
p993
aVTracy
p994
aV\u5e72\u676f
p995
aV\u9f3b\u5c4e
p996
aVJOJO
p997
aV\u5c31\u4e1a
p998
aV\u5bb3\u7f9e
p999
aV\u4e5d\u6b7b\u4e0d\u6094
p1000
aV\u4e0d\u7231
p1001
aV\u80af\u5b9a
p1002
aV\u4e0b\u53bb
p1003
aV\u96f7\u9635\u96e8
p1004
aV\u6765\u5230
p1005
aV\u7ecf\u6d4e
p1006
aV\u8054\u901a
p1007
aV98
p1008
aV\u4f7f\u7528
p1009
aV\u4e00\u8def
p1010
aV\u4e09\u5929
p1011
aV\u6027\u611f
p1012
aV\u6628\u5929
p1013
aV\u4e92\u8054\u7f51
p1014
aV\u4f53\u91cd
p1015
aV\u7f8e\u98df
p1016
aV\u7537\u751f
p1017
aV\u6bd4\u5982
p1018
aV\u897f\u8857
p1019
aV\u4e09\u5927
p1020
aV\u8868\u60c5
p1021
aV\u5eb7\u6865
p1022
aV\u58a8\u8ff9
p1023
aV\u61d2\u60f0
p1024
aV\u770b\u6765
p1025
aV\u4ee5\u6765
p1026
aV\u516c\u6c11
p1027
aV\u540e\u6eaa
p1028
aV\u8bfe\u8868
p1029
aV90
p1030
aV\u9001\u7ed9
p1031
aV1http
p1032
aV\u5207\u514b
p1033
aV\u6f47\u6d12
p1034
aV\u6e10\u6e10
p1035
aV\u53f7\u7801
p1036
aV\u5b8c\u7f8e
p1037
aV\u901a\u77e5
p1038
aV\u5371\u673a
p1039
aV\u8868\u6f14
p1040
aV\u5f53\u4e0b
p1041
aV\u901a\u8baf\u5f55
p1042
aV\u59d4\u5c48
p1043
aV\u9762\u819c
p1044
aVFacebook
p1045
aV\u73b0\u5728
p1046
aV\u6253\u5f00
p1047
aV\u53ef\u7231
p1048
aV\u521a\u624d
p1049
aV\u670d\u52a1
p1050
aV\u8bb0\u5f55
p1051
aV\u6797\u6b4c
p1052
aV\u868a\u5b50
p1053
aV\u5fc3\u60c5
p1054
aV\u4e00\u6b65\u4e4b\u9065
p1055
aV\u897f\u8def
p1056
aV\u963f\u6839\u5ef7
p1057
aV\u9ed8\u9ed8
p1058
aV\u5927\u53d4
p1059
aVword
p1060
aV\u8089\u5305
p1061
aV\u6ca1\u89c1
p1062
aVdin
p1063
aV\u98a0\u8986
p1064
aV\u4e94\u56db
p1065
aV\u5feb\u6765
p1066
aV\u5f02\u5e38
p1067
aV\u5e73\u53f0
p1068
aV\u5bb6\u91cc
p1069
aV\u624b\u8d31
p1070
aV\u7984\u53e3
p1071
aVnozuonodie
p1072
aV\u4f9d\u65e7
p1073
aV\u8eab\u6750
p1074
aV\u610f\u5927\u5229
p1075
aV\u6570\u72ec
p1076
aV\u6cf3\u6c60
p1077
aV\u4f01\u4e1a\u5bb6
p1078
aV\u604d\u60da
p1079
aVbd
p1080
aV\u8868\u8fbe
p1081
aV\u5c11\u5e74
p1082
aV\u8fc7\u671f
p1083
aVsigh
p1084
aV\u5fc3\u6001
p1085
aV\u4f24\u4e0d\u8d77
p1086
aV\u518d\u8bf4
p1087
aV\u5357\u71d5
p1088
aV\u77e5\u8bc6\u4ea7\u6743
p1089
aV\u5a01\u864e\u5c71
p1090
aV\u5306\u5306
p1091
aV\u8f6c\u53d1
p1092
aV\u9707\u60ca
p1093
aV\u897f\u8d21
p1094
aV\u8ddf\u7740
p1095
aV\u7701\u94b1
p1096
aVcnBeta
p1097
aV\u68d2\u5b50
p1098
aV\u4eba\u6709
p1099
aV\u597d\u591a\u597d\u591a
p1100
aV\u540d\u5b57
p1101
aV\u5fb7\u6bd4
p1102
aV\u6298\u817e
p1103
aV\u5348\u7761
p1104
aV\u91d1\u878d
p1105
aV\u4e00\u90e8\u5206
p1106
aV\u79d1\u6bd4
p1107
aV\u4eba\u6765
p1108
aV\u6c11\u4e3b
p1109
aV\u8bbf\u8c08
p1110
aV\u90a3\u53e5
p1111
aV\u540c\u65f6
p1112
aV\u65e0\u5173
p1113
aV\u7ed9\u529b
p1114
aV\u6f20\u6657\u6db5
p1115
aV\u8bb0\u5fc6
p1116
aV\u610f\u5916
p1117
aV\u8bfb\u4e66\u4f1a
p1118
aV\u591a\u5c11
p1119
aV\u4f20\u5947
p1120
aV\u6211\u5011
p1121
aVMD
p1122
aV\u505c\u4e0b\u6765
p1123
aVMM
p1124
aV\u5f00\u5934
p1125
aV\u5f00\u95e8
p1126
aV\u7236\u6bcd
p1127
aV\u8fd9\u8fb9
p1128
aV\u8fc7\u6765
p1129
aV\u5c0f\u7ec4
p1130
aV\u5e74\u7eaa
p1131
aV\u5783\u573e
p1132
aV\u665a\u62a5
p1133
aV\u5e74\u5ea6
p1134
aV\u63a8\u9001
p1135
aV\u653e\u5728
p1136
aV\u771f\u5b9e
p1137
aV\u9019\u500b
p1138
aV\u539f\u4f5c\u8005
p1139
aV\u8bdd\u7b52
p1140
aV\u96f7\u950b
p1141
aV\u9a6c\u6765\u897f\u4e9a
p1142
aVipo
p1143
aV\u672c\u8eab
p1144
aV\u604b\u7231
p1145
aV\u8bd5\u7528
p1146
aV\u5c5e\u4e8e
p1147
aV\u6539\u7b7e
p1148
aV\u75af\u72c2
p1149
aV\u5973\u751f
p1150
aV\u4ef7\u683c
p1151
aV\u5927\u8f6c\u76d8
p1152
aV\u5357\u4eac\u7ad9
p1153
aV\u7238\u5988
p1154
aV\u521b\u65b0
p1155
aV\u6307\u6570
p1156
aV\u590d\u65e6
p1157
aV\u8ba1\u7b97\u673a
p1158
aV\u897f\u74dc
p1159
aV\u597d\u6000\u5ff5
p1160
aV\u5f00\u542f
p1161
aVHello
p1162
aV\u4e00\u5927\u5806
p1163
aV\u5317\u5927\u8857
p1164
aV\u6c5f\u82cf\u7701
p1165
aV\u59da\u4e39
p1166
aV\u5b9e\u4e60
p1167
aVOyoung
p1168
aV\u5e7b\u60f3
p1169
aV\u6559\u6388
p1170
aV\u8fd9\u4e0b
p1171
aV\u6b63\u5728
p1172
aV\u7c89\u4e1d
p1173
aV\u5b89\u5168\u611f
p1174
aV\u590f\u5929
p1175
aV\u65e9\u5c31
p1176
aV\u963f\u68ee\u7eb3
p1177
aV\u79d1\u5e7b
p1178
aV\u65e5\u665a
p1179
aV\u6bd5\u7adf
p1180
aV\u6d41\u91cf
p1181
aV\u5934\u53d1
p1182
aV\u996e\u6599
p1183
aV\u656c\u8bf7\u671f\u5f85
p1184
aV\u51fa\u6e38
p1185
aV\u56de\u5bb6\u8def\u4e0a
p1186
aV\u51e4\u51f0
p1187
aV\u8fd9\u4e2a
p1188
aV\u51fa\u56fd
p1189
aV\u65b9\u6cd5
p1190
aV\u8ba1\u91cf
p1191
aV\u4e2d\u56fd\u8054\u901a
p1192
aV\u897f\u5357
p1193
aV\u5173\u95e8
p1194
aV\u9a6c\u7532
p1195
aV\u6c38\u8fdc
p1196
aV\u7b2c\u4e8c\u5b63
p1197
aV\u820d\u53cb
p1198
aV\u4e8b\u5b9e
p1199
aV\u5c31\u662f
p1200
aV\u592a\u597d
p1201
aV\u90a3\u4e00\u523b
p1202
aV\u7fbd\u6bdb\u7403
p1203
aViPhone6
p1204
aV\u54ea\u5bb6
p1205
aV\u4ece\u6b64
p1206
aV\u7537\u5b69
p1207
aV\u5b9e\u51b5
p1208
aV\u7545\u6625\u56ed
p1209
aV\u56de\u4e8b
p1210
aV\u80af\u5fb7\u57fa
p1211
aV\u626c\u5dde
p1212
aV\u5b89\u5fc3
p1213
aV\u60ca\u5446
p1214
aV\u4f11\u606f
p1215
aV\u5df4\u897f
p1216
aV\u6709\u7a7a
p1217
aVIrisLee
p1218
aV\u6821\u5e86
p1219
aV\u638c\u63e1
p1220
aV\u7f8e\u7684
p1221
aV\u597d\u4e45\u6ca1
p1222
aV\u505c\u8f66
p1223
aV\u4e61\u9053
p1224
aV\u56de\u4eac
p1225
aV\u5173\u952e
p1226
aV\u8fdb\u6b65
p1227
aV\u535a\u4e3b
p1228
aV\u559c\u6b22
p1229
aV\u822a\u7ad9\u697c
p1230
aV\u8fd9\u4ef6
p1231
aV\u541b\u5b50
p1232
aV\u9884\u6d4b
p1233
aV140
p1234
aV\u9ebb\u9ebb
p1235
aV\u56de\u7b54
p1236
aV\u540e\u4f1a\u65e0\u671f
p1237
aV\u597d\u597d\u5b66\u4e60
p1238
aV\u52a8\u4f5c
p1239
aV\u518d\u6709
p1240
aV\u8fd9\u4e9b
p1241
aV\u7f8e\u56fd
p1242
aV\u592a\u592a
p1243
aV\u5149\u534e
p1244
aV\u8fd0\u52a8
p1245
aV\u592a\u5927
p1246
aV\u77e5\u8db3
p1247
aV\u795e\u5947
p1248
aV\u505a\u996d
p1249
aV\u9152\u5e97
p1250
aV\u592a\u591a
p1251
aV\u57ce\u5e02
p1252
aV\u65e9\u4e0a\u597d
p1253
aV\u62d3\u5c55
p1254
aV\u4e2d\u67aa
p1255
aV\u60f3\u8c61\u529b
p1256
aV\u81ea\u62cd
p1257
aV\u4e00\u77ac\u95f4
p1258
aV\u8bc4\u8bba
p1259
aV\u6d4b\u8bd5
p1260
aV\u5907\u8bfe
p1261
aVsb
p1262
aV\u601d\u8def
p1263
aV\u5357\u6c60\u5b50
p1264
aV\u542c\u542c
p1265
aV\u58c1\u7403
p1266
aV\u771f\u9898
p1267
aV\u5b9d\u5b9d
p1268
aV\u804c\u4e1a\u89c4\u5212
p1269
aV\u5168\u8eab
p1270
aV\u5206\u949f
p1271
aV\u5d07\u62dc
p1272
aV\u6709\u79cd
p1273
aV\u610f\u89c1
p1274
aV\u5408\u9002
p1275
aV\u7ee7\u7eed
p1276
aV\u809a\u5b50
p1277
aVRT
p1278
aV\u5973\u4eba
p1279
aV\u77e5\u4e4e
p1280
aVRP
p1281
aV\u5ba4\u53cb
p1282
aV\u4e0a\u53bb
p1283
aV\u4e0d\u5fcd
p1284
aV\u529b\u6c14
p1285
aV\u5c3c\u739b
p1286
aV\u6e7e\u4ed4\u533a
p1287
aV\u4e2a\u4eba
p1288
aV\u56de\u8d2d
p1289
aVWTF
p1290
aV\u5317\u7f8e
p1291
aV\u5f00\u573a
p1292
aV\u8003\u7814
p1293
aV\u81f3\u5c11
p1294
aV\u4f5c\u7528
p1295
aV\u65c5\u884c
p1296
aV\u5f00\u7740
p1297
aV\u673a\u7968
p1298
aV\u4e0a\u534a\u573a
p1299
aV\u65e9\u7761\u65e9\u8d77
p1300
aV2015
p1301
aV\u5bb6\u5ead
p1302
aV\u5199\u7ed9
p1303
aV\u5934\u50cf
p1304
aV\u593a\u51a0
p1305
aV\u4ece\u6765\u4e0d
p1306
aV\u5c0f\u80d6
p1307
aV\u8fd9\u8f88\u5b50
p1308
aVdown
p1309
aV\u827e\u739b
p1310
aV\u6708\u997c
p1311
aV\u6ee1\u5206
p1312
aVCOMhttp
p1313
aV\u8f6f\u5de5
p1314
aV\u8fd9\u8d27
p1315
aV\u8fc7\u4e2a
p1316
aV\u4e0a\u73ed
p1317
aV\u4e0d\u5f97
p1318
aV12306
p1319
aV25
p1320
aV\u4e00\u6574\u5929
p1321
aV\u5386\u5e74\u8bd5\u9898
p1322
aV\u5e73\u51e1
p1323
aV\u6559\u80b2
p1324
aV\u5e73\u9759
p1325
aV\u9b54\u9b3c
p1326
aV\u602a\u517d
p1327
aV\u7537\u670b\u53cb
p1328
aV\u91cd\u5ea6
p1329
aV\u5f81\u96c6
p1330
aV\u6211\u7279
p1331
aV\u8ffd\u5c3e
p1332
aV\u6700\u7f8e
p1333
aV\u5317\u4eac\u897f\u7ad9
p1334
aV\u4efb\u52a1
p1335
aV\u6e05\u660e
p1336
aV\u4fe1\u5ff5
p1337
aV\u8349\u6ce5\u9a6c
p1338
aV\u624b\u6bb5
p1339
aV\u6d6a\u6f2b
p1340
aV\u4eba\u53bb
p1341
aV\u5c0f\u8bf4
p1342
aV\u71ac\u591c
p1343
aV\u8fdb\u884c
p1344
aV\u5973\u4e3b
p1345
aV\u9084\u662f
p1346
aV\u5927\u534a\u591c
p1347
aV\u91cd\u5e86
p1348
aV\u518d\u89c1
p1349
aV\u9ed1\u6697
p1350
aV\u5929\u6d25
p1351
aV\u6a21\u578b
p1352
aV\u9ad8\u6821
p1353
aV\u7edd\u5bf9
p1354
aV\u5b9e\u8df5
p1355
aV\u6625\u8282
p1356
aV\u5f31\u5f31
p1357
aV\u806a\u660e
p1358
aV\u8ba1\u5212
p1359
aV\u98df\u7269
p1360
aV\u591a\u5e74
p1361
aV\u7528\u5fc3
p1362
aV\u592a\u68d2\u4e86
p1363
aV\u7f16\u7a0b
p1364
aVorz
p1365
aV\u559d\u9152
p1366
aV\u6211\u7238
p1367
aV\u8bbe\u8ba1\u5e08
p1368
aV\u8bdd\u9898
p1369
aV\u552f\u4e00
p1370
aV\u52a8\u6f2b
p1371
aV\u4e0a\u5348
p1372
aV\u5f71\u89c6
p1373
aV\u8fc7\u654f
p1374
aV\u4e0d\u592a\u597d
p1375
aV\u4f20\u64ad
p1376
aV\u5c4f\u5e55
p1377
aV\u4e00\u5207\u987a\u5229
p1378
aV\u8bed\u5f55
p1379
aV\u72fc\u56fe\u817e
p1380
aV\u90a3\u91cc
p1381
aV\u624d\u884c
p1382
aVApp
p1383
aV\u6211\u521a
p1384
aV\u5458\u5de5
p1385
aV\u5355\u4f4d
p1386
aV\u6c64\u5706
p1387
aV\u4e94\u89d2\u573a
p1388
aV\u4ea4\u901a
p1389
aV\u6253\u7535\u8bdd
p1390
aV\u6700\u597d
p1391
aV1001
p1392
aV1000
p1393
aV\u8bed\u6587
p1394
aVxi
p1395
aV\u8054\u7cfb
p1396
aV\u7b49\u5f85
p1397
aV\u51bb\u6b7b
p1398
aV\u65e0\u52a9
p1399
aVxx
p1400
aV\u9700\u8981
p1401
aV\u8f9e\u804c
p1402
aV\u6b64\u523b
p1403
aV\u5355\u8eab
p1404
aV\u96f6\u70b9
p1405
aV\u88d9\u5b50
p1406
aV\u62f3\u5934
p1407
aV\u6211\u53d1
p1408
aV\u505c\u7535
p1409
aV\u6cd5\u5219
p1410
aV23
p1411
aV\u4fdd\u4f51
p1412
aV\u60a3\u8005
p1413
aV\u5c0f\u59d1\u5a18
p1414
aV\u5ba3\u8bb2\u4f1a
p1415
aV\u7b2c\u4e8c\u5929
p1416
aV\u4e16\u95f4
p1417
aV\u5927\u6982
p1418
aV\u65e0\u529b
p1419
aV\u653e\u5f03
p1420
aV\u54b1\u4eec
p1421
aV\u5730\u4ea7
p1422
aV\u8ba8\u8bba
p1423
aV\u4e25\u91cd
p1424
aV\u7efd\u653e
p1425
aV\u8611\u83c7
p1426
aV\u788e\u89c9
p1427
aV\u5356\u840c
p1428
aV\u62a2\u7ea2\u5305
p1429
aV\u5feb\u6a02
p1430
aV\u884c\u52a8
p1431
aV\u672c\u79d1
p1432
aV\u7f8e\u5473
p1433
aV\u6b64\u5fae\u535a
p1434
aV11
p1435
aV10
p1436
aV13
p1437
aV12
p1438
aV\u51e0\u96c6
p1439
aV14
p1440
aV17
p1441
aV16
p1442
aV19
p1443
aV18
p1444
aV\u6bcf\u5e74
p1445
aV\u9a91\u884c
p1446
aV\u76f4\u64ad
p1447
aV\u767e\u5408
p1448
aV\u603b\u4f1a
p1449
aV\u7889\u5821
p1450
aVPassion
p1451
aV\u5ea7\u4f4d
p1452
aV\u82f1\u8bed
p1453
aV\u8dea\u6c42
p1454
aV\u6c34\u90e1
p1455
aVpre
p1456
aV\u827e\u7279
p1457
aV\u53e3\u7f69
p1458
aVDJ
p1459
aV\u897f\u6e38
p1460
aV\u62db\u8058
p1461
aV\u4e16\u754c
p1462
aV\u65e5\u672c
p1463
aVout
p1464
aV\u5012\u65f6\u5dee
p1465
aV\u6a59\u5b50
p1466
aV\u575a\u5b9a
p1467
aV\u5b98\u7f51
p1468
aV\u5361\u897f
p1469
aV\u5b66\u672f
p1470
aV\u7126\u8651
p1471
aV\u7ec4\u5408
p1472
aV\u91d1\u5c1a
p1473
aV\u5fcd\u53d7
p1474
aV\u5b66\u671f
p1475
aV\u9178\u75db
p1476
aV\u4ed8\u8d39
p1477
aV\u7537\u795e
p1478
aV\u62a4\u7167
p1479
aV\u9738\u6c14
p1480
aV\u7403\u738b
p1481
aV200
p1482
aV\u4e2d\u6587
p1483
aV\u627e\u5230
p1484
aV\u6700\u7ec8
p1485
aV\u4eba\u6d3b
p1486
aV\u4e2a\u8d5e
p1487
aV\u62dc\u6258
p1488
aV\u56fe\u4e66\u9986
p1489
aV\u70b9\u534a
p1490
aV\u592a\u5751
p1491
aV\u521a\u521a
p1492
aV\u4f5c\u54c1
p1493
aV\u8d85\u5e02
p1494
aV\u5973\u53cb
p1495
aV\u771f\u597d
p1496
aV\u613f\u671b
p1497
aV\u7b49\u4e8e
p1498
aV\u8033\u6735
p1499
aV\u54ea\u4e9b
p1500
aV\u6bcf\u4efd
p1501
aV\u8fdf\u5230
p1502
aV\u9664\u4e86
p1503
aV\u52a9\u624b
p1504
aV\u4e7e\u5e0c
p1505
aV\u5c06\u6765
p1506
aV\u9634\u9669
p1507
aV\u5230\u5e95
p1508
aV\u5355\u7eaf
p1509
aV\u521a\u5230
p1510
aV\u539f\u56e0
p1511
aV\u4e0d\u77e5
p1512
aV\u63d2\u4ef6
p1513
aVQAQ
p1514
aV\u56fd\u8db3
p1515
aV\u6bd4\u7279
p1516
aV\u5fc3\u7406\u5b66
p1517
aV\u6253\u7b97
p1518
aV\u62dc\u4ec1
p1519
aV2016
p1520
aV\u5927\u4eba
p1521
aV\u6d17\u4e2a
p1522
aV\u6c99\u9f99
p1523
aV\u5f7c\u6b64
p1524
aV\u7403\u5458
p1525
aV\u65e9\u996d
p1526
aV\u582a\u5fe7
p1527
aV\u672c\u5ea7
p1528
aV\u78b0\u5230
p1529
aV\u6700\u5927
p1530
aV\u6807\u7b7e
p1531
aV\u5730\u65b9
p1532
aV\u813e\u6c14
p1533
aV\u654f\u611f
p1534
aV\u8bb2\u5ea7
p1535
aV\u65c5\u6e38
p1536
aV\u5927\u4e8c
p1537
aV\u5927\u4e8b
p1538
aV\u53ea\u597d
p1539
aV\u6ee1\u5929\u661f
p1540
aV\u5f3a\u5927
p1541
aV\u653f\u6cbb
p1542
aV\u7b11\u50b2\u6c5f\u6e56
p1543
aV\u79cb\u88e4
p1544
aV\u6bcf\u65e5
p1545
aV\u5f3a\u8feb\u75c7
p1546
aV\u8f6c\u5708
p1547
aV\u8054\u7cfb\u65b9\u5f0f
p1548
aV\u534e\u4e3a
p1549
aV\u597d\u4e66
p1550
aV\u7ec4\u4f1a
p1551
aV\u534e\u4e3d
p1552
aV\u79d1\u5b66
p1553
aV\u4e00\u665a
p1554
aV\u53d1\u7968
p1555
aV\u9890\u548c\u56ed
p1556
aV\u5c0f\u5b69\u5b50
p1557
aV\u4e13\u4e1a
p1558
aV\u8fd0\u6c14
p1559
aV\u7eb8\u724c
p1560
aV\u4e0d\u5982
p1561
aV\u8fd9\u6b21
p1562
aV\u65e9\u9910
p1563
aV\u5b89\u7a33
p1564
aV\u53ea\u8981
p1565
aV\u597d\u4e45
p1566
aV\u5f88\u60f3
p1567
aV\u6728\u6709
p1568
aV\u8303\u513f
p1569
aV\u597d\u4e8b
p1570
aV\u6bd4\u5206
p1571
aV\u5fae\u535a\u4e0a
p1572
aV\u8f6c\u773c
p1573
aV\u76f4\u63a5
p1574
aV\u75b2\u60eb
p1575
aV\u7535\u8bdd
p1576
aV\u6b27\u8036
p1577
aV\u65e0\u9521
p1578
aV\u7b80\u5386
p1579
aV##
p1580
aV\u5367\u69fd
p1581
aV\u5c0f\u4f19\u4f34
p1582
aV\u56fd\u8d38
p1583
aV\u597d\u4eba
p1584
aV\u4e00\u5929\u5929
p1585
aV\u6700\u8fd1
p1586
aV\u4e0d\u597d
p1587
aV\u5fae\u7b11
p1588
aV\u516c\u4ea4\u8f66
p1589
aVweibo
p1590
aV\u7f51\u6613
p1591
aV\u597d\u5f00\u5fc3
p1592
aV\u9ad8\u4e2d
p1593
aV\u670b\u53cb
p1594
aV\u771f\u4e0d\u9519
p1595
aV\u6d66\u4e1c
p1596
aV\u5149\u9634
p1597
aV\u5357\u95e8
p1598
aV\u4fe1\u79d1
p1599
aV\u4e5d\u4e61
p1600
aV\u5b66\u8005
p1601
aV\u4f53\u9a8c
p1602
aV\u8d8a\u6765\u8d8a
p1603
aV\u8bc4\u4ef7
p1604
aV\u5965\u7279\u66fc
p1605
aV\u5e02\u573a
p1606
aV\u4e2d\u5927\u5956
p1607
aV\u5e95\u7ebf
p1608
aV\u4f4d\u7f6e
p1609
aV\u5012\u6570
p1610
aV\u5148\u751f
p1611
aV\u9879\u76ee
p1612
aV\u65b0\u6625\u5feb\u4e50
p1613
aV\u5bf9\u9762
p1614
aV\u4e24\u5e74
p1615
aV26
p1616
aV\u4e0d\u592a
p1617
aV\u6076\u5fc3
p1618
aV\u9053\u8def
p1619
aV\u66f2\u5947
p1620
aV\u6210\u7ee9
p1621
aV\u5408\u96c6
p1622
aV\u5bb6\u957f
p1623
aV\u52a9\u6559
p1624
aV\u8282\u65e5
p1625
aV\u751f\u547d
p1626
aV\u4e8b\u60c5
p1627
aV\u5b63\u8282
p1628
aV\u4ece\u4e0d
p1629
aV\u62b5\u5236
p1630
aV\u592a\u5c11
p1631
aV\u6bd5\u4e1a\u5178\u793c
p1632
aV\u5976\u8336
p1633
aV\u54ea\u6015
p1634
aV\u800c\u5df2
p1635
aV\u4e0d\u591f
p1636
aV\u5357\u4eac\u5927\u5b66
p1637
aV\u5976\u5976
p1638
aV\u4e24\u5468
p1639
aV150
p1640
aV\u623f\u4ef7
p1641
aV\u7761\u4e0d\u7740
p1642
aV\u7ecf\u6d4e\u5b66
p1643
aV\u6295\u8d44
p1644
aV60
p1645
aV\u96e8\u67ab
p1646
aV\u5ffd\u7136
p1647
aV\u82f1\u8d85
p1648
aV\u8fc7\u8282
p1649
aV\u6c14\u6e29
p1650
aV\u5f00\u901a
p1651
aV\u4e94\u56db\u8def
p1652
aV\u51e0\u70b9
p1653
aV\u4e00\u671f
p1654
aV\u5e7f\u573a
p1655
aV\u6253\u724c
p1656
aV\u5929\u671d
p1657
aV\u570b\u7acb
p1658
aV\u6d17\u6fa1
p1659
aV\u91cd\u590d
p1660
aV\u59d1\u5a18
p1661
aV\u81ea\u52a8
p1662
aV\u660e\u5a9a
p1663
aV\u4e00\u672c
p1664
aVmark
p1665
aV\u5de5\u4f5c
p1666
aV\u5468\u4e09
p1667
aV\u6ce8\u518c
p1668
aV\u624b\u6c14
p1669
aV\u5468\u4e00
p1670
aV\u4e09\u5206
p1671
aV\u8eab\u4f53\u5065\u5eb7
p1672
aV500
p1673
aV\u56fe\u7247
p1674
aV\u7206\u53d1
p1675
aV\u9ad8\u4e2d\u540c\u5b66
p1676
aV\u5e86\u795d
p1677
aV\u8ffd\u5bfb
p1678
aV\u7f8e\u5267
p1679
aV\u7b14\u8bb0
p1680
aV\u6050\u6016
p1681
aV\u751f\u75c5
p1682
aV\u771f\u5fc3
p1683
aV\u4e22\u4eba
p1684
aV\u6210\u5c31\u611f
p1685
aV\u62b1\u62b1
p1686
aV\u786c\u4f24
p1687
aV\u4e00\u6761
p1688
aV\u86cb\u86cb
p1689
aV\u5927\u8fde
p1690
aV\u4e00\u676f
p1691
aV\u7406\u89e3
p1692
aV\u5931\u8d25
p1693
aV\u804a\u5929
p1694
aV\u751f\u5b58
p1695
aV\u5fe7\u6851
p1696
aV\u66f4\u52a0
p1697
aV\u9707\u64bc
p1698
aV\u4eca\u665a
p1699
aV\u903c\u683c
p1700
aV\u53d8\u6001
p1701
aV\u5e74\u8f7b\u4eba
p1702
aV\u6708\u5e95
p1703
aV\u5f69\u7968
p1704
aV\u4e2d\u56fd\u79fb\u52a8
p1705
aV\u4f60\u5bb6
p1706
aV\u5e26\u6765
p1707
aV\u8bfb\u62a5
p1708
aV\u4e00\u679a
p1709
aVIEEE
p1710
aV\u65e0\u5e38
p1711
aV\u4e2d\u79cb\u8282
p1712
aV\u4e0d\u987a
p1713
aV\u5927\u4f17
p1714
aV\u66fc\u8054
p1715
aV\u62bd\u5956
p1716
aV\u68c0\u67e5
p1717
aV\u5b59\u6960
p1718
aVXXX
p1719
aV\u5927\u4f1a
p1720
aV\u5468\u4e94
p1721
aV\u4e00\u8d9f
p1722
aV\u591a\u597d
p1723
aV\u5468\u4e8c
p1724
aV\u9002\u5408
p1725
aV\u7d20\u8d28
p1726
aV\u5341\u5206\u949f
p1727
aV\u714e\u71ac
p1728
aV\u5165\u804c
p1729
aV\u8bf7\u95ee
p1730
aV\u592a\u597d\u4e86
p1731
aV\u5bc6\u7801
p1732
aV\u592a\u7d2f
p1733
aV\u591a\u591a
p1734
aV\u5404\u4f4d\u670b\u53cb
p1735
aV\u6211\u7528
p1736
aV\u65e0\u8bed
p1737
aV\u5bb9\u6613
p1738
aV\u4ed9\u6797
p1739
aV\u4eba\u624d
p1740
aV\u623f\u4e1c
p1741
aV\u5373\u4f7f
p1742
aVxkl
p1743
aV\u6211\u9519
p1744
aV\u4e13\u8f91
p1745
aV\u5220\u6389
p1746
aV\u8270\u96be
p1747
aV\u5e72\u6d3b
p1748
aV\u613f\u610f
p1749
aV\u6fc0\u52b1
p1750
aV\u52c7\u6562
p1751
aV\u5357\u4eac\u5e02
p1752
aV\u6c42\u95ee
p1753
aV\u521d\u7ea7\u73ed
p1754
aV\u6210\u5c31
p1755
aV77
p1756
aV\u4e94\u70b9
p1757
aV\u5c71\u4e1c
p1758
aV\u603b\u80fd
p1759
aV\u5409\u4ed6
p1760
aV\u5fc3\u8840\u6765\u6f6e
p1761
aV\u8db3\u7403
p1762
aV\u770b\u4e0d\u4e0b\u53bb
p1763
aV\u51fa\u53bb\u73a9
p1764
aV\u6b4c\u58f0
p1765
aV\u76f8\u58f0
p1766
aV\u8003\u53e4
p1767
aV\u6628\u665a
p1768
aV\u96f7\u9706
p1769
aV\u6545\u4e8b
p1770
aV8s6EShF
p1771
aV\u7206\u70b8
p1772
aV\u7136\u540e
p1773
aV\u642c\u5bb6
p1774
aV\u6295\u884c
p1775
aV\u73ab\u7470
p1776
aV\u667a\u80fd
p1777
aV\u4eca\u65e9
p1778
aV\u53cd\u601d
p1779
aV\u4eca\u65e5
p1780
aV\u9a84\u50b2
p1781
aV\u5c31\u8ba9
p1782
aV\u653e\u7a7a
p1783
aV\u9ed1\u8272
p1784
aV\u4e0d\u7ba1
p1785
aV\u597d\u610f\u601d
p1786
aV\u522b\u7684
p1787
aV\u7b49\u4f60\u62ff
p1788
aV\u968f\u4fbf
p1789
aV\u6210\u529f
p1790
aV\u54cd\u8d77
p1791
aV\u6c7d\u8f66
p1792
aV\u7403\u961f
p1793
aV\u7855\u58eb
p1794
aV\u795e\u7ecf
p1795
aVmoc
p1796
aV\u6548\u7387
p1797
aV\u521d\u604b
p1798
aV\u4e09\u70b9
p1799
aV\u9a6c\u8def
p1800
aV\u62db\u65b0
p1801
aV\u5929\u4f7f
p1802
aV\u53cb\u60c5
p1803
aV\u4e94\u73af
p1804
aV\u95f9\u5fc3
p1805
aV\u56f0\u96be
p1806
aV\u542c\u8bf4
p1807
aV\u5bc6\u5ba4
p1808
aV\u80a0\u80c3
p1809
aV\u6625\u665a
p1810
aV\u4f55\u5fc5
p1811
aVnice
p1812
aV\u9a6c\u523a
p1813
aV3000
p1814
aV\u98ce\u9669
p1815
aV\u8fd8\u6709
p1816
aV\u4e5d\u70b9
p1817
aV\u4f18\u79c0
p1818
aV22
p1819
aV\u529e\u6cd5
p1820
aV\u89c9\u5f97
p1821
aV\u4e89\u53d6
p1822
aV\u6e29\u99a8
p1823
aV\u9009\u624b
p1824
aV\u4e13\u6ce8
p1825
aV\u5750\u8f66
p1826
aV\u4f20\u8bf4
p1827
aV\u6e05\u695a
p1828
aV\u53f7\u7ebf
p1829
aV\u5b57\u5e55
p1830
aV\u7535\u89c6
p1831
aV\u534f\u4f1a
p1832
aV\u6ca1\u53d1
p1833
aV\u8f85\u8def
p1834
aV\u5e7f\u4e1c
p1835
aV\u54c8\u54c8\u54c8\u54c8
p1836
aV\u6e38\u620f
p1837
aV\u4e0a\u573a
p1838
aV\u5173\u7231
p1839
aV\u804c\u4f4d
p1840
aV\u5171\u540c
p1841
aV\u5e9f\u8bdd
p1842
aV\u95ed\u5634
p1843
aVddl
p1844
aV\u756a\u8304
p1845
aV\u5143\u65e6
p1846
aV\u73a9\u610f\u513f
p1847
aV\u73b0\u91d1
p1848
aV\u901b\u8857
p1849
aV\u96be\u5403
p1850
aV\u6eda\u86cb
p1851
aV\u56f4\u8116
p1852
aV\u542c\u6b4c
p1853
aV\u66fc\u57ce
p1854
aV\u6e05\u534e\u5927\u5b66
p1855
aV\u952e\u76d8
p1856
aV\u5f00\u53d1
p1857
aV\u660e\u767d
p1858
aV\u5927\u8c61
p1859
aV\u5468\u56f4
p1860
aV\u9898\u76ee
p1861
aV\u793e\u56e2
p1862
aV\u788e\u7247
p1863
aV\u987a\u4e30
p1864
aV\u611a\u4eba\u8282
p1865
aV\u6d88\u8d39\u8005
p1866
aV\u5386\u53f2
p1867
aVok
p1868
aV\u957f\u6c99
p1869
aV\u5426\u5219
p1870
aV\u672c\u8d28
p1871
aV\u4e1c\u65b9
p1872
aV\u65e9\u5b89
p1873
aV\u540c\u684c
p1874
aV\u540c\u4e8b
p1875
aV\u676f\u5177
p1876
aV\u73cd\u60dc
p1877
aV\u5174\u8da3
p1878
aV\u4e0a\u9762
p1879
aV\u4e0d\u5230
p1880
aV\u5413\u6b7b
p1881
aV\u4e0d\u6765
p1882
aV\u6b4c\u8bcd
p1883
aV\u53c2\u89c2
p1884
aV\u8e81\u72c2\u75c7
p1885
aV\u8ba2\u7968
p1886
aV\u96c5\u601d
p1887
aV\u4e0d\u723d
p1888
aV\u56fd\u4ea7
p1889
aV\u592a\u5feb
p1890
aV\u7a7a\u95f4
p1891
aV\u76c6\u53cb
p1892
aV\u5531\u6b4c
p1893
aV\u590d\u4e60
p1894
aV\u51fa\u884c
p1895
aV\u5934\u75bc
p1896
aV\u624b\u4e00
p1897
aV\u5b89\u597d
p1898
aV\u79d1\u7814
p1899
aV\u4eb2\u4eb2
p1900
aV\u7ea0\u7ed3
p1901
aV\u5de5\u8d44
p1902
aV\u6ca1\u4e8b
p1903
aV\u4f24\u5bb3
p1904
aV\u5feb\u5230
p1905
aVlow
p1906
aV\u5706\u68a6
p1907
aV\u9ad8\u8003
p1908
aV\u9884\u7ea6
p1909
aV\u5c0f\u79d8\u4e66
p1910
aV\u9b45\u529b
p1911
aV\u6bcf\u5929
p1912
aV\u70ed\u60c5
p1913
aVproject
p1914
aV\u6bd5\u798f\u5251
p1915
aV\u8db3\u591f
p1916
aV\u5934\u75db
p1917
aV\u5fae\u98ce
p1918
aV\u68a6\u5230
p1919
aV\u5bb6\u56ed
p1920
aVidea
p1921
aV\u8fce\u6765
p1922
aV\u9192\u6765
p1923
aV\u987a\u4fbf
p1924
aV\u6bcf\u6b21
p1925
aV\u597d\u597d\u770b
p1926
aV\u5927\u8def
p1927
aV\u7231\u4e0a
p1928
aV\u518d\u4e5f
p1929
aV\u4f60\u597d
p1930
aV\u96f6\u4e0b
p1931
aV\u964d\u51c6
p1932
aV\u5f00\u4f1a
p1933
aV\u5475\u5475
p1934
aV\u732b\u54aa
p1935
aV\u53ea\u80fd\u9760
p1936
aV\u7280\u5229
p1937
aVanyway
p1938
aV\u7b56\u5212
p1939
aV\u4e0d\u820d
p1940
aV\u53cd\u8150
p1941
aV\u5f20\u56fd\u8363
p1942
aV\u4eb2\u4eec
p1943
aV\u561f\u561f
p1944
aV\u8fd9\u6837
p1945
aV\u9ad8\u901f
p1946
aV\u5c11\u5973
p1947
aV\u5357\u4eac
p1948
aV\u5564\u9152
p1949
aV600
p1950
aV\u6c5f\u5357style
p1951
aV\u5883\u754c
p1952
aV\u4f20\u9001\u95e8
p1953
aV\u62a5\u9500
p1954
aV\u6027\u683c
p1955
aV\u83ab\u975e
p1956
aV\u51b0\u6dc7\u6dcb
p1957
aV\u5c3c\u6cca\u5c14
p1958
aV\u6d17\u6d17
p1959
aV\u597d\u4e0d\u5bb9\u6613
p1960
aV\u88ab\u76d7
p1961
aV\u5dee\u8ddd
p1962
aV\u805a\u4f1a
p1963
aV\u53d8\u6210
p1964
aV\u4f60\u59b9
p1965
aV\u5065\u8eab\u623f
p1966
aV\u8bf4\u597d
p1967
aV\u8179\u808c
p1968
aV\u6587\u9769
p1969
aV\u6062\u590d
p1970
aV\u975e\u6d32
p1971
aV\u6d88\u5931
p1972
aV\u69b4\u83b2
p1973
aV2000
p1974
aV1111
p1975
aV\u5145\u503c
p1976
aV\u540e\u9057\u75c7
p1977
aV\u6362\u6210
p1978
aV\u5077\u7b11
p1979
aV\u95ed\u773c
p1980
aV\u62bd\u7b4b
p1981
aV\u6cd5\u56fd
p1982
aV\u6587\u5316
p1983
aV\u6ca1\u610f\u601d
p1984
aV\u5fd9\u788c
p1985
aV\u8003\u5b8c
p1986
aV\u65e5\u8d77
p1987
aV\u8d85\u4eba
p1988
aV\u5bfb\u627e
p1989
aV\u7237\u7237
p1990
aV\u7cbe\u5f69
p1991
aV\u8865\u8d34
p1992
aV\u6700\u9ad8
p1993
aV2008
p1994
aV\u4f34\u7740
p1995
aV\u63d0\u9ad8
p1996
aV\u7a97\u53e3
p1997
aV\u65b9\u5f0f
p1998
aV\u60c5\u7eea
p1999
aV\u4eba\u6c11\u65e5\u62a5
p2000
aV\u4e00\u65e9
p2001
aV\u5927\u8d5b
p2002
aV\u76f8\u5904
p2003
aV\u65e0\u9650
p2004
aV\u5730\u94c1
p2005
aV\u4f17\u7b79
p2006
aV\u8bba\u575b
p2007
aV\u7b26\u5408
p2008
aV\u6587\u732e
p2009
aV\u6dd8\u6c70
p2010
aV\u804c\u4e1a
p2011
aV\u7269\u7406
p2012
aV\u8fc7\u5f97
p2013
aV\u5fc3\u788e
p2014
aVali
p2015
aV\u597d\u723d
p2016
aV\u5f80\u4e8b
p2017
aV\u7cdf\u7cd5
p2018
aV\u901a\u8fc7
p2019
aV\u5343\u4e07
p2020
aV\u51cc\u6668
p2021
aV\u505a\u9b3c\u8138
p2022
aV\u60c5\u611f
p2023
aV.....
p2024
aV\u6b4c\u66f2
p2025
aV\u7ade\u731c
p2026
aVgo
p2027
aV\u603b\u7ed3
p2028
aV\u5b66\u4e00
p2029
aV\u6b63\u4e49
p2030
aV\u7ecf\u9a8c
p2031
aV\u7cfb\u5217
p2032
aV\u5220\u9664
p2033
aV\u7403\u8863
p2034
aV\u9996\u90fd\u673a\u573a
p2035
aV\u56fd\u5185
p2036
aV\u4f3c\u7684
p2037
aVtm
p2038
aV\u5609\u56ed
p2039
aVG42
p2040
aV\u5929\u6c14\u9884\u62a5
p2041
aV\u5206\u4eab
p2042
aVpresentation
p2043
aV\u9006\u88ad
p2044
aVta
p2045
aV\u4e00\u9762
p2046
aV\u62cd\u7167
p2047
aV\u5404\u4f4d
p2048
aV\u4fee\u597d
p2049
aV\u4e0d\u65ad
p2050
aV\u62a2\u7968
p2051
aV\u8282\u594f
p2052
aV15
p2053
aV\u4f59\u989d
p2054
aV\u51fa\u573a
p2055
aV\u795d\u798f
p2056
aV\u611f\u5174\u8da3
p2057
aV\u53d1\u578b
p2058
aV\u633a\u4f4f
p2059
aV\u8111\u5b50\u91cc
p2060
aV______________________#
p2061
aV\u7f51\u7ad9
p2062
aV\u65b0\u5b66\u671f
p2063
aV\u4e3b\u9898
p2064
aV\u4eba\u5fc3
p2065
aV\u5b9e\u5728
p2066
aV\u8fd9\u573a
p2067
aV\u5bf9\u8bdd
p2068
aV\u6539\u6210
p2069
aV\u52c7\u58eb
p2070
aV\u4e00\u5768
p2071
aV\u5927\u7237
p2072
aV\u5728\u8bfb
p2073
aV\u6c49\u53e3\u8def
p2074
aV\u4e3b\u9875
p2075
aV\u4e0d\u6562
p2076
aV\u5751\u7239
p2077
aV\u5f88\u5c11
p2078
aV\u964d\u6e29
p2079
aV\u6743\u529b
p2080
aV\u964d\u4e34
p2081
aV\u4e94\u4e2a
p2082
aV\u4e8c\u5341\u5e74
p2083
aV\u90a3\u6bb5
p2084
aV\u83ab\u8fc7\u4e8e
p2085
aV\u6562\u4e0d\u6562
p2086
aV\u517b\u6210
p2087
aV\u770b\u8d77\u6765
p2088
aV\u4ece\u524d
p2089
aV\u4f24\u611f
p2090
aV\u66dd\u5149
p2091
aV\u8ffd\u661f
p2092
aV\u97e9\u5bd2
p2093
aV\u592a\u7ed9\u529b
p2094
aV\u53cd\u5e94
p2095
aV\u6700\u65b0
p2096
aV\u770b\u6210
p2097
aV\u5143\u5bb5\u8282
p2098
aV\u724c\u5b50
p2099
aV\u6837\u5b50
p2100
aV\u65c1\u8fb9
p2101
aV\u6ca1\u6cd5
p2102
aV\u5d29\u6e83
p2103
aV\u5510\u840c\u840c
p2104
aV\u6349\u6025
p2105
aV\u4e94\u4e00
p2106
aV\u72af\u56f0
p2107
aV\u52a8\u753b
p2108
aV\u6559\u7a0b
p2109
aV5000
p2110
aV\u81ea\u4fe1
p2111
aV\u679c\u771f
p2112
aV\u4e16\u4e0a
p2113
aV\u8001\u5bb6
p2114
aV\u6211\u6821
p2115
aV\u98ce\u683c
p2116
aV\u5fc3\u585e
p2117
aV\u4e4b\u95f4
p2118
aV\u4e0d\u89c1\u4e0d\u6563
p2119
aV\u4e00\u7ad9
p2120
aV\u5c31\u522b
p2121
aV\u5c0f\u51b0
p2122
aV\u6b63\u4e8b
p2123
aV\u53f8\u673a
p2124
aV\u6625\u98ce
p2125
aV\u5c0f\u718a
p2126
aV\u5feb\u5feb
p2127
aV\u70b9\u5f00
p2128
aV\u8d76\u4e0a
p2129
aV\u5927\u725b
p2130
aV\u6c42\u52a9
p2131
aV\u6211\u64cd
p2132
aV\u535a\u7269\u9986
p2133
aV\u8e0f\u5b9e
p2134
aV\u6682\u65f6
p2135
aV\u4e09\u4e2a
p2136
aV\u770b\u5f97
p2137
aV\u8f9b\u82e6
p2138
aV\u8fd8\u597d
p2139
aV\u9999\u5c71
p2140
aV\u6b66\u6c49
p2141
aV\u6bd5\u4e1a\u8bba\u6587
p2142
aV\u63a7\u5236
p2143
aVvia
p2144
aV\u6625\u5929
p2145
aV\u4e5f\u597d
p2146
aV\u4f5c\u4e1a
p2147
aV\u60c5\u6000
p2148
aV\u5357\u8857
p2149
aV\u661f\u5df4\u514b
p2150
aV\u6a31\u6843
p2151
aV\u9ea6\u5f53\u52b3
p2152
aV\u5e72\u51c0
p2153
aV\u7f8e\u4e3d
p2154
aV\u4e00\u7b14
p2155
aV\u5c0f\u5077
p2156
aV\u672a\u77e5
p2157
aV\u539f\u8c05
p2158
aV\u4ef7\u503c
p2159
aV\u7761\u8fc7\u53bb
p2160
aV\u56fe\u4e66
p2161
aV\u66b4\u529b
p2162
aV\u6298\u78e8
p2163
aV\u661f\u4eba
p2164
aV\u671d\u9633
p2165
aV\u88ab\u7a9d
p2166
aV\u4f5c\u4e3a
p2167
aV\u4e4b\u540e
p2168
aV\u96be\u5f97
p2169
aV\u82f9\u679c
p2170
aV\u8981\u6b7b
p2171
aV\u5835\u8f66
p2172
aV\u5395\u6240
p2173
aV\u5927\u7231
p2174
aV\u7a76\u7adf
p2175
aV\u751f\u7269\u949f
p2176
aV\u4fdd\u6696
p2177
aV\u7247\u5b50
p2178
aV\u5fc5\u8981
p2179
aV\u7a0b\u5ea6
p2180
aV\u7684\u8bdd
p2181
aV\u4e2d\u8def
p2182
aVG15
p2183
aV\u67e5\u6536
p2184
aV\u96be\u5fd8
p2185
aV\u9e21\u8840
p2186
aV\u903b\u8f91
p2187
aV\u62b5\u8fbe
p2188
aV\u51b0\u6876
p2189
aV\u90a3\u79cd
p2190
aV\u8001\u5b50
p2191
aV\u8fdb\u53bb
p2192
aV\u4e3b\u6301\u4eba
p2193
aV\u5145\u6ee1
p2194
aV\u6559\u5ba4
p2195
aV\u4f46\u613f
p2196
aV\u6211\u8981
p2197
aV\u5b98\u65b9
p2198
aV\u7761\u5f97
p2199
aV\u6216\u8bb8
p2200
aVSB
p2201
aV\u79bb\u804c
p2202
aV\u5176\u5b9e
p2203
aV\u65e5\u8bed
p2204
aV\u7b97\u4e86
p2205
aV\u5fae\u535a\u53f7
p2206
aVIBM
p2207
aV\u4e2d\u5fc3
p2208
aV\u5f71\u5b50
p2209
aV\u4e09\u4f53
p2210
aV\u867e\u7c73
p2211
aV\u5367\u94fa
p2212
aV\u4e1c\u7ad9
p2213
aV\u533b\u9662
p2214
aV\u91cd\u65b0
p2215
aV\u7d27\u5f20
p2216
aV\u4e00\u5b9a
p2217
aV\u518d\u6b21
p2218
aV\u8eab\u9ad8
p2219
aV\u597d\u73a9
p2220
aV\u5317\u5927
p2221
aV\u7406\u7531
p2222
aV\u5e08\u59b9
p2223
aV\u5317\u4eac\u5730\u94c1
p2224
aV\u5dee\u70b9
p2225
aV\u521b\u610f
p2226
aV\u820d\u4e0d\u5f97
p2227
aV\u5154\u5b50
p2228
aV\u6e29\u6696
p2229
aV\u81f4\u656c
p2230
aV\u68a6\u5883
p2231
aV\u4e00\u5bb6
p2232
aV\u8981\u8bf4
p2233
aV\u66fe\u7ecf
p2234
aV\u5c3d\u91cf
p2235
aV\u563f\u563f
p2236
aV\u51b3\u5b9a
p2237
aV\u70e6\u6b7b
p2238
aV\u6f14\u51fa
p2239
aV\u4e00\u7bc7
p2240
aV\u5fae\u535a\u53bb
p2241
aV\u76f8\u7ea6
p2242
aV\u5e08\u59d0
p2243
aV\u6240\u6709
p2244
aV\u73af\u5883
p2245
aV\u5965\u65af\u5361
p2246
aV\u4fe1\u53f7
p2247
aV\u76f8\u673a
p2248
aV\u6b3a\u8d1f
p2249
aV\u666e\u901a
p2250
aV\u4e00\u4e0a\u5348
p2251
aV\u521d\u5fc3
p2252
aV\u964c\u751f
p2253
aV\u8f66\u7968
p2254
aV\u70b9\u524d
p2255
aV\u65e5\u8bb0
p2256
aV\u590d\u6d3b
p2257
aV\u5403\u706b\u9505
p2258
aV\u9707\u946b
p2259
aV\u8fc7\u5e74
p2260
aV\u56de\u56fd
p2261
aV\u56fd\u9053
p2262
aV\u6025\u8bca
p2263
aV\u84dd\u9cb8
p2264
aV\u7b2c\u4e00\u5b63
p2265
aV\u77ac\u95f4
p2266
aV\u5076\u5c14
p2267
aV\u62a5\u9053
p2268
aV\u5757\u94b1
p2269
aV\u957f\u5047
p2270
aV\u4e00\u5bf9
p2271
aV\u6bd4\u8f83
p2272
aV\u597d\u53cb
p2273
aV\u8001\u5a46
p2274
aV\u4e00\u5806
p2275
aV\u8def\u4e0a
p2276
aV\u4e0b\u9762
p2277
aV\u5904\u7406
p2278
aV\u4ec0\u4e48
p2279
aV\u70b8\u9e21
p2280
aV\u5fae\u8584
p2281
aV\u6635\u79f0
p2282
aVpaper
p2283
aV\u5173\u4e8e
p2284
aV\u6b23\u6170
p2285
aV\u653e\u6620
p2286
aV\u7761\u61d2\u89c9
p2287
aV\u8003\u8651
p2288
aV\u7535\u5546
p2289
aV\u53d8\u5f97
p2290
aV\u7528\u6765
p2291
aV24
p2292
aV\u6587\u4ef6
p2293
aV\u98de\u673a
p2294
aV27
p2295
aV20
p2296
aV21
p2297
aV\u672b\u65e5
p2298
aV\u6bd5\u4e1a
p2299
aV\u79bb\u5a5a
p2300
aV28
p2301
aV29
p2302
aV\u8bb0\u4f4f
p2303
aV\u53ea\u6709
p2304
aV\u592e\u4f01
p2305
aV\u5b66\u8f66
p2306
aV\u70ed\u7231
p2307
aV\u5fd8\u8bb0
p2308
aV\u53d1\u5e03
p2309
aV\u52a0\u5dde
p2310
aV\u6fb3\u7f51
p2311
aV\u6ce8\u610f
p2312
aV\u57fa\u672c
p2313
aV\u5b9c\u5bb6
p2314
aVgood
p2315
aV\u5c0f\u732b
p2316
aV\u5c0f\u732a
p2317
aV\u8bc4\u9009
p2318
aV\u7cbe\u82f1
p2319
aV\u96e8\u58f0
p2320
aVPPT
p2321
aV\u9a6c\u4e0a
p2322
aV\u53d1\u5fae\u535a
p2323
aV\u4e24\u6b21
p2324
aVyy
p2325
aV\u95e8\u95e8
p2326
aV\u53d1\u6765
p2327
aV\u5c0f\u533a
p2328
aV2B
p2329
aV\u5468\u516d
p2330
aV\u821c\u5929
p2331
aV\u9762\u5bf9
p2332
aV\u53bb\u4e16
p2333
aV\u6b66\u4fa0
p2334
aV\u4e0a\u8bfe
p2335
aV\u5f00\u8f66
p2336
aV\u8863\u670d
p2337
aV\u5077\u61d2
p2338
aV\u94f6\u884c\u5361
p2339
aV\u8f66\u7ad9
p2340
aV\u793c\u62dc
p2341
aV\u4f4e\u8c03
p2342
aV\u771f\u60f3
p2343
aVIPO
p2344
aVbless
p2345
aV\u6ca1\u52b2
p2346
aV\u5723\u8bde
p2347
aV\u65e0\u6bd4
p2348
aV\u4e00\u9879
p2349
aV\u501f\u53e3
p2350
aV\u4e00\u987f
p2351
aV\u5f69\u8679
p2352
aV\u5730\u7b11
p2353
aV\u51fa\u95e8
p2354
aV\u6e34\u671b
p2355
aV\u89d2\u8272
p2356
aV\u6b65\u6b65
p2357
aV\u63a5\u4e0b\u6765
p2358
aV\u4e00\u584c\u7cca\u6d82
p2359
aV\u6df1\u591c
p2360
aV\u5185\u5fc3
p2361
aV\u5ef6\u8bef
p2362
aV\u5565\u65f6\u5019
p2363
aV\u5361\u5361
p2364
aV\u4e00\u7897
p2365
aV\u4f26\u6566
p2366
aV\u63d0\u95ee
p2367
aV\u8f93\u5165
p2368
aV\u9ec4\u91d1
p2369
aV\u8fdc\u4e1c
p2370
aV\u8292\u679c
p2371
aV\u80fd\u591f
p2372
aV\u610f\u601d
p2373
aV\u67d0\u4eba
p2374
aV\u6d3b\u7740
p2375
aV\u9635\u96e8
p2376
aV\u8282\u64cd
p2377
aV\u624b\u5957
p2378
aVget
p2379
aV\u7ade\u6807
p2380
aV\u4e0a\u6b21
p2381
aV\u82f1\u683c\u5170
p2382
aV\u4eca\u591c
p2383
aV\u5927\u53a6
p2384
aV\u7f51\u9875
p2385
aV\u987a\u5229
p2386
aV\u6709\u611f
p2387
aV\u6c49\u5b50
p2388
aV\u95ee\u9898
p2389
aV\u5b8c\u6574
p2390
aV\u597d\u70e6
p2391
aV\u9a6c\u4e91
p2392
aV\u6d3b\u5728
p2393
aV\u547c\u5438
p2394
aV\u5fc3\u7075\u9e21\u6c64
p2395
aV\u8001\u4eba
p2396
aV\u5927\u9053
p2397
aV\u59da\u8d1d\u5a1c
p2398
aV\u6d66\u53e3
p2399
aV\u5e1d\u90fd
p2400
aV\u4e07\u8fbe
p2401
aV\u533b\u751f
p2402
aV\u540c\u5fd7
p2403
aV\u4e00\u58f0
p2404
aV\u953b\u70bc\u8eab\u4f53
p2405
aV\u9762\u5b50
p2406
aV\u4eca\u5929
p2407
aV\u597d\u50cf
p2408
aV\u65f6\u901f
p2409
aV\u81ea\u79c1
p2410
aV\u662f\u56e0\u4e3a
p2411
aV\u4e00\u5929
p2412
aV\u5632\u7b11
p2413
aV\u4e0b\u6765
p2414
aV\u964c\u751f\u4eba
p2415
aV\u7167\u987e
p2416
aV\u8349\u8393
p2417
aV\u5ba3\u4f20
p2418
aV\u5929\u5929
p2419
aV\u65e9\u6668
p2420
aV\u53ea\u662f
p2421
aV\u6211\u8be5
p2422
aV\u5de5\u5177
p2423
aV\u90a3\u6837
p2424
aV\u5496\u5561
p2425
aV\u4e00\u591c
p2426
aV\u8bb0\u5f97
p2427
aV\u8bb0\u5f55\u672c
p2428
aV\u8fd9\u5468
p2429
aV\u5b58\u5728
p2430
aV\u6bd4\u8d5b
p2431
aV\u5730\u56fe
p2432
aV\u5f97\u4e0d\u5230
p2433
aV\u94f6\u884c
p2434
aVID
p2435
aV\u4e00\u628a
p2436
aV180
p2437
aV\u6765\u56de
p2438
aV\u5c0f\u725b
p2439
aV\u6691\u5047
p2440
aV\u65b0\u6625
p2441
aV\u6559\u5b66\u697c
p2442
aV\u90ae\u7bb1
p2443
aV\u53d1\u660e
p2444
aV\u6012\u9a82
p2445
aV\u653e\u677e
p2446
aV\u9547\u6c5f
p2447
aV\u8fd9\u7403
p2448
aV\u6bb5\u5b50
p2449
aV\u76d1\u7763
p2450
aV\u6052\u5927
p2451
aV\u4e00\u5957
p2452
aV\u72af\u9519
p2453
aV\u6b27\u6d32\u676f
p2454
aV\u6574\u7406
p2455
aV\u597d\u8fd0
p2456
aV\u82d1\u5b50
p2457
aV\u4e0d\u5403
p2458
aV\u4e0a\u8f88\u5b50
p2459
aV\u54c8\u54c8
p2460
aV\u4eba\u548c\u4e8b
p2461
aV\u82cf\u5dde
p2462
aV\u5305\u5bb9
p2463
aV\u670b\u53cb\u5708
p2464
aV\u8ba8\u538c
p2465
aV\u538b\u529b
p2466
aV\u8d77\u98de
p2467
aV\u6fc0\u52a8
p2468
aV\u6f14\u5531\u4f1a
p2469
aV\u9a6c\u5230\u6210\u529f
p2470
aV\u5929\u5802
p2471
aV\u55d3\u5b50
p2472
aV\u664b\u7ea7
p2473
aV\u653b\u7565
p2474
aV\u5c55\u793a
p2475
aV\u51e0\u4e2a
p2476
aV\u591c\u8bdd
p2477
aV\u715e\u7b14
p2478
aV\u60c5\u8282
p2479
aV\u6ca1\u5230
p2480
aV\u597d\u6837
p2481
aV\u4eb2\u5207
p2482
aV\u4e00\u9996
p2483
aV\u544a\u8bc9
p2484
aV\u5982\u679c
p2485
aV\u4e38\u5b50
p2486
aV\u9632\u5b88
p2487
aV\u5305\u5b50
p2488
aV\u516c\u5e03
p2489
aV\u8138\u4e0a
p2490
aV\u7fbd\u7ed2\u670d
p2491
aV\u4eb2\u7231
p2492
aV\u5341\u5927
p2493
aV\u5341\u5929
p2494
aV\u56f0\u6b7b
p2495
aV\u7ffb\u5899
p2496
aV\u6500\u5ca9
p2497
aV\u5b66\u5f1f
p2498
aV\u5347\u7ea7
p2499
aV\u4e86\u89e3
p2500
aV\u9875\u5ca9
p2501
aV\u8fdb\u5165
p2502
aV\u4f1f\u5927
p2503
aV\u5e08\u5085
p2504
aV\u8282\u76ee
p2505
aV\u4e00\u4e2a\u6708
p2506
aVxueju006
p2507
aV\u4e00\u56de
p2508
aV\u591a\u6708
p2509
aV\u4e07\u6e90
p2510
aV\u8def\u8fc7
p2511
aV\u8fc7\u5c71\u8f66
p2512
aV\u4e0d\u662f
p2513
aV\u4e60\u60ef
p2514
aV\u4e00\u79cd
p2515
aV\u6162\u6162
p2516
aV75
p2517
aV\u5faa\u73af
p2518
aV70
p2519
aV\u65e0\u610f
p2520
aV\u9633\u9633
p2521
aV\u5b59\u5c0f
p2522
aV\u8f66\u5b50
p2523
aV\u5bfc\u6f14
p2524
aV\u9996\u90fd\u56fd\u9645\u673a\u573a
p2525
aV65
p2526
aV\u751f\u6240\u7231
p2527
aVbug
p2528
aV\u4e00\u4e2a\u591a
p2529
aVwindows
p2530
aV\u5931\u53bb
p2531
aV\u5fc3\u7d2f
p2532
aV\u51e0\u4e4e
p2533
aV\u98df\u6b32
p2534
aVkm
p2535
aV\u6536\u85cf
p2536
aV\u8010\u5fc3
p2537
aV\u5e74\u85aa
p2538
aV\u62d6\u5ef6
p2539
aV\u53d1\u77ed\u4fe1
p2540
aV\u9ad8\u5174
p2541
aV\u611f\u609f
p2542
aV\u4e3a\u4ec0\u4e48
p2543
aV\u5de6\u8033
p2544
aV\u4e8e\u662f
p2545
aV\u5c0f\u76c6\u53cb
p2546
aV\u6559\u7ec3
p2547
aV\u4e07\u4e00
p2548
aV\u5730\u513f
p2549
aV\u9886\u5148
p2550
aV\u76ee\u6d4b
p2551
aV\u5168\u662f
p2552
aV\u804a\u804a
p2553
aV\u5e78\u597d
p2554
aV\u68ee\u6797\u516c\u56ed
p2555
aV\u6bcd\u6821
p2556
aV\u4eba\u5bb6
p2557
aV\u878d\u8d44
p2558
aV\u955c\u5934
p2559
aV\u672c\u79d1\u751f
p2560
aV\u5f53\u521d
p2561
aV\u5de5\u7a0b\u5e08
p2562
aV\u6821\u533b\u9662
p2563
aV\u674e\u5149\u8000
p2564
aV\u516c\u796d
p2565
aV\u7533\u8bf7
p2566
aV\u9a6c\u6876
p2567
aV\u5750\u98de\u673a
p2568
aV2011
p2569
aV\u9605\u8bfb
p2570
aV\u4e00\u6b3e
p2571
aV\u52a0\u62ff\u5927
p2572
aV\u77e5\u9053
p2573
aV\u8be5\u4e0d\u8be5
p2574
aV\u5e2e\u52a9
p2575
aV\u9b45\u65cf
p2576
aV\u540c\u4e00\u4e2a
p2577
aV\u5065\u8eab
p2578
aV\u900f\u660e
p2579
aV\u5927\u56fe
p2580
aV\u4f55\u65f6
p2581
aV\u6c6a\u5cf0
p2582
aV\u9996\u90fd\u56fe\u4e66\u9986
p2583
aV\u5988\u86cb
p2584
aV\u786e\u5b9a
p2585
aV\u786e\u5b9e
p2586
aV\u95e8\u53e3
p2587
aV\u611f\u60c5
p2588
aV\u4e00\u540d
p2589
aV\u5927\u96ea
p2590
aV\u8d44\u6e90
p2591
aV\u5927\u96e8
p2592
aV\u5317\u4eac\u7ad9
p2593
aV\u5df2\u7136
p2594
aV\u793c\u5802
p2595
aV\u53c2\u52a0
p2596
aV\u809a\u5b50\u75bc
p2597
aV\u6f14\u5458
p2598
aV\u7535\u4fe1
p2599
aV\u4e4b\u5149
p2600
aV\u542f\u52a8
p2601
aV\u611f\u60f3
p2602
aV\u7f51\u7edc
p2603
aV\u5e74\u4ee3
p2604
aV\u6e9c\u8fbe
p2605
aV\u65b0\u52a0\u5761
p2606
aV\u535a\u58eb\u751f
p2607
aV\u641c\u7d22
p2608
aV\u5e26\u7ed9
p2609
aV\u4e00\u5e74
p2610
aV\u5929\u7a7a
p2611
aVGmail
p2612
aVcry
p2613
aV\u6e05\u534e
p2614
aV\u96c5\u5b89
p2615
aV\u6d3b\u8be5
p2616
aV\u5c3d\u5feb
p2617
aV\u6ca1\u7528
p2618
aV\u8868\u73b0
p2619
aV\u751f\u6c14
p2620
aV315
p2621
aV\u8001\u670b\u53cb
p2622
aV\u5c24\u5176
p2623
aV\u90a3\u8fb9
p2624
aV\u4e07\u4e8b\u5982\u610f
p2625
aV\u6ca1\u7535
p2626
aV\u884c\u8d70
p2627
aV\u7ecf\u5e38
p2628
aV\u606d\u559c
p2629
aV\u97f3\u4e50\u8282
p2630
aV\u786c\u76d8
p2631
aV\u51b2\u52a8
p2632
aV\u9009\u9879
p2633
aV\u8111\u5b50
p2634
aV\u4e16\u754c\u672b\u65e5
p2635
aV\u56de\u53bb
p2636
aV\u4e09\u661f
p2637
aV\u574f\u6389
p2638
aV\u5f88\u5feb
p2639
aV\u5357\u8def
p2640
aV\u4e00\u822c
p2641
aV\u8fd9\u53e5
p2642
aV\u6b4c\u624b
p2643
aV\u706b\u8f66\u7ad9
p2644
aV\u771f\u662f
p2645
aV\u6b67\u89c6
p2646
aV\u5b66\u5802
p2647
aV\u6587\u6863
p2648
aV\u9910\u5385
p2649
aV\u6ca1\u9519
p2650
aV\u8212\u670d
p2651
aV\u51fa\u53d1
p2652
aV\u653e\u8086
p2653
aV\u7559\u4e0b
p2654
aV\u597d\u56f0
p2655
aV\u5c31\u7b97
p2656
aV\u544a\u767d
p2657
aV\u6551\u52a9\u8005
p2658
aV\u8270\u8f9b
p2659
aV\u6f14\u8bb2
p2660
aV\u4e8b\u662f
p2661
aV\u62c5\u5fc3
p2662
aV\u5e05\u54e5
p2663
aV\u8d22\u65b0\u7f51
p2664
aV\u732e\u7ed9
p2665
aV\u7ec8\u4e8e
p2666
aV\u51fa\u53bb
p2667
aV\u4e0d\u613f
p2668
aV\u51fa\u73b0
p2669
aV\u60c5\u4eba\u8282
p2670
aV\u8def\u7531\u5668
p2671
aV\u53ca\u683c
p2672
aV\u505c\u4e0d\u4e0b\u6765
p2673
aV\u6cbb\u7597
p2674
aV\u5e78\u798f
p2675
aV\u5b9e\u73b0
p2676
aV\u5730\u94c1\u7ad9
p2677
aV\u65e5\u5b50
p2678
aV\u4e0a\u6d77
p2679
aV\u5947\u8ff9
p2680
aV\u795d\u613f
p2681
aV\u5927\u9646
p2682
aV\u8d56\u5e8a
p2683
aV\u516d\u70b9\u534a
p2684
aV\u5341\u5e74
p2685
aV\u611f\u6069
p2686
aV\u8001\u7238
p2687
aV\u6de1\u5b9a
p2688
aV\u90a3\u4e2a
p2689
aV\u665a\u5b89
p2690
aV\u7d2f\u89c9
p2691
aV\u5b66\u59b9
p2692
aVMr
p2693
aV\u4fe1\u606f
p2694
aV\u73a9\u73a9
p2695
aV\u6545\u969c
p2696
aV\u96c6\u4f53
p2697
aVTMD
p2698
aV\u72b6\u51b5
p2699
aV\u4e0d\u60f3
p2700
aV\u4e0d\u80fd
p2701
aV\u7ae5\u5e74
p2702
aV\u4e3b\u8bb2\u4eba
p2703
aV\u4e00\u5f20
p2704
aV\u4e2d\u5b66
p2705
aVjava
p2706
aV\u5bf9\u4e8e
p2707
aV\u56de\u5230
p2708
aV\u603b\u662f
p2709
aV\u819d\u76d6
p2710
aV\u5230\u8fbe
p2711
aV\u8d77\u5e8a
p2712
aV\u82cf\u5b81
p2713
aV\u8461\u8404\u7259
p2714
aV\u8d39\u5f5d\u6c11
p2715
aV\u9065\u8fdc
p2716
aV\u6d77\u5e95
p2717
aV\u9762\u524d
p2718
aV\u5728\u4e4e
p2719
aV\u846b\u82a6\u5a03
p2720
aVNJU
p2721
aV\u89d2\u843d
p2722
aV\u53e3\u6c34
p2723
aV\u592a\u5e73
p2724
aV\u9053\u7406
p2725
aV\u597d\u770b
p2726
aV\u63d0\u524d
p2727
aV888
p2728
aV\u9e21\u6c64
p2729
aV\u5a1c\u5a1c
p2730
aV\u7f18\u5206
p2731
aV\u5267\u573a
p2732
aV\u516c\u53f8
p2733
aV\u8d23\u4efb
p2734
aV\u53d7\u4f24
p2735
aV\u673a\u667a
p2736
aV\u5de5\u5730
p2737
aV\u4e0d\u5f97\u4e0d
p2738
aV\u4e66\u5355
p2739
aV\u5b66\u59d0
p2740
aV\u6709\u610f\u601d
p2741
aV\u90a3\u4e48
p2742
aV\u603b\u7b97
p2743
aV\u4e94\u6bdb
p2744
aV\u5927\u671b\u8def
p2745
aV\u600e\u4e48\u56de\u4e8b
p2746
aV520
p2747
aV\u6b8b\u7c89
p2748
aV\u5403\u8d27
p2749
aV\u9633\u5149
p2750
aV\u60f3\u60f3
p2751
aV\u5f88\u4e45\u6ca1
p2752
aV\u534a\u4e2a
p2753
aV\u65e0\u6cd5
p2754
aV\u6709\u610f\u8005
p2755
aV\u6444\u5f71\u5e08
p2756
aV\u6458\u81ea
p2757
aV\u5f88\u591a
p2758
aV\u4e94\u5206\u949f
p2759
aV\u6d17\u8111
p2760
aV\u6cd5\u6cbb
p2761
aV\u67f4\u9759
p2762
aV\u5e72\u4ec0\u4e48
p2763
aV\u5c0f\u54e5
p2764
aV\u60ca\u6050
p2765
aV\u65f6\u5dee
p2766
aV.......
p2767
aV\u56db\u516d\u7ea7
p2768
aV\u7701\u9053
p2769
aV\u6000\u7591
p2770
aV35
p2771
aV\u6536\u83b7
p2772
aV\u5c31\u884c\u4e86
p2773
aV\u5fb7\u56fd
p2774
aV\u6027\u522b
p2775
aV\u6570\u91cf
p2776
aV\u5973\u513f
p2777
aV\u4e00\u7fa4
p2778
aV\u67d0\u67d0
p2779
aV\u4eca\u5e74
p2780
aV\u53d4\u53d4
p2781
aV\u65e0\u77e5
p2782
aV\u6cea\u6d41\u6ee1\u9762
p2783
aV\u90a3\u4e9b
p2784
aV\u79d1\u6280
p2785
aV\u6781\u81f4
p2786
aV\u5b8c\u6210
p2787
aV\u5c81\u6708
p2788
aV\u8a00\u8bba
p2789
aV\u4fee\u70bc
p2790
aV\u9057\u5fd8
p2791
aV\u4e92\u7c89
p2792
aV\u53ea\u80fd
p2793
aV\u6b63\u5e38
p2794
aV\u827a\u672f
p2795
aV\u7b2c\u4e09\u6b21
p2796
aV\u540e\u9762
p2797
aV\u5b89\u6392
p2798
aV\u672a\u540d\u6e56
p2799
aV\u4e2d\u5173\u6751
p2800
aV\u53ea\u60f3
p2801
aV\u4f3c\u4e4e
p2802
aV\u6ee1\u8db3
p2803
aV007
p2804
aV\u97e9\u7ea2
p2805
aV\u5468\u56db
p2806
aV\u672c\u6765
p2807
aV\u7b2c\u4e00\u5929
p2808
aV\u7740\u6025
p2809
aV\u5389\u5bb3
p2810
aV\u6d41\u6d6a
p2811
aV\u75d8\u75d8
p2812
aV\u64cd\u86cb
p2813
aV\u8d44\u8baf
p2814
aV\u4e0d\u6015
p2815
aV\u5269\u4e0b
p2816
aV\u5728\u4e8e
p2817
aV\u5907\u4efd
p2818
aV\u611f\u6168
p2819
aV\u4e09\u6b21
p2820
aV\u4e24\u573a
p2821
aV\u6821\u62db
p2822
aV\u667a\u5546
p2823
aV\u4e8c\u6559
p2824
aV\u89c6\u89d2
p2825
aV\u6253\u8138
p2826
aV\u793e\u4f1a\u5b66
p2827
aV\u6536\u5230
p2828
aV\u8fd9\u4e48
p2829
aV\u623f\u95f4
p2830
aV\u6bcf\u5929\u665a\u4e0a
p2831
aV\u674e\u5065
p2832
aV\u4f24\u5fc3
p2833
aV\u70e7\u70e4
p2834
aV\u7edd\u6740
p2835
aV\u843d\u5730
p2836
aV\u597d\u542c
p2837
aV\u4e0d\u597d\u610f\u601d
p2838
aV\u7ea7\u522b
p2839
aV\u6211\u4eec
p2840
aV\u770b\u597d
p2841
aV\u9677\u5165
p2842
aV\u4e0b\u534a\u573a
p2843
aV\u4e24\u4f4d
p2844
aV\u9759\u56ed
p2845
aV\u8d77\u6765
p2846
aV\u6b8b\u5fcd
p2847
aV\u6709\u65f6
p2848
aV\u83b7\u5956
p2849
aV\u963f\u91cc
p2850
aV\u6797\u5fd7\u70ab
p2851
aV\u597d\u5403
p2852
aV\u7537\u7bee
p2853
aV\u6293\u72c2
p2854
aV\u516b\u70b9
p2855
aVXX
p2856
aV\u6821\u56ed\u6b4c\u624b
p2857
aV\u8fc7\u8282\u8d39
p2858
aV\u535a\u91cc
p2859
aV...
p2860
aV\u76f8\u4fe1
p2861
aVTAT
p2862
aV\u7206\u68da
p2863
aV\u9ad8\u94c1
p2864
aV\u7edd\u671b
p2865
aV\u5927\u54e5
p2866
aV\u82f1\u96c4
p2867
aV\u625b\u4e0d\u4f4f
p2868
aV\u5927\u54ed
p2869
aV\u503c\u73ed
p2870
aV\u6e05\u9192
p2871
aV\u504f\u504f
p2872
aV\u5403\u4e2a
p2873
aV\u8be1\u5f02
p2874
aV\u540e\u77e5\u540e\u89c9
p2875
aV\u9f3b\u6d95
p2876
aV\u6735\u6735
p2877
aV\u6709\u70b9\u50cf
p2878
aV\u82f1\u56fd
p2879
aV\u4eba\u6c11
p2880
aV\u653e\u624b
p2881
aV\u519b\u8bad
p2882
aV\u8fd9\u513f
p2883
aV\u522b\u4eba
p2884
aV\u5e73\u6de1
p2885
aV\u6124\u6012
p2886
aV\u4f46\u662f
p2887
aV\u6ee1\u6ee1
p2888
aV\u5c1d\u8bd5
p2889
aVgoogle
p2890
aVJava
p2891
aV\u770b\u4e0d\u61c2
p2892
aV\u5a1c\u59d0
p2893
aV\u60a8\u597d
p2894
aV\u4e0a\u6f14
p2895
aV\u9a6c\u822a
p2896
aV\u7ea2\u7c73
p2897
aV\u6d88\u8017
p2898
aV\u5f00\u673a
p2899
aV3.5
p2900
aVCSDN
p2901
aV\u516c\u5bd3
p2902
aV\u8bca\u6240
p2903
aV\u600e\u6837
p2904
aV\u76db\u5178
p2905
aV\u8bfe\u4e0a
p2906
aV\u76f8\u805a
p2907
aV\u6c47\u62a5
p2908
aV\u978b\u5b50
p2909
aV\u7269\u6d41
p2910
aV\u5929\u5929\u5411\u4e0a
p2911
aV\u4e0a\u4f20
p2912
aV\u9650\u884c
p2913
aV\u5ef6\u8fdf
p2914
aV\u6ca1\u7761
p2915
aV\u65e0\u8da3
p2916
aV\u58f0\u97f3
p2917
aV300
p2918
aVbm
p2919
aV\u79bb\u7ebf
p2920
aV\u81ea\u5df1
p2921
aV\u5e72\u561b
p2922
aV\u8fdb\u7403
p2923
aV\u94b1\u5305
p2924
aVbr
p2925
aV\u5750\u5728
p2926
aV\u804c\u573a
p2927
aV\u9ad8\u5cf0
p2928
aV\u4e3b\u5e2d
p2929
aV\u63d0\u9192
p2930
aV\u4e00\u79d2
p2931
aV\u6beb\u65e0
p2932
aV\u52e4\u594b
p2933
aV\u5317\u4eac\u5927\u5b66\u6cd5\u5b66\u9662
p2934
aV\u897f\u5355
p2935
aV\u9e2d\u68a8
p2936
aV\u7a7a\u8c03
p2937
aV\u4e03\u70b9
p2938
aV\u70b9\u591a
p2939
aV\u5185\u5bb9
p2940
aV\u6d88\u606f
p2941
aV\u5168\u73ed
p2942
aV\u7a7a\u6c14
p2943
aV\u4e0a\u8f66
p2944
aV\u90b1\u5fb7\u62d4
p2945
aV\u6bcf\u5f53
p2946
aV\u6ca1\u5f97
p2947
aV\u53d1\u8d22
p2948
aV\u571f\u8c6a
p2949
aV\u804a\u8d77
p2950
aV\u5e08\u5f1f
p2951
aV\u5047\u671f
p2952
aV\u800c\u662f
p2953
aV\u54fc\u54fc
p2954
aV\u4eba\u7c7b
p2955
aV\u8054\u60f3
p2956
aV\u8bc1\u660e
p2957
aV\u5c4f\u853d
p2958
aV\u4e2d\u5956
p2959
aV\u8bb0\u8005
p2960
aV\u542c\u4e0d\u61c2
p2961
aV\u4e09\u89c2
p2962
aV\u53f0\u98ce
p2963
aV\u542c\u529b
p2964
aV\u706b\u8f66\u7968
p2965
aVA\u80a1
p2966
aV\u7efc\u5408\u75c7
p2967
aV\u793e\u4f1a
p2968
aV..
p2969
aV\u8bfb\u7814
p2970
aV\u521b\u4e1a
p2971
aV\u5b89\u6170
p2972
aV\u4e0d\u6b62
p2973
aV\u6301\u7eed
p2974
aV\u65e2\u7136
p2975
aV\u820c\u5c16
p2976
aV\u70e6\u8e81
p2977
aV\u5171\u9e23
p2978
aV\u8bb0\u6027
p2979
aV\u597d\u51e0\u4e2a
p2980
aV\u7f9e\u55d2
p2981
aViphone
p2982
aV\u5f98\u5f8a
p2983
aV\u592a\u8fc7
p2984
aV\u4e24\u4e2a
p2985
aV\u7ebd\u6fb3
p2986
aV\u987f\u65f6
p2987
aV\u505a\u4eba
p2988
aV\u826f\u5fc3
p2989
aV\u7528\u6237
p2990
aV\u4e00\u767e\u5e74
p2991
aV\u4e45\u8fdd
p2992
aV\u53d6\u7968
p2993
aVGoogle
p2994
aV\u6613\u8d2d
p2995
aV\u8d85\u8d8a
p2996
aV\u6b8b\u9177
p2997
aV\u6218\u6597
p2998
aV\u6d3b\u52a8
p2999
aV\u514b\u5236
p3000
aV\u6c42\u7b7e
p3001
aV\u828d\u836f\u5c45
p3002
aVGDP
p3003
aV\u52a8\u529b
p3004
aV\u738b\u529b\u5b8f
p3005
aV\u61d2\u5f97
p3006
aV\u4efb\u4f55
p3007
aV\u80cc\u540e
p3008
aV\u592b\u5b50\u5e99
p3009
aV\u56db\u70b9
p3010
aV\u4e5f\u8bb8
p3011
aV....
p3012
aV\u7d27\u6025
p3013
aV\u4e4b\u524d
p3014
aV\u4ed8\u51fa
p3015
aV\u5931\u7720
p3016
aV\u79bb\u5f00
p3017
aV\u86cb\u7cd5
p3018
aV\u516d\u5468\u5e74
p3019
aV\u53f8\u6cd5
p3020
aV\u91ca\u7136
p3021
aV\u5730\u9707
p3022
aV\u9700\u6c42
p3023
aV\u6982\u7387
p3024
aV\u754c\u9762
p3025
aV\u6ee1\u8111\u5b50
p3026
aV\u73a9\u513f
p3027
aV\u5c3d\u5934
p3028
aV\u53d6\u6d88
p3029
aV\u5168\u65b0
p3030
aV\u516b\u5366
p3031
aV\u4e0d\u80fd\u4e0d\u8981
p3032
aV\u975e\u8bda
p3033
aV\u4e2d\u79cb
p3034
aV\u6279\u8bc4
p3035
aV\u9759\u9759
p3036
aV\u52a8\u7269
p3037
aV\u8bf4\u5b9e\u8bdd
p3038
aV\u91d1\u9675
p3039
aV\u6709\u70b9\u513f
p3040
aV\u665a\u9910
p3041
aV\u6c99\u7530\u533a
p3042
aV\u5168\u4e16\u754c
p3043
aV\u6821\u53cb\u4f1a
p3044
aV\u4e3e\u529e
p3045
aV\u597d\u559d
p3046
aVTT
p3047
aV\u6307\u5bfc
p3048
aV\u6bd4\u8d77
p3049
aV\u8001\u516c
p3050
aV\u4e8c\u6708
p3051
aV\u60ca\u8273
p3052
aV\u9707\u611f
p3053
aV\u5c34\u5c2c
p3054
aVTM
p3055
aV\u7d2f\u6b7b
p3056
aV\u542c\u5230
p3057
aV\u8bb2\u8bdd
p3058
aV\u80a1\u7968
p3059
aV\u5feb\u8239
p3060
aV\u7403\u8ff7
p3061
aVTA
p3062
aV\u5bb6\u4e61
p3063
aV\u957f\u767d
p3064
aV\u90c1\u95f7
p3065
aV\u77eb\u60c5
p3066
aV\u6069\u7231
p3067
aVT2
p3068
aVT3
p3069
aV\u652f\u6301
p3070
aV\u55f7\u55f7
p3071
aV\u627e\u4e2a
p3072
aV\u5bbd\u5e26
p3073
aV\u4e0d\u7b97
p3074
aV\u672a\u540d
p3075
aV\u5f71\u54cd
p3076
aV\u6709\u65f6\u5019
p3077
aV\u7f3a\u4e4f
p3078
aV\u6d6a\u8d39
p3079
aV\u665a\u996d
p3080
aV\u62dc\u5e74
p3081
aV\u6709\u6ca1\u6709
p3082
aV\u54b3\u55fd
p3083
aV\u8e22\u7403
p3084
aV\u8bd5\u8bd5
p3085
aV\u6311\u6218
p3086
aV\u8d85\u7ea7
p3087
aV\u6211\u4f1a
p3088
aV\u6d17\u8863\u670d
p3089
aV\u60f3\u5ff5
p3090
aV\u56fd\u9645
p3091
aV\u884c\u4e14
p3092
aV\u4e00\u5207\u90fd\u662f
p3093
aV\u767b\u9646
p3094
aV\u8f93\u7403
p3095
aV\u5927\u6e05\u65e9
p3096
aV\u884c\u4e1a
p3097
aV\u679c\u7136
p3098
aV\u56de\u6765
p3099
aV\u6211\u60f3
p3100
aV\u56f0\u60d1
p3101
aV\u4e00\u5207
p3102
aV\u65c5\u7a0b
p3103
aV\u53bb\u5e74
p3104
aV\u4e71\u4e03\u516b\u7cdf
p3105
aV\u6211\u80fd
p3106
aV\u65e9\u8d77
p3107
aV\u6587\u827a
p3108
aV\u9e22\u5c3e
p3109
aV\u7a0b\u5e8f\u5458
p3110
aV\u7ecf\u7eac
p3111
aV\u4efb\u6027
p3112
aV\u53d1\u8d27
p3113
aV\u6dd8\u5b9d
p3114
aV\u54a8\u8be2
p3115
aV\u6c42\u5a5a
p3116
aV\u5546\u4e1a\u6a21\u5f0f
p3117
aV\u770b\u7740
p3118
aV\u516b\u7ea7
p3119
aV\u771f\u662f\u592a
p3120
aV\u4e91\u5357
p3121
aV\u6240\u4ee5
p3122
aV\u505a\u68a6
p3123
aV\u6765\u81ea
p3124
aV\u7535\u5f71
p3125
aV\u706b\u7bad
p3126
aV\u4e00\u5230
p3127
aV\u8d8a\u662f
p3128
aV\u8981\u4e48
p3129
aV\u4e00\u523b
p3130
aV\u6821\u957f
p3131
aV\u56e2\u961f
p3132
aV\u5f00\u653e
p3133
aV\u5e0c\u671b
p3134
aV\u9ed1\u7ebf
p3135
aV\u4e3a\u4f55
p3136
aV\u7b97\u6cd5
p3137
aV\u65b0\u5e74\u5feb\u4e50
p3138
aV\u706b\u8f66
p3139
aV\u4e00\u7247
p3140
aV\u53d1\u8d77
p3141
aV\u706b\u5f71
p3142
aV\u56de\u5f52
p3143
aV\u5bb3\u6015
p3144
aV\u5f53\u5e74
p3145
aV\u503c\u5f97\u7eaa\u5ff5
p3146
aV\u8dd1\u6b65
p3147
aV\u7948\u798f
p3148
aV\u5237\u65b0
p3149
aV\u76f8\u4eb2
p3150
aV\u6253\u8f66
p3151
aV\u7a79\u9876
p3152
aV\u8eab\u4f53
p3153
aV\u7ea2\u706f\u7b3c
p3154
aV\u9ad8\u7aef
p3155
aV\u6001\u5ea6
p3156
aV\u770b\u770b
p3157
aV\u5fae\u4fe1
p3158
aVnotes
p3159
aV\u9b54\u5492
p3160
aV\u65b0\u6c14\u8c61
p3161
aV\u5e74\u524d
p3162
aV\u7acb\u5fd7
p3163
aV\u554a\u554a\u554a
p3164
aV\u65b0\u6d6a
p3165
aV\u65f6\u5019
p3166
aV\u8bfe\u5802
p3167
aV\u5efa\u79c0
p3168
aV\u9875\u9762
p3169
aV\u661f\u671f
p3170
aV\u5403\u60ca
p3171
aV\u7384\u6b66\u6e56
p3172
aV\u601d\u8003
p3173
aV\u679c\u7f51
p3174
aV\u56de\u9f99\u89c2
p3175
aV\u575a\u6301
p3176
aV\u4e0d\u8d77
p3177
aV\u4eab\u53d7
p3178
aV\u5927\u6c14
p3179
aVzz
p3180
aV\u6bcd\u4eb2
p3181
aV\u957f\u5927
p3182
aV\u8d25\u5bb6
p3183
aV\u514d\u8d39
p3184
aV3D
p3185
aV\u4e00\u5927
p3186
aV\u6821\u533a
p3187
aV\u6295\u7ed9
p3188
aV\u7406\u79d1
p3189
aV\u5706\u6ee1
p3190
aV\u521a\u770b
p3191
aV\u7948\u7977
p3192
aV\u623f\u5b50
p3193
aV\u7ffb\u8bd1\u6210
p3194
aV\u4e2d\u56fd
p3195
aV\u6574\u4e2a
p3196
aVnikerunning
p3197
aV\u611f\u8c22
p3198
aV\u5229\u7387
p3199
aV\u5c0f\u59d0
p3200
aV\u60f3\u4e0d\u8d77\u6765
p3201
aV\u5224\u65ad
p3202
aV\u7c89\u5341\u4e0b
p3203
aV\u8001\u5e08
p3204
aV\u597d\u96be
p3205
aVCCTV
p3206
aV\u4f60\u4eec
p3207
aV\u7ad9\u5e86
p3208
aV\u5047\u88c5
p3209
aV\u5fe7\u4f24
p3210
aV\u8bf4\u8d70\u5c31\u8d70
p3211
aV\u5230\u624b
p3212
aV\u7f51\u53cb
p3213
aV\u56de\u5fc6
p3214
aV\u7535\u95ea\u96f7\u9e23
p3215
aV\u5783\u573e\u6876
p3216
aV39
p3217
aV38
p3218
aV\u6211\u6015
p3219
aV\u76ae\u76ae
p3220
aV\u5fae\u8f6f
p3221
aV33
p3222
aV32
p3223
aV31
p3224
aV30
p3225
aV37
p3226
aV36
p3227
aV\u591a\u8c22
p3228
aV\u91cd\u88c5
p3229
aV\u4e00\u4f1a\u513f
p3230
aV\u4e2d\u5956\u7387
p3231
aV\u6109\u60a6
p3232
aV\u5fc3\u7075
p3233
aV\u722c\u8d77\u6765
p3234
aV\u5206\u6790
p3235
aV\u5927\u5bb6
p3236
aV\u8fa9\u8bba
p3237
aV\u6c89\u9ed8
p3238
aV\u4e00\u5e2e
p3239
aVapp
p3240
aV\u6d17\u5b8c
p3241
aV\u62db\u52df
p3242
aV\u8981\u6c42
p3243
aV\u6253\u4e2a
p3244
aV\u5929\u732b
p3245
aV\u56fe\u866b
p3246
aV\u738b\u83f2
p3247
aVtwrittenyet
p3248
aV........
p3249
aV\u5fc3\u810f
p3250
aV\u5f3a\u70c8\u63a8\u8350
p3251
aV\u97e9\u5267
p3252
aV\u4f53\u4f1a
p3253
aV\u9891\u9053
p3254
aV\u53cd\u7701
p3255
aV\u5e74\u8f7b
p3256
aV\u7b97\u662f
p3257
aV\u65f6\u5149
p3258
aV\u840c\u840c
p3259
aV\u5730\u70b9
p3260
aV\u8fdc\u79bb
p3261
aV\u80fd\u529b
p3262
aV\u7167\u7247
p3263
aV\u89c1\u5230
p3264
aV\u539f\u5219
p3265
aV\u5e7f\u544a
p3266
aV\u65e0\u6094
p3267
aV\u5f97\u5230
p3268
aV\u540c\u5b66
p3269
aV\u7834\u4ea7
p3270
aV\u7b2c\u4e8c\u6b21
p3271
aV\u7d2f\u6210
p3272
aV\u50b2\u9aa8
p3273
aV\u5f20\u6c5f
p3274
aV\u79c1\u623f
p3275
aV\u8fc7\u5ba2
p3276
aV\u4e00\u5343
p3277
aV\u60a0\u60a0
p3278
aV\u5e74\u4f1a
p3279
aV\u771f\u8bda
p3280
aV\u5fc3\u91cc
p3281
aV\u4e00\u534a
p3282
aV\u5dee\u8bc4
p3283
aV\u731c\u731c
p3284
aV\u795e\u6e05\u6c14\u723d
p3285
aV\u5b87\u5b99
p3286
aV\u751f\u6daf
p3287
aV\u65b0\u9c9c
p3288
aV\u4e4b\u7c7b
p3289
aV\u8bb8\u613f
p3290
aV\u5e08\u5144
p3291
aV\u6ee8\u6c5f
p3292
aVhigh
p3293
aV\u4f1a\u8bae
p3294
aV\u9984\u9968
p3295
aVMark
p3296
aV\u7535\u5b50
p3297
aV\u6ee1\u610f
p3298
aV\u65cb\u5f8b
p3299
aV\u822a\u7a7a
p3300
aV\u6c5f\u5357
p3301
aV\u8f6f\u4ef6
p3302
aV\u516c\u4ea4\u7ad9
p3303
aV\u54c8\u54c8\u54c8
p3304
aV\u4e2d\u573a
p3305
aV\u661f\u661f
p3306
aV\u54e5\u54e5
p3307
aVYY
p3308
aV\u526a\u8f91
p3309
aV\u667a\u9f7f
p3310
aV\u597d\u4e45\u4e0d\u89c1
p3311
aV\u81ea\u52a9
p3312
aV\u8001\u7f57
p3313
aV\u8c8c\u4f3c
p3314
aV\u805a\u9910
p3315
aV\u591c\u91cc
p3316
aV\u7761\u7740
p3317
aV\u574f\u4e8b
p3318
aV\u50f5\u5c38
p3319
aV\u8857\u821e
p3320
aV\u7f16\u5267
p3321
aV\u6df1\u523b
p3322
aV\u505c\u6c34
p3323
aV\u5b66\u751f
p3324
aV\u96be\u770b
p3325
aV\u4e94\u6708
p3326
aV\u4e00\u4e2a\u534a
p3327
aV\u4e00\u74f6
p3328
aV\u7687\u9a6c
p3329
aV\u5409\u7965
p3330
aV\u62cd\u9898
p3331
aV\u96f6\u98df
p3332
aV\u7761\u7720
p3333
aV\u5c0f\u9f99
p3334
aV\u79d8\u5bc6
p3335
aVKTV
p3336
aV\u4e00\u8f88\u5b50
p3337
aV\u4e13\u5bb6
p3338
aV\u5927\u5b78
p3339
aV\u5927\u5b66
p3340
aV\u51fa\u7ebf
p3341
aV\u820d\u5f97
p3342
aV\u9047\u89c1
p3343
aV\u9e21\u9e23\u5bfa
p3344
aV\u5408\u80a5
p3345
aV\u9a7e\u6821
p3346
aV\u676d\u5dde
p3347
aV\u4f0a\u6717
p3348
aV\u56db\u5929
p3349
aV\u5ba2\u6237\u7aef
p3350
aV\u9752\u5965\u4f1a
p3351
aV\u6253\u6eda
p3352
aV\u5bf9\u624b
p3353
aVApple
p3354
aV\u4e00\u53e5
p3355
aV\u65e0\u804a
p3356
aV\u56db\u5e74
p3357
aV\u9886\u5bfc
p3358
aV\u665a\u7761
p3359
aV\u8bb2\u5802
p3360
aV\u5bdd\u5ba4
p3361
aV\u4e00\u53f0
p3362
aV\u5fc3\u9178
p3363
aV\u81ea\u52c9
p3364
aV\u66b4\u96e8
p3365
aV\u5fc3\u60f3\u4e8b\u6210
p3366
aV\u771f\u6b63
p3367
aV\u7279\u522b
p3368
aV\u56fd\u5bb6
p3369
aV\u4e8c\u53f7\u7ebf
p3370
aV\u5c0f\u5b69
p3371
aV\u5c0f\u5b66
p3372
aV\u81ea\u7136
p3373
aV\u54ea\u6837
p3374
aV\u91cd\u6e29
p3375
aV\u56db\u5ddd
p3376
aV\u592a\u9633\u5bab
p3377
aV\u53ef\u601c
p3378
aV\u5174\u594b
p3379
aV\u652f\u4ed8
p3380
aV\u53ef\u6015
p3381
aV\u767d\u5929
p3382
aV\u5065\u5eb7
p3383
aV\u6253\u8d25
p3384
aV\u623f\u79df
p3385
aV\u559d\u5496\u5561
p3386
aV\u4e0d\u8fc7
p3387
aV\u5fc3\u52a8
p3388
aV\u5f88\u96be
p3389
aV\u82b1\u75f4
p3390
aV\u53ea\u4f1a
p3391
aV\u6c47\u4e30
p3392
aV\u91c7\u8bbf
p3393
aV\u5730\u53bb
p3394
aV\u60f3\u5230
p3395
aV\u5e08\u7236
p3396
aV\u6309\u65f6
p3397
aVlt
p3398
aV\u8c46\u74e3
p3399
aV\u5341\u70b9
p3400
aV2014
p3401
aV\u53ef\u4e50
p3402
aV\u56fd\u5b89
p3403
aV2010
p3404
aV2013
p3405
aV2012
p3406
aV\u4f11\u5047
p3407
aV\u6548\u679c
p3408
aVpython
p3409
aV\u4e0b\u4e2a
p3410
aV\u5c31\u591f
p3411
aV\u7537\u5b50
p3412
aV\u771f\u68d2
p3413
aV\u4e00\u904d
p3414
aV\u88ab\u5b50
p3415
aV\u59b9\u7eb8
p3416
aV\u8282\u65e5\u5feb\u4e50
p3417
aViPhone
p3418
aV\u89c4\u5219
p3419
aV\u4eba\u95f4
p3420
aV\u65f6\u523b
p3421
aV\u591a\u4e91
p3422
aV\u5b97\u6559
p3423
aV\u8bcd\u6c47
p3424
aV\u6d3b\u5f97
p3425
aV\u5acc\u5f03
p3426
aV\u771f\u4e0d\u77e5\u9053
p3427
aV\u7f57\u672c
p3428
aV\u53d1\u4f5c
p3429
aV\u66f4\u65b0
p3430
aV\u773c\u770b
p3431
aV\u6700\u4f73
p3432
aV\u8bfe\u7a0b
p3433
aV\u6253\u8d4f
p3434
aV\u9080\u8bf7
p3435
aV\u591a\u4eba
p3436
aV\u51cc\u4e71
p3437
aV\u5927\u98ce
p3438
aV\u80fd\u91cf
p3439
aV\u5b64\u5355
p3440
aV\u70ed\u95f9
p3441
aV\u707f\u70c2
p3442
aV\u6bcd\u4eb2\u8282
p3443
aV\u4eca\u5929\u4e0a\u5348
p3444
aV\u51fa\u5dee
p3445
aV\u6d41\u6cea
p3446
aV\u591a\u4e48
p3447
aV\u6cea\u70b9
p3448
aV\u6ca1\u5173\u7cfb
p3449
aV\u5927\u56db
p3450
aV\u5c0f\u65f6\u5019
p3451
aV700
p3452
aV\u901d\u53bb
p3453
aV\u575a\u4fe1
p3454
aV\u4f5c\u6587
p3455
aV\u96be\u542c
p3456
aV80
p3457
aVipad
p3458
aV87
p3459
aV85
p3460
aV\u9762\u5305
p3461
aV\u56f0\u6270
p3462
aV\u624b\u6e38
p3463
aV\u4e07\u67f3
p3464
aV\u534a\u5c0f\u65f6
p3465
aVPKU
p3466
aVCEO
p3467
aV\u7b49\u5230
p3468
aV\u4e0d\u4f4f
p3469
aV\u4e4b\u7f8e
p3470
aV\u7f51\u901f
p3471
aV\u98ce\u6247
p3472
aV\u8fdc\u65b9
p3473
aV\u4e2d\u56fd\u961f
p3474
aV\u4eba\u751f
p3475
aV\u6b22\u4e50
p3476
aV\u4e00\u70b9
p3477
aV\u6f2b\u957f
p3478
aV\u53ef\u60b2
p3479
aV\u6392\u961f
p3480
aV\u4fe1\u7528\u5361
p3481
aV\u6216\u8005
p3482
aV\u60ec\u610f
p3483
aV\u9ad8\u5bcc\u5e05
p3484
aV\u6ca1\u4eba
p3485
aV\u7f62\u4e86
p3486
aV\u6240\u8c13
p3487
aV\u5b66\u9662
p3488
aV\u56fd\u5b66
p3489
aV\u60c6\u6005
p3490
aV\u8513\u831c\u831c
p3491
aV\u901a\u5bb5
p3492
aV\u6587\u660e
p3493
aV\u5b66\u957f
p3494
aV\u529b\u91cf
p3495
aV\u94fe\u63a5
p3496
aV\u5176\u4ed6\u4eba
p3497
aV\u601d\u7ef4
p3498
aVMOOC
p3499
aV\u4fbf\u5b9c
p3500
aV\u627e\u56de
p3501
aV\u76d6\u8328
p3502
aV\u4e09\u6708
p3503
aV\u524d\u884c
p3504
aV\u4e00\u90e8
p3505
aVmac
p3506
aV\u717d\u60c5
p3507
aV\u53ef\u80fd
p3508
aV\u5bf9\u8c61
p3509
aV\u603b\u7406
p3510
aV\u8ffd\u6c42
p3511
aV\u6f2b\u753b
p3512
aV\u653e\u5047
p3513
aV\u6885\u82b1
p3514
aV\u7406\u8bba
p3515
aV\u63ea\u5fc3
p3516
aV\u9646\u6052
p3517
aV\u8fd9\u5c4a
p3518
aV\u4e0b\u8f66
p3519
aV\u5bf9\u4e0d\u8d77
p3520
aV\u5f7b\u5e95
p3521
aV\u602a\u4e0d\u5f97
p3522
aV\u7231\u4eba
p3523
aV\u77ed\u8896
p3524
aV\u597d\u5927
p3525
aV\u6536\u8d39
p3526
aV\u53d1\u4e2a
p3527
aV\u5e74\u9f84
p3528
aV\u4e0b\u8f7d
p3529
aV\u603b\u5728
p3530
aV\u68d2\u68d2
p3531
aV\u62d2\u7edd
p3532
aV\u6b22\u8fce
p3533
aV\u611f\u89e6
p3534
aV\u8425\u9500
p3535
aV\u597d\u591a
p3536
aV\u597d\u5904
p3537
aV\u54f2\u5b66
p3538
aV\u4e8b\u6545
p3539
aV\u8089\u5939\u998d
p3540
aV\u8fce\u65b0
p3541
aV\u9664\u5915
p3542
aV\u5947\u602a
p3543
aV\u5927\u5988
p3544
aV\u767e\u5468\u5e74
p3545
aV\u8bd7\u6b4c
p3546
aV\u770b\u5427
p3547
aV\u4e00\u53e3
p3548
aV\u597d\u597d
p3549
aV\u4e3a\u5565
p3550
aV\u97f3\u4e50
p3551
aV\u6bb5\u65f6\u95f4
p3552
aV\u76ee\u6807
p3553
aV\u5982\u4f55
p3554
aV\u73ed\u8f66
p3555
aV\u817e\u8baf
p3556
aV\u53eb\u505a
p3557
aV\u672c\u547d\u5e74
p3558
aV\u653f\u7ba1
p3559
aV\u534a\u51b3\u8d5b
p3560
aV\u82b1\u94b1
p3561
aV\u6c5f\u4e1c
p3562
aV\u4e0d\u4e86
p3563
aV\u7cbe\u795e
p3564
aV\u71d5\u4eac
p3565
aV\u7070\u5e38
p3566
aV\u4eba\u54c1
p3567
aV\u6709\u4e2a
p3568
aV\u4e00\u53ea
p3569
aV\u597d\u5947
p3570
aV\u4e00\u5171
p3571
aV\u5c0f\u82f9\u679c
p3572
aV\u5a5a\u59fb
p3573
aV1.5
p3574
aV\u843d\u53f6
p3575
aV\u795e\u9a6c
p3576
aV\u7535\u5b50\u4e66
p3577
aV\u671d\u9c9c
p3578
aV\u6709\u70b9\u7d2f
p3579
aV\u5927\u793c
p3580
aV\u516c\u76ca
p3581
aV\u773c\u775b
p3582
aV\u5927\u5927
p3583
aV\u4fe1\u4ef0
p3584
aV\u5e94\u7528
p3585
aV\u4e00\u4e9b
p3586
aV\u8fc7\u540e
p3587
aV\u8bc4\u59d4
p3588
aV\u5df2\u7ecf
p3589
aV\u4e92\u52a8
p3590
aV2.1
p3591
aV\u6bcf\u5230
p3592
aV\u5173\u673a
p3593
aV\u526a\u5934\u53d1
p3594
aV\u6211\u7231\u4f60
p3595
aV\u505a\u597d
p3596
aV4000
p3597
aV\u5b69\u5b50
p3598
aV\u63a8\u8350
p3599
aV\u516c\u56ed
p3600
aV\u4e60\u4e60
p3601
aV\u9ad8\u5927
p3602
aV\u79ef\u5206
p3603
aV\u5a5a\u793c
p3604
aV\u6211\u9662
p3605
aV\u53d1\u4e86
p3606
aV\u4e0d\u5c11
p3607
aV\u68a6\u91cc
p3608
aV\u4f20\u7edf
p3609
aV\u4e00\u53f7
p3610
aV02
p3611
aV\u5efa\u8bae
p3612
aV\u540d\u6821
p3613
aV\u95ed\u5173
p3614
aV\u5957\u9910
p3615
aV\u72b6\u6001
p3616
aV\u732a\u5934
p3617
aV\u4e0b\u5b66\u671f
p3618
aV\u5927\u597d
p3619
aV\u4e0a\u706b
p3620
aV\u8b66\u62a5
p3621
aV\u8f7b\u677e
p3622
aVC++
p3623
aV\u5435\u9192
p3624
aV\u56fd\u5916
p3625
aV\u89c2\u4f17
p3626
aV\u5199\u4f5c
p3627
aV\u56db\u4e2a
p3628
aV\u5171\u52c9
p3629
aV\u603b\u6709
p3630
aV07
p3631
aV\u601d\u5ff5
p3632
aV\u5927\u5956
p3633
aV\u70b9\u540d
p3634
aV\u4eba\u80fd
p3635
aV\u5927\u795e
p3636
aV\u70b9\u7403
p3637
aV\u5f8b\u5e08
p3638
aV\u4e0d\u4e0a
p3639
aV\u6982\u5ff5
p3640
aV\u53d1\u7ea2\u5305
p3641
aV\u7248\u672c
p3642
aV\u5c71\u5be8
p3643
aV\u5c4c\u4e1d
p3644
aV08
p3645
aV\u7a7f\u7740
p3646
aV\u641c\u72d7
p3647
aV\u6c34\u679c
p3648
aV\u57f9\u8bad
p3649
aV\u6c9f\u901a
p3650
aV\u9f13\u697c
p3651
aV\u6210\u4e3a
p3652
aV\u80c3\u53e3
p3653
aV\u865a\u62df\u673a
p3654
aV\u5584\u5f85
p3655
aV\u672c\u4e8b
p3656
aV\u52a0\u73ed
p3657
aV\u4e54\u5e03\u65af
p3658
aV\u5149\u68cd\u8282
p3659
aV\u8d3a\u7535
p3660
aV\u6050\u60e7
p3661
aV\u54ea\u4e2a
p3662
aV\u9ad8\u4e09
p3663
aV\u7559\u8a00
p3664
aV\u53ef\u662f
p3665
aV\u7fa4\u91cc
p3666
aV\u98de\u5e38\u51c6
p3667
aV\u4e0d\u89c1
p3668
aV\u88c1\u5224
p3669
aV6000
p3670
aV\u8fc7\u53bb
p3671
aV\u9ad8\u7ea7
p3672
aV\u535a\u5ba2
p3673
aV\u6cf0\u56fd
p3674
aV\u597d\u5e05
p3675
aV\u5f97\u610f
p3676
aV\u62ac\u5934
p3677
aVMeMeDahttp
p3678
aV\u516c\u5173
p3679
aV\u8fdf\u65e9
p3680
aV\u516c\u5171
p3681
aV\u793c\u8c8c
p3682
aVnikeplus
p3683
aV\u672c\u4eba
p3684
aV\u81ea\u7701
p3685
aV\u4e4b\u591c
p3686
aV\u6253\u6b7b
p3687
aV\u4e0b\u5b9a\u51b3\u5fc3
p3688
aV\u7ed3\u5a5a
p3689
aV\u575a\u5f3a
p3690
aV\u7aef\u5348
p3691
aV\u7b80\u4ecb
p3692
aV\u7406\u6027
p3693
aV\u771f\u4e0d\u5bb9\u6613
p3694
aV\u8fce\u63a5
p3695
aV\u80d6\u5b50
p3696
aV\u4f30\u8ba1
p3697
aV\u6539\u4e3a
p3698
aV\u961f\u53cb
p3699
aV\u601d\u5bc6\u8fbe
p3700
aV\u59e5\u7237
p3701
aV\u53d1\u73b0\u81ea\u5df1
p3702
aV\u7537\u4eba
p3703
aV\u7075\u9b42
p3704
aVqq
p3705
aV\u89c1\u9762
p3706
aV\u4e0d\u8981
p3707
aV\u56de\u987e
p3708
aV\u76db\u5bb4
p3709
aV\u535a\u58eb
p3710
aV\u8c22\u8c22\u4f60\u4eec
p3711
aV\u8981\u662f
p3712
aV\u95fa\u871c
p3713
aV\u5b8c\u6bd5
p3714
aV\u674e\u5a1c
p3715
aV\u5fc5\u987b
p3716
aVshi
p3717
aV\u63a5\u53d7
p3718
aV\u4ee5\u540e
p3719
aV\u7956\u56fd
p3720
aViPad
p3721
aV\u73b0\u573a
p3722
aV\u72d7\u8840
p3723
aV\u5b9d\u8d1d
p3724
aV\u7eaa\u5ff5
p3725
aV\u516c\u91cc
p3726
aV\u6709\u4f55
p3727
aV\u5fc3\u7406
p3728
aV\u6c42\u4e0a
p3729
aV\u6c5f\u82cf
p3730
aV\u597d\u6d88\u606f
p3731
aV\u6709\u4f4d
p3732
aV\u5149\u660e
p3733
aV\u6d51\u8eab
p3734
aV\u6606\u660e
p3735
aVgmail
p3736
aV\u975e\u5e38
p3737
aVPS
p3738
aV\u6df1\u5733
p3739
aV\u4f9d\u7136
p3740
aV\u4eca\u5929\u4e0b\u5348
p3741
aV\u7ba1\u7406
p3742
aV\u6c99\u6f20
p3743
aV\u7089\u77f3
p3744
aV\u8c37\u6b4c
p3745
aV\u7761\u524d
p3746
aV\u56de\u5bb6
p3747
aV\u4e9a\u6c99\u8d5b
p3748
aV\u60b2\u4f24
p3749
aV\u521b\u9020
p3750
aV\u8d28\u91cf
p3751
aVPE
p3752
aV\u6240\u6709\u4eba
p3753
aV\u56de\u4e0d\u53bb
p3754
aV\u5f00\u6e90
p3755
aV\u5927\u5e08
p3756
aV\u4e00\u96c6
p3757
aV\u53f0\u5317
p3758
aV\u798f\u5229
p3759
aV\u503c\u5f97
p3760
aV\u7b7e\u5230
p3761
aV\u559c\u611f
p3762
aV\u5934\u6655
p3763
aV\u71d5\u56ed
p3764
aV\u7b97\u4e0d\u7b97
p3765
aV\u65e0\u6570
p3766
aV\u6cb3\u897f
p3767
aV\u5206\u624b
p3768
aV\u7537\u4e3b
p3769
aV\u611f\u4eba
p3770
aV\u672c\u4e66
p3771
aV\u53d1\u90ae\u4ef6
p3772
aV\u5e73\u677f
p3773
aV\u624b\u673a\u53f7
p3774
aV\u7ae5\u978b
p3775
aV\u7cfb\u7edf
p3776
aV\u6307\u70b9
p3777
aV\u6076\u610f
p3778
aV\u4fdd\u62a4
p3779
aV\u5927\u5e45
p3780
aV\u6821\u53f2
p3781
aV\u4e00\u76f4
p3782
aV\u773c\u524d
p3783
aV\u4ea4\u6613
p3784
aV\u5357\u65b9
p3785
aV\u8bf4\u8bdd
p3786
aV\u770b\u5267
p3787
aVcn
p3788
aV\u533a\u522b
p3789
aV\u4e00\u770b
p3790
aV\u4e00\u5708
p3791
aV\u4e2d\u534e
p3792
aV\u4e2d\u5348
p3793
aV\u4f5c\u8005
p3794
aV3G
p3795
aV\u5c0f\u9c7c
p3796
aV\u4e00\u5c81
p3797
aV\u8ff7\u5931
p3798
aV\u6b27\u51a0
p3799
aV\u65e0\u80fd\u4e3a\u529b
p3800
aV\u671f\u5f85
p3801
aV\u5c0f\u7c73
p3802
aV\u751f\u65e5\u5feb\u4e50
p3803
aV\u89e3\u8bf4
p3804
aV\u4ee5\u524d
p3805
aV\u6caa\u84c9
p3806
aV\u8f93\u7ed9
p3807
aV\u8981\u6765
p3808
aV\u5927\u5b66\u751f
p3809
aV\u8d22\u5bcc
p3810
aV\u8bba\u6587
p3811
aV\u5e73\u5b89\u591c
p3812
aV\u7968\u9009
p3813
aV\u62ff\u4e0b
p3814
aV\u6536\u62fe
p3815
aV\u5317\u56db\u73af
p3816
aV\u5fc3\u75bc
p3817
aV\u4e00\u573a
p3818
aV\u672c\u5b66\u671f
p3819
aV\u4e00\u5927\u65e9
p3820
aVbbs
p3821
aV\u8d5a\u94b1
p3822
aV\u4e00\u773c
p3823
aV\u6765\u88ad
p3824
aV\u79c1\u4fe1
p3825
aV\u6709\u4e9b
p3826
aV\u4eba\u6027
p3827
aV\u7f8e\u5e1d
p3828
aV\u4e00\u4ee3
p3829
aV\u660e\u65e5
p3830
aV\u5468\u5e74
p3831
aV\u953b\u70bc
p3832
aV\u59b9\u59b9
p3833
aV\u6700\u5f3a
p3834
aV\u6709\u4e8b
p3835
aV\u770b\u5230
p3836
aV\u4fdd\u6301
p3837
aV\u4e00\u5757
p3838
aV\u611f\u89c9
p3839
aV\u5341\u4e8c\u70b9
p3840
aV\u67d0\u4e2a
p3841
aV\u53d1\u8868
p3842
aV\u8fd9\u4e48\u4e45
p3843
aV\u8d8b\u52bf
p3844
aV\u5b66\u751f\u4f1a
p3845
aV\u8981\u4e0d\u7136
p3846
aV\u5c0f\u5c0f
p3847
aV\u5e7f\u5dde
p3848
aV\u6709\u4eba
p3849
aV\u77ed\u4fe1
p3850
aV\u9f20\u6807
p3851
aV\u65e0\u8bba
p3852
aV\u5609\u5bbe
p3853
aV\u4e09\u91cc\u5c6f
p3854
aV\u5fcd\u4f4f
p3855
aV\u4ecb\u7ecd
p3856
aV\u96be\u53d7
p3857
aV\u559c\u60a6
p3858
aV\u54ea\u4f4d
p3859
aV\u8857\u5934
p3860
aV\u5916\u9762
p3861
aV\u8eab\u4efd\u8bc1
p3862
aV\u751f\u65e5
p3863
aVRvSl6rG
p3864
aV\u53ef\u4ee5
p3865
aV\u8bf7\u6559
p3866
aVTheClassic
p3867
aV\u4e8c\u8d27
p3868
aV\u70c2\u7247
p3869
aV\u97e9\u56fd
p3870
aV\u7ed3\u5c3e
p3871
aV\u889c\u5b50
p3872
aV\u7ec4\u7ec7
p3873
aV\u79cb\u5929
p3874
aVtataUFO
p3875
aV\u5dee\u4e0d\u591a
p3876
aV\u5b89\u606f
p3877
aV\u5730\u7403
p3878
aVvs
p3879
aV\u65f6\u95f4
p3880
aV\u5403\u665a\u996d
p3881
aV\u65b0\u95fb\u4e1a
p3882
aV\u7a7a\u6c14\u8d28\u91cf
p3883
aVDailyDoggeral
p3884
aV\u592a\u8d5e
p3885
aV\u6bdb\u6cfd\u4e1c
p3886
aV\u91cd\u8981
p3887
aV\u7ecf\u8425
p3888
aV\u5076\u9047
p3889
aV\u4e0d\u884c
p3890
aV\u4e07\u80fd
p3891
aV\u5496\u5561\u9986
p3892
aVMBA
p3893
aV\u5fcd\u4e0d\u4f4f
p3894
aV\u6708\u4eae
p3895
aV\u7b2c\u4e00\u573a
p3896
aV\u6e05\u7a7a
p3897
aV\u4e13\u5fc3
p3898
aV\u600e\u4e48\u529e
p3899
aV\u8d1f\u8d23
p3900
aV\u4fc4\u7f57\u65af
p3901
aV\u80dc\u5229
p3902
aV\u6050\u60e7\u75c7
p3903
aV0.1
p3904
aV\u5973\u795e
p3905
aV\u6bcf\u5468
p3906
aV\u5473\u9053
p3907
aV\u7535\u68af
p3908
aV\u4e0d\u7ed9\u529b
p3909
aV\u4e2d\u5c71\u8def
p3910
aV\u7acb\u9a6c
p3911
aV\u65e0\u654c
p3912
aVv3
p3913
aV\u5b9e\u9a8c
p3914
aV\u62bd\u98ce
p3915
aV\u725b\u8089
p3916
aV\u50bb\u773c
p3917
aV\u8fd8\u662f
p3918
aV\u529e\u516c\u5ba4
p3919
aV\u5927\u9152\u5e97
p3920
aV\u8111\u6d77
p3921
aV\u95ee\u95ee
p3922
aV\u5c0f\u7c89
p3923
aV\u67d0\u4e9b
p3924
aV\u7ffb\u76d8
p3925
aV\u523a\u6fc0
p3926
aV\u65b0\u5e74\u597d
p3927
aV\u8ddd\u79bb
p3928
aV\u5e72\u8d27
p3929
aV\u9003\u79bb
p3930
aV\u597d\u7528
p3931
aV\u4e27\u5fc3\u75c5\u72c2
p3932
aV\u53d1\u6761
p3933
aV\u5230\u6765
p3934
aV\u9057\u61be
p3935
aV\u7ed3\u5c40
p3936
aV\u5357\u56ed
p3937
aV\u5934\u6761
p3938
aV\u4e0d\u8be5
p3939
aV\u6539\u9769
p3940
aV\u77e5\u8bc6
p3941
aV\u6237\u53e3
p3942
aV\u5b9a\u4e49
p3943
aV\u505a\u4e8b
p3944
aV\u4e0d\u77e5\u4e0d\u89c9
p3945
aV\u9493\u9c7c\u5c9b
p3946
aV\u591c\u665a
p3947
aV\u81ea\u7531
p3948
aV\u8fd9\u4f1a\u513f
p3949
aV\u5bf9\u65b9
p3950
aV\u79bb\u522b
p3951
aV\u6b7b\u4ea1
p3952
aV\u623f\u5730\u4ea7
p3953
aV\u56de\u590d
p3954
aV\u65b0\u95fb\u8054\u64ad
p3955
aV\u963f\u59e8
p3956
aV\u6551\u52a9
p3957
aV\u6765\u8bf4
p3958
aV\u4ed6\u4f1a
p3959
aV\u5954\u6ce2
p3960
aV\u9047\u4e0a
p3961
aV\u86cb\u75bc
p3962
aV\u4e3b\u52a8
p3963
aV\u6652\u592a\u9633
p3964
aV\u957f\u5f97
p3965
aV\u5168\u6c11
p3966
aV\u56de\u5934
p3967
aVVictoria
p3968
aV\u8d8a\u72f1
p3969
aV\u665a\u70b9
p3970
aV\u897f\u5b89
p3971
aV\u94a5\u5319
p3972
aV\u5956\u54c1
p3973
aV\u5c0f\u4e38\u5b50
p3974
aV\u6839\u672c
p3975
aV\u6d6e\u8e81
p3976
aV\u545c\u545c
p3977
aV\u4e0d\u8ba9
p3978
aV\u90b1\u52c7
p3979
aV\u83ab\u540d
p3980
aV\u7b14\u8bd5
p3981
aV\u597d\u4e0d\u597d
p3982
aV\u5c0a\u91cd
p3983
aV\u5c0f\u5f3a
p3984
aV\u544a\u77e5
p3985
aV\u6d6e\u4e91
p3986
aV\u5185\u5b58
p3987
aV\u5feb\u70b9
p3988
aV\u9752\u6625
p3989
aV\u6280\u5de7
p3990
aV\u8fd9\u5929
p3991
aV\u5c71\u9e70
p3992
aV\u653f\u5e9c
p3993
aV\u4e0a\u6620
p3994
aV\u4e00\u5468
p3995
aV\u5e7c\u7a1a
p3996
aV\u5e73\u65f6
p3997
aV\u4f5c\u6b7b
p3998
aV\u5e86\u5e78
p3999
aV\u4e00\u4ee3\u5b97\u5e08
p4000
aV\u6574\u5929
p4001
aV\u5c0f\u7f16
p4002
aV\u6709\u8da3
p4003
aV\u9694\u58c1
p4004
aV\u5b66\u5230
p4005
aV\u6ee1\u6ee1\u7684
p4006
aV\u59cb\u7ec8
p4007
aV\u8fd9\u79cd
p4008
aV\u5e8a\u4e0a
p4009
aV\u52a0\u5165
p4010
aV\u9053\u5fb7
p4011
aV\u56de\u9996
p4012
aV\u63d0\u5347
p4013
aV\u7231\u5fc3
p4014
aV\u897f\u96c5\u56fe
p4015
aV\u660e\u663e
p4016
aV\u5b89\u68c0
p4017
aVNB
p4018
aV\u53d8\u5316
p4019
aV\u5373\u5c06
p4020
aV\u5c0f\u5ab3\u5987
p4021
aV\u6765\u5f97\u53ca
p4022
aV\u60ed\u6127
p4023
aV\u660e\u660e
p4024
aV\u5f88\u723d
p4025
aV\u884c\u674e
p4026
aV\u7ecf\u7406
p4027
aV\u5343\u91cc
p4028
aV\u5c0f\u5fc3
p4029
aV\u9053\u6b49
p4030
aV\u60c5\u4fa3
p4031
aV\u7f51\u7403
p4032
aVtmd
p4033
aV\u5230\u5904
p4034
aV\u660e\u661f
p4035
aV\u592a\u4e45
p4036
aV\u516d\u70b9
p4037
aV\u5012\u9709
p4038
aV\u4e1c\u95e8
p4039
aV\u5728\u610f
p4040
aV\u5bf9\u5f97\u8d77
p4041
aV\u997f\u6b7b
p4042
aV\u6625\u96e8
p4043
aVps
p4044
aV\u4e00\u5468\u5e74
p4045
aV\u544a\u522b
p4046
aV\u62db\u751f
p4047
aV\u7070\u7070
p4048
aV\u4f4e\u843d
p4049
aV\u5730\u5740
p4050
aV\u4e13\u8f66
p4051
aV\u70b9\u513f
p4052
aV\u51c6\u5907
p4053
aV\u571f\u8c46
p4054
aV\u6765\u5f97
p4055
aV\u91d1\u51ef
p4056
aVchrome
p4057
aV\u6cb3\u4e1c\u8def
p4058
aV\u5c0f\u7f8a
p4059
aV\u767b\u5f55
p4060
aV\u4f5c\u54c1\u5c55
p4061
aV\u96be\u9053
p4062
aV\u6c88\u6d77
p4063
aV\u8ba4\u771f
p4064
aV\u660e\u665a
p4065
aV\u65f6\u9694
p4066
aV\u8be6\u60c5
p4067
aV\u8868\u793a
p4068
aV\u4e0a\u6765
p4069
aV\u8721\u70db
p4070
aV\u4f53\u68c0
p4071
aV\u8f93\u5165\u6cd5
p4072
aV\u5435\u67b6
p4073
aV\u6307\u5357
p4074
aV\u5b9a\u4f4d
p4075
aV\u6570\u5b57
p4076
aV\u53e3\u8bed
p4077
aV\u7238\u7238\u5988\u5988
p4078
aV\u8001\u5916
p4079
aV\u62dc\u62dc
p4080
aV\u72ec\u7acb
p4081
aV\u9ed1\u591c
p4082
aV\u5feb\u9012
p4083
aV\u5173\u6389
p4084
aV\u68a6\u60f3
p4085
aV\u6295\u7968
p4086
aV\u7559\u604b
p4087
aV\u5df4\u795e
p4088
aV\u597d\u7d2f
p4089
aV\u627f\u8ba4
p4090
aV\u4e00\u751f
p4091
aV\u603b\u51b3\u8d5b
p4092
aV\u7d2b\u8346
p4093
aV\u4e66\u5e97
p4094
aV\u53d1\u9001
p4095
aV\u5929\u751f
p4096
aV\u6127\u759a
p4097
aV\u5954\u8dd1
p4098
aV\u53d1\u8a00
p4099
aV\u800c\u4e14
p4100
aV\u56fd\u5e86
p4101
aV\u6570\u5b66
p4102
aV\u8d2d\u4e70
p4103
aV\u591a\u4e45
p4104
aV\u901f\u5ea6
p4105
aV\u673a\u4f1a
p4106
aV\u4e0b\u6b21
p4107
aV\u5927\u5df4
p4108
aV\u51fa\u79df\u8f66
p4109
aVPM2
p4110
aV\u8001\u5988
p4111
aV\u519c\u6751
p4112
aV\u505a\u8fc7
p4113
aV\u9f13\u638c
p4114
aV\u65b9\u4fbf
p4115
aV\u8fd0\u8425
p4116
aV\u7edd\u4e0d
p4117
aV\u60f3\u7740
p4118
aV\u4e8b\u4ef6
p4119
aV\u7801\u519c
p4120
aV\u4e03\u5915
p4121
aV\u8d75\u51ac\u6885
p4122
aV\u5982\u6b64
p4123
aV\u4e03\u5929
p4124
aV\u4e07\u6cc9\u6cb3
p4125
aV\u7761\u4e00\u89c9
p4126
aV\u53d1\u8868\u6587\u7ae0
p4127
aV\u9a8c\u8bc1
p4128
aV\u516d\u516d
p4129
aV\u591a\u529f\u80fd\u5385
p4130
aV\u8bdd\u8d39
p4131
aV\u8bda\u5b9e
p4132
aV\u5076\u50cf
p4133
aV\u5bbf\u820d
p4134
aV\u7761\u9192
p4135
aV\u6628\u5929\u665a\u4e0a
p4136
aV\u4f5c\u606f
p4137
aV\u897f\u6e56
p4138
aV\u8c03\u6574
p4139
aV\u697c\u4e0a
p4140
aV\u697c\u4e0b
p4141
aV\u5947\u8469
p4142
aV\u767b\u673a\u53e3
p4143
aV\u7f51\u7533
p4144
aVwifi
p4145
aV\u6d4f\u89c8\u5668
p4146
aV\u5916\u5356
p4147
aV\u6ca1\u5e26
p4148
aV\u517b\u6d3b
p4149
aV\u8def\u53e3
p4150
aV\u4e66\u5446\u5b50
p4151
aV\u81ea\u4ece
p4152
aV\u6211\u6765
p4153
aV\u81ea\u6211
p4154
aV\u95e8\u7968
p4155
aVCCTV5
p4156
aVing
p4157
aV\u4e0b\u8bfe
p4158
aV\u8003\u8bd5
p4159
aV\u7591\u95ee
p4160
aV\u5012\u8ba1\u65f6
p4161
aV\u53d1\u8a93
p4162
aV\u5317\u5927\u6e05\u534e
p4163
aV\u6253\u4e0d\u5f00
p4164
aV\u53cd\u6b63
p4165
aV48
p4166
aV\u5a01\u6b66
p4167
aV46
p4168
aV86
p4169
aV44
p4170
aV\u83ab\u540d\u5176\u5999
p4171
aV42
p4172
aV43
p4173
aV40
p4174
aV41
p4175
aV\u4e00\u4e0b\u5b50
p4176
aV\u4eca\u5929\u5929\u6c14
p4177
aV\u4e00\u6bb5\u65f6\u95f4
p4178
aV\u60c5\u4eba
p4179
aV\u59b9\u5b50
p4180
aV\u4ed6\u4eba
p4181
aV\u5c45\u7136
p4182
aV\u4e94\u9053\u53e3
p4183
aV\u9a82\u4eba
p4184
aV\u8106\u5f31
p4185
aV\u4e3b\u573a
p4186
aV\u8f6c\u94b1
p4187
aV\u4e92\u76f8
p4188
aV\u6c99\u5c18\u66b4
p4189
aV\u9119\u89c6
p4190
aV\u653e\u4e0b
p4191
aV\u516c\u77e5
p4192
aV\u6fc0\u60c5
p4193
aV\u62b1\u6028
p4194
aV4G
p4195
aV\u5408\u4f19\u4eba
p4196
aV\u6447\u53f7
p4197
aV\u8033\u673a
p4198
aV\u8461\u8404
p4199
aV\u8001\u5927
p4200
aV\u8001\u5929
p4201
aV\u662f\u5426
p4202
aV\u9e21\u86cb
p4203
aV\u4e70\u70b9
p4204
aV\u4ed6\u4eec
p4205
aV\u591a\u6b21
p4206
aV\u70ed\u706b
p4207
aV\u7ade\u7b54
p4208
aV\u5973\u5b69
p4209
aV\u52b3\u52a8
p4210
aV\u5927\u5b66\u57ce
p4211
aV\u51ac\u81f3
p4212
aV\u6000\u5ff5
p4213
aV\u62a5\u8868
p4214
aV\u795e\u7ecf\u75c5
p4215
aV\u8d76\u811a
p4216
aV\u64ad\u653e
p4217
aV\u9732\u8fbe
p4218
a.