(lp0
V\u4e66\u8bb0
p1
aV\u5931\u8054
p2
aV\u52b1\u5fd7
p3
aV\u51fa\u6765
p4
aV\u91cd\u542f
p5
aV\u4e0b\u5468
p6
aV\u6da8\u4ef7
p7
aV\u6682\u505c
p8
aV\u5e73\u5b89
p9
aV\u9006\u5883
p10
aV\u575a\u5b9a
p11
aV\u9a91\u8f66
p12
aV\u5931\u604b
p13
aV\u6cae\u4e27
p14
aV\u8ba9\u5ea7
p15
aV\u516d\u4e00
p16
aV\u5e94\u8be5
p17
aV\u60ca\u95fb
p18
aV\u7ec8\u7a76
p19
aV\u53d1\u751f
p20
aV\u5de5\u5730
p21
aV\u897f\u8857
p22
aV\u5927\u5927\u7684
p23
aV\u8bdd\u5267
p24
aV\u5bd2\u5047
p25
aV\u5305\u88f9
p26
aV\u505a\u70b9
p27
aV\u6c5f\u6e56
p28
aV\u521d\u4e2d
p29
aV\u670d\u52a1\u5668
p30
aVWind
p31
aV\u5965\u8fd0
p32
aV\u592a\u70c2
p33
aV\u7814\u7a76\u9662
p34
aV\u60ca\u559c
p35
aV\u7d2b\u91d1\u5c71
p36
aV\u8fd8\u8981
p37
aV\u55d3\u5b50\u75bc
p38
aV\u5144\u5f1f\u59d0\u59b9
p39
aV\u4e24\u5929
p40
aV\u9996\u6b4c
p41
aV\u8fd9\u5e74\u5934
p42
aV\u7bee\u7403
p43
aV\u662f\u4ece
p44
aV\u54c1\u724c
p45
aV\u54c8\u6c14
p46
aV\u65b0\u751f
p47
aV\u5145\u7535
p48
aV\u9017\u6bd4
p49
aV\u5206\u7ec4
p50
aV\u653e\u624b
p51
aV\u6c99\u53d1
p52
aV\u6e38\u6cf3
p53
aV\u7ed9\u6211\u53d1
p54
aV\u96be\u4ee5
p55
aV\u5173\u7cfb
p56
aV\u5750\u7b49
p57
aV\u4eff\u4f5b
p58
aV\u521b\u4e1a\u8005
p59
aV\u98df\u6b32
p60
aV\u60c5\u611f
p61
aV\u897f\u85cf
p62
aV\u5410\u8840
p63
aVdeadline
p64
aV\u6cbb\u6108
p65
aV\u4e0d\u7ecf\u610f
p66
aV\u56de\u6765
p67
aV\u4e00\u53e3\u6c14
p68
aV\u5609\u5e74\u534e
p69
aV\u5750\u5730\u94c1
p70
aV\u7b2c\u4e00
p71
aV\u4e00\u8f6e
p72
aV\u4e8b\u7269
p73
aV\u89c9\u9192
p74
aV\u5165\u7761
p75
aV\u4e2d\u897f\u533a
p76
aV\u961f\u4f0d
p77
aV\u5973\u751f\u8282
p78
aV\u65b0\u7586
p79
aV49
p80
aV\u53a6\u95e8
p81
aV\u610f\u5473\u7740
p82
aV\u773c\u4e2d
p83
aV\u9a7e\u7167
p84
aV\u59d0\u59d0
p85
aV\u9f3b\u5b50
p86
aV\u770b\u8fc7
p87
aV\u5b9e\u9a8c\u5ba4
p88
aV\u4ebf\u7ed9
p89
aV\u54ce\u5440
p90
aV\u540d\u4f01
p91
aV\u4e3a\u4e86
p92
aV\u6280\u672f
p93
aV\u771f\u7231
p94
aV\u5927\u6218
p95
aV\u540d\u5355
p96
aV\u4e0d\u5f97
p97
aV\u4eba\u4f1a
p98
aV\u6211\u7238
p99
aV\u60c5\u51b5
p100
aVnet
p101
aV\u5965\u4f53
p102
aV\u6444\u5f71
p103
aV\u89c1\u8bc1
p104
aV\u603b\u7ed3
p105
aV\u4ee3\u8d2d
p106
aV\u89c1\u8bc6
p107
aV\u672c\u8eab
p108
aV\u4e94\u5e74
p109
aV\u7761\u4e2a
p110
aV\u5728\u5bb6
p111
aV\u4e0d\u7528
p112
aV\u514b\u6d1b\u6cfd
p113
aV\u4e00\u70b9\u70b9
p114
aV\u5c0f\u82f9\u679c
p115
aV\u5fb7\u56fd\u961f
p116
aV\u6765\u7535
p117
aV\u7cfb\u5217
p118
aV100
p119
aV\u56db\u6708
p120
aV\u7f57\u6c38\u6d69
p121
aV\u7ffb\u8bd1
p122
aV\u6b23\u8d4f
p123
aV\u6210\u72d7
p124
aV\u4e4b\u65c5
p125
aV\u65b0\u95fb
p126
aV\u65e0\u5948
p127
aV\u4e50\u961f
p128
aV\u8001\u662f
p129
aV\u53ef\u60dc
p130
aV\u5df4\u795e
p131
aV\u4ea7\u54c1
p132
aV\u9f99\u867e
p133
aV\u4e0d\u9519
p134
aV\u5973\u670b\u53cb
p135
aV\u4e22\u5931
p136
aV\u5b89\u9759
p137
aV\u5f80\u5f80
p138
aV\u91cc\u9762
p139
aV\u770b\u4e66
p140
aV\u5f88\u957f
p141
aV\u7206\u7b11
p142
aV\u4ec0\u4e48\u6837
p143
aV\u795d\u4f60\u4eec
p144
aV\u4e2d\u6587\u7248
p145
aV\u6700\u540e
p146
aV45
p147
aV\u4e00\u5206\u949f
p148
aV\u62ff\u5230
p149
aV\u4eba\u4eba
p150
aV\u4e0d\u592a\u597d
p151
aV\u4e00\u8f86
p152
aV\u6323\u94b1
p153
aV\u5e7b\u60f3
p154
aV\u4e3b\u89d2
p155
aV\u4e70\u4e70
p156
aV\u4e00\u6b21
p157
aV\u5230\u5bb6
p158
aV\u5e3d\u5b50
p159
aV\u5403\u996d
p160
aV\u62d4\u7259
p161
aV\u529b\u91cf
p162
aV\u7537\u53cb
p163
aV\u5de5\u8d44
p164
aV\u4fee\u6539
p165
aV\u6253\u54c8\u6b20
p166
aV\u51ef\u6587
p167
aV\u8001\u9f20
p168
aV\u7a7f\u8d8a
p169
aV\u718a\u732b
p170
aV\u661f\u5ea7
p171
aV\u6e56\u4eba
p172
aV\u636e\u8bf4
p173
aV\u65e5\u5b50
p174
aV\u9524\u5b50
p175
aVmatlab
p176
aV\u4eba\u4eec
p177
aV\u5927\u8857
p178
aV\u4fee\u590d
p179
aV\u6700\u5f3a
p180
aV\u770b\u4e2a
p181
aV\u592a\u51b7
p182
aVhaha
p183
aV\u52ff\u6270
p184
aV\u5fae\u76d8
p185
aV\u6848\u4f8b
p186
aV\u5feb\u4e50
p187
aV\u8003\u751f
p188
aV\u8bfb\u4e66
p189
aV\u609f\u5149
p190
aV\u4ee5\u4e3a
p191
aV\u6d6a\u8d39\u65f6\u95f4
p192
aVhold
p193
aV\u611f\u6069\u8282
p194
aV\u7eaa\u5ff5\u65e5
p195
aV\u5206\u4eab
p196
aV\u6b63\u5f0f
p197
aV\u8fd9\u662f
p198
aV\u4e00\u6b65
p199
aVmm
p200
aV\u5ba2\u670d
p201
aV\u597d\u68d2
p202
aV\u8fd9\u65f6\u5019
p203
aV\u5e38\u5dde
p204
aV\u505a\u51fa
p205
aV\u8bbf\u8c08
p206
aV\u4e70\u4e2a
p207
aV\u6211\u5988
p208
aV\u96be\u8fc7
p209
aV\u660e\u5929
p210
aV\u6b27\u6d32
p211
aV555
p212
aV\u516b\u6708
p213
aV\u4e2d\u592e
p214
aV\u4f18\u96c5
p215
aV\u5c31\u884c\u4e86
p216
aV\u83ab\u8a00
p217
aV\u7231\u60c5
p218
aV\u665a\u4f1a
p219
aV\u672a\u6765
p220
aV\u60f3\u8981
p221
aV\u5341\u5206
p222
aVwin8
p223
aV\u5723\u8bde\u8282
p224
aV\u6e05\u6668
p225
aV\u5143\u5316\u8def
p226
aV\u5237\u5c4f
p227
aV\u5907\u8bfe
p228
aV\u53f0\u6e7e
p229
aV\u914d\u5408
p230
aV\u7b2c\u4e00\u6b21
p231
aV\u6539\u53d8
p232
aV\u4e00\u8bb0
p233
aV\u524d\u8fdb
p234
aV\u4e00\u6bb5
p235
aV\u5c0f\u80d6
p236
aV\u6e05\u6670
p237
aV\u8001\u677f
p238
aV\u5fae\u535a\u9886
p239
aV\u5815\u843d
p240
aV\u70b9\u4e2a
p241
aV\u5f88\u8d5e
p242
aV\u52a0\u4e2a
p243
aV\u5835\u5f97
p244
aV\u5077\u4e50
p245
aV\u884c\u674e\u7bb1
p246
aV\u7ed1\u5b9a
p247
aV\u8de8\u5e74
p248
aV\u5410\u69fd
p249
aV\u5144\u5f1f
p250
aV\u767d\u7f8a\u5ea7
p251
aV\u6211\u5927
p252
aV\u7b80\u5355
p253
aV\u751f\u6d3b
p254
aV\u4f20\u5947
p255
aV\u53d7\u4e0d\u4e86
p256
aV\u79d1\u76ee
p257
aV\u5584\u826f
p258
aV\u5165\u624b
p259
aV\u9519\u8bef
p260
aV\u73e0\u6c5f\u8def
p261
aV\u603b\u4f1a
p262
aV......
p263
aV\u4e13\u5229
p264
aV\u5c0f\u5c41\u5b69
p265
aV\u9752\u5c9b
p266
aVPython
p267
aV\u5fcd\u53d7
p268
aV\u5341\u5206\u949f
p269
aV1001
p270
aV\u63ea\u5fc3
p271
aV\u5468\u6770\u4f26
p272
aV\u5de5\u4f5c\u5ba4
p273
aV__
p274
aV\u90a3\u5929
p275
aV\u867d\u7136
p276
aV\u8d26\u53f7
p277
aV\u6c42\u804c
p278
aV\u670d\u52a1\u5458
p279
aV\u535a\u6587
p280
aV\u56e2\u59d4
p281
aV\u6781\u9650
p282
aV\u88ab\u5b50
p283
aV\u65e9\u7761
p284
aV\u6c34\u74f6\u5ea7
p285
aV\u90ed\u5fb7\u7eb2
p286
aV\u7cbe\u529b
p287
aV\u51c6\u65f6
p288
aV\u9047\u5230
p289
aV\u8ba4\u8bc6
p290
aV\u4e1c\u897f
p291
aV\u6574\u6574
p292
aV\u76ae\u80a4
p293
aV\u6a21\u5f0f
p294
aV\u8ba4\u8bc1
p295
aVRhpjdBi
p296
aV\u9a6c\u5e74
p297
aV\u81ea\u884c\u8f66
p298
aV403
p299
aV\u4e00\u6837
p300
aV400
p301
aV\u770b\u7535\u89c6
p302
aV\u4e00\u6839
p303
aV\u540e\u6094
p304
aV\u84b2\u71a0\u661f
p305
aV\u534a\u591c
p306
aV\u5357\u5927
p307
aV\u73a9\u6e38\u620f
p308
aV\u4ef7\u503c\u89c2
p309
aV\u6536\u8d2d
p310
aV\u516c\u4f17
p311
aV\u8db3\u7403
p312
aV\u773c\u6cea
p313
aV\u5ba2\u6237\u7aef
p314
aV\u6821\u957f
p315
aV\u6bcf\u6bcf
p316
aV\u51bb\u6210
p317
aV\u5730\u8bf4
p318
aV\u5a92\u4f53
p319
aV\u5f97\u77e5
p320
aVAPP
p321
aV\u9c9c\u82b1
p322
aV\u5988\u5988
p323
aV\u66b4\u8d70
p324
aV\u4e92\u7c89
p325
aV\u9762\u8bd5
p326
aV\u534a\u5929
p327
aV\u7a81\u7136
p328
aV\u679c\u65ad
p329
aV\u6e05\u65b0
p330
aV\u6c34\u7acb\u65b9
p331
aV\u50cf\u662f
p332
aV\u4e0d\u9760
p333
aV\u96ea\u4eba
p334
aV\u4e0b\u96ea
p335
aV\u9ebb\u75f9
p336
aV\u4e0b\u96e8
p337
aV\u5947\u5999
p338
aV\u9886\u609f
p339
aV\u62c9\u809a\u5b50
p340
aV\u7238\u7238
p341
aVVC
p342
aVUI
p343
aV\u96be\u602a
p344
aV\u4eba\u6d3b
p345
aV\u56e0\u4e3a
p346
aV\u5904\u5973\u5ea7
p347
aV\u7ecf\u5386
p348
aV\u5e10\u53f7
p349
aV\u6ca1\u4ec0\u4e48
p350
aV\u51b0\u7bb1
p351
aV\u9999\u6e2f
p352
aV\u592a\u725b
p353
aV\u6709\u5173
p354
aV\u80b2\u513f
p355
aV\u8def\u7ebf
p356
aV\u5267\u60c5
p357
aV\u5173\u6ce8
p358
aVnikerunning
p359
aV\u548c\u8c10
p360
aV\u70b9\u8d5e
p361
aV\u53d1\u578b
p362
aV\u505a\u5230
p363
aV\u6f14\u6280
p364
aV\u5f00\u5fc3
p365
aV\u963f\u91cc\u5df4\u5df4
p366
aV1500
p367
aV\u6709\u70b9\u513f
p368
aV\u6210\u90fd
p369
aV\u5b66\u4e60
p370
aV\u5168\u90e8
p371
aV\u505c\u7535
p372
aV\u592e\u89c6
p373
aVnice
p374
aV\u65b0\u57ce
p375
aV\u793c\u7269
p376
aV\u7684\u786e
p377
aVBTW
p378
aV\u7f6a\u8fc7
p379
aV\u6c34\u997a
p380
aV\u90a3\u79cd
p381
aV++
p382
aV\u63a5\u8fd1
p383
aV\u4e0d\u770b
p384
aV\u4e0b\u96e8\u5929
p385
aV\u8fde\u7eed
p386
aV\u9a6c\u676f
p387
aV\u7fa4\u4f17
p388
aV\u4e0a\u5b66
p389
aV\u6c64\u5706
p390
aV\u4ec0\u9ebc
p391
aV\u9752\u5e74
p392
aV\u4e0b\u9762
p393
aV\u54ea\u513f
p394
aV\u5fc5\u6709
p395
aV\u8bad\u7ec3
p396
aV\u8138\u7ea2
p397
aV\u56e2\u8d2d
p398
aV\u819c\u62dc
p399
aV\u653e\u5728
p400
aV\u4e0d\u56f0
p401
aV\u9b45\u529b
p402
aV\u53e3\u97f3
p403
aV\u4ee3\u4ef7
p404
aV\u6162\u70b9
p405
aV\u6bd4\u4e0d\u4e0a
p406
aV\u5de7\u514b\u529b
p407
aV\u62d6\u978b
p408
aV\u665a\u4e0a
p409
aV\u53cc\u5341
p410
aV\u5e05\u54e5
p411
aVdoge
p412
aV\u8d2d\u7269
p413
aV\u5b9e\u4e60\u751f
p414
aV\u56fd\u5bb6
p415
aV\u6765\u56de
p416
aV\u9996\u9875
p417
aV\u8ba1\u7b97
p418
aV\u6253\u7403
p419
aV\u5e7c\u513f\u56ed
p420
aV\u4e4b\u661f
p421
aV\u7814\u7a76\u751f
p422
aV\u5f88\u5c11
p423
aV\u6211\u5bb6
p424
aV\u70e6\u607c
p425
aV\u5355\u66f2
p426
aV\u8c46\u4e01
p427
aV\u61c2\u5f97
p428
aV\u4e1c\u7ad9
p429
aV\u7b54\u8fa9
p430
aV\u5173\u5fc3
p431
aV\u52a0\u6cb9
p432
aVBBS
p433
aV\u767e\u5ea6
p434
aV\u516b\u5366
p435
aV\u6709\u70b9
p436
aV\u8bf8\u4e8b
p437
aV\u67e5\u770b
p438
aV\u661f\u671f\u4e94
p439
aV\u5fd7\u613f\u8005
p440
aV\u7ea6\u4f1a
p441
aV\u52aa\u529b
p442
aV\u5efa\u7b51
p443
aV\u8513\u831c\u831c
p444
aV\u6218\u7565
p445
aV\u793e\u56e2\u6d3b\u52a8
p446
aV\u6d4e\u5357
p447
aV\u5389\u5bb3
p448
aV\u54e5\u4eec
p449
aV\u5916\u5a46
p450
aV\u8c08\u604b\u7231
p451
aV\u767e\u5e74
p452
aV\u6362\u4e2a
p453
aV\u4e3a\u8bc1
p454
aV\u53e3\u5473
p455
aV\u8d70\u8fc7
p456
aV\u6d17\u8111
p457
aV\u5357\u7ad9
p458
aV\u56fd\u822a
p459
aV\u80a1\u5e02
p460
aV\u968f\u624b
p461
aV\u5927\u8111
p462
aV\u8d62\u7403
p463
aV\u5b8c\u540e
p464
aV\u610f\u8bc6
p465
aV\u4e2d\u8def
p466
aV\u4f24\u5fc3
p467
aV\u5f80\u524d
p468
aV\u6b65\u884c\u8005
p469
aV\u4e0d\u600e\u4e48
p470
aV\u68a6\u89c1
p471
aV\u594b\u6597
p472
aV\u5ea6\u8fc7
p473
aV\u4eba\u6c14
p474
aV\u7fa1\u6155
p475
aV65
p476
aV\u6700\u96be
p477
aV\u4eba\u6c11
p478
aV\u519b\u8bad
p479
aV\u6d17\u8138
p480
aV\u9519\u89c9
p481
aV\u5f3a\u58ee
p482
aV\u552f\u6709
p483
aV\u8d76\u7d27
p484
aV\u4e00\u89c9
p485
aV\u8bc8\u9a97
p486
aV\u5c0f\u62bd
p487
aV\u65f6\u6bb5
p488
aV\u5b66\u8f66
p489
aV\u4f01\u4e1a
p490
aV\u4e8b\u513f
p491
aV\u88ab\u7a9d
p492
aVQQ
p493
aV\u4e56\u4e56
p494
aV\u516c\u4ea4
p495
aV\u591c\u5bb5
p496
aV\u95ea\u7535
p497
aV\u7f8e\u7f8e
p498
aV\u5982\u4f55
p499
aV\u7adf\u7136
p500
aV\u673a\u5668\u4eba
p501
aV\u5de8\u6c57
p502
aV\u4e9a\u9a6c\u900a
p503
aV\u54ea\u91cc
p504
aV\u4f1a\u513f
p505
aV\u4f69\u670d
p506
aV\u516c\u8def
p507
aV\u8fc7\u751f\u65e5
p508
aV\u4e8c\u6559
p509
aV\u6253\u96f7
p510
aV\u81ea\u4e3b
p511
aV\u663e\u793a
p512
aV\u5403\u5c4e
p513
aV\u5230\u5e95
p514
aV\u59a5\u59a5
p515
aV\u4e00\u4e0b
p516
aV\u6211\u7cfb
p517
aV\u4e09\u5e74
p518
aV\u7559\u7ed9
p519
aV\u5468\u672b
p520
aV\u5e7f\u64ad
p521
aV\u8d85\u8d5e
p522
aV\u5f53\u996d
p523
aV\u673a\u573a
p524
aV\u8bbe\u8ba1
p525
aV\u771f\u7684
p526
aV\u6d77\u8fb9
p527
aV\u53f0\u8bcd
p528
aV\u4e24\u5206\u949f
p529
aV\u970d\u6bd4\u7279
p530
aV\u725b\u5976
p531
aV\u4e00\u4e2a
p532
aV\u767e\u79d1
p533
aV\u6392\u961f
p534
aV\u5bf9\u5f85
p535
aV\u70b9\u8bc4
p536
aV\u4e00\u4e2d
p537
aV\u5929\u4e0b
p538
aV\u5f00\u5934
p539
aV\u4eba\u95f4
p540
aV\u611f\u6fc0
p541
aV\u4e0d\u53ef
p542
aV\u6253\u5305
p543
aV11
p544
aV\u5f88\u68d2
p545
aV\u60c5\u5546
p546
aV\u8679\u6865
p547
aV\u60ca\u9192
p548
aV\u5ba2\u6237
p549
aV\u6696\u6c14
p550
aV\u6df7\u4e71
p551
aV\u9e21\u9e23\u5bfa
p552
aV\u4ee5\u81f3\u4e8e
p553
aV\u6253\u5361
p554
aV\u56fd\u65d7
p555
aV\u7406\u60f3
p556
aV\u62e5\u6709
p557
aV17
p558
aV\u771f\u76f8
p559
aV\u4e0d\u518d
p560
aV\u62a5\u544a\u5385
p561
aV\u786e\u8ba4
p562
aV\u653e\u4e0d\u4e0b
p563
aV\u6691\u671f
p564
aV\u505a\u4e2a
p565
aV\u5b89\u5229
p566
aV\u5348\u89c9
p567
aV\u65b0\u8857\u53e3
p568
aV\u7b80\u76f4
p569
aV\u7b2c\u4e00\u4ef6
p570
aV\u8111\u6b8b
p571
aV\u7070\u5e38
p572
aV\u653e\u5047
p573
aV\u5341\u4e00
p574
aV\u52c7\u6c14
p575
aV\u8bed\u8a00
p576
aV\u9ad8\u624b
p577
aV\u6587\u5316\u8282
p578
aV\u51e0\u5929
p579
aV\u73b0\u5b9e
p580
aVnju
p581
aV\u5b66\u6821
p582
aV\u9636\u6bb5
p583
aV\u5929\u4eae
p584
aV\u62b1\u6b49
p585
aV\u4e00\u4e9b
p586
aVAndroid
p587
aV\u4f53\u529b
p588
aV03
p589
aV00
p590
aV\u8e0f\u8e0f\u5b9e\u5b9e
p591
aV06
p592
aV\u7b2c\u4e00\u4e2a
p593
aV04
p594
aV05
p595
aV\u4e00\u8eab
p596
aV\u5907\u4efd
p597
aV09
p598
aV\u5feb\u8baf
p599
aV\u597d\u6851\u5fc3
p600
aV\u675c\u53a6
p601
aV\u65e9\u4e0a
p602
aV\u5fc3\u5e95
p603
aV\u7b54\u6848
p604
aV\u7406\u6027
p605
aV\u4e00\u4eba
p606
aV\u7b11\u54c8\u54c8
p607
aV\u7f51\u4e0a
p608
aV\u5973\u6027
p609
aV360
p610
aV\u5168\u56fd
p611
aV\u5f00\u59cb
p612
aV\u53d1\u51fa
p613
aV\u60f3\u6cd5
p614
aVboss
p615
aV\u5077\u5077
p616
aV\u5fae\u535a
p617
aV\u4e0d\u7136
p618
aV\u4e00\u4e2a\u4e2a
p619
aV\u5ea7\u4f4d
p620
aV\u676f\u5b50
p621
aV\u4e00\u4ee3
p622
aV\u4e8b\u60c5
p623
aV\u601d\u60f3
p624
aV\u6821\u53cb
p625
aV\u7c73\u5170
p626
aV\u611a\u8822
p627
aV\u795d\u8d3a
p628
aV\u5341\u4e00\u70b9
p629
aV\u4e00\u4ef6
p630
aV\u5df4\u8428
p631
aV\u65b9\u5411
p632
aV\u8eab\u8fb9
p633
aVcom
p634
aV\u4e00\u4efd
p635
aV\u5168\u573a
p636
aV\u592a\u68d2\u4e86
p637
aV\u6ce1\u9762
p638
aV\u8fd9\u624d
p639
aV\u8df3\u821e
p640
aV\u6587\u79d1
p641
aV\u641c\u72d7
p642
aV\u8001\u516c
p643
aV\u5b89\u5353
p644
aV\u4e4b\u95f4
p645
aV\u4fdd\u5b58
p646
aV\u4eba\u8981
p647
aV\u7a97\u5916
p648
aV\u4ee4\u4eba
p649
aV365
p650
aV\u82f1\u6587
p651
aV\u4e00\u4f1a
p652
aV250
p653
aV\u5f00\u542f
p654
aV101
p655
aV\u6b8b\u5fcd
p656
aV\u534a\u5e74
p657
aV\u745c\u4f3d
p658
aV\u53bf\u9053
p659
aV\u98df\u5802
p660
aV\u8d5b\u5b63
p661
aV\u7535\u5b50\u4e66
p662
aV\u540e\u679c
p663
aV\u665a\u62a5
p664
aV\u95f9\u949f
p665
aV\u6267\u7740
p666
aV\u7b7e\u8bc1
p667
aV\u8c03\u6574
p668
aV\u600e\u4e48
p669
aV\u641e\u5b9a
p670
aV\u673a\u5668
p671
aV\u536b\u89c6
p672
aV\u4e16\u754c\u676f
p673
aV\u5e74\u5316
p674
aV\u4e16\u754c
p675
aV\u4e1c\u4e1c
p676
aV\u6587\u7ae0
p677
aV\u4e00\u4f4d
p678
aVdota
p679
aV\u8868\u626c
p680
aV\u5546\u5708
p681
aV\u5267\u672c
p682
aV\u81ea\u4e60
p683
aV\u516b\u70b9
p684
aV\u90a3\u5e74
p685
aV\u524d\u4e24\u5929
p686
aV\u5565\u4e8b
p687
aV\u5317\u8def
p688
aV\u540c\u884c
p689
aV\u60f3\u8d77
p690
aV\u6b4c\u738b
p691
aV\u626f\u6de1
p692
aV110
p693
aVlxhx
p694
aV\u770b\u4e0d\u5230
p695
aV\u539f\u6765
p696
aV\u529b\u6c14
p697
aV\u7b2c\u4e8c
p698
aV\u8003\u5b8c\u8bd5
p699
aV\u5f1f\u5f1f
p700
aV\u58ee\u54c9
p701
aV\u5fae\u520a
p702
aV\u4ee3\u8868
p703
aV\u671f\u671b
p704
aV\u6492\u82b1
p705
aV\u7b2c\u4e09\u5b63
p706
aV\u966a\u4f34
p707
aV\u543c\u543c
p708
aV\u4ece\u6765
p709
aV\u6c42\u52a9
p710
aV\u9884\u611f
p711
aV\u6253\u52a8
p712
aV\u5f00\u9898
p713
aV\u5b98\u7f51
p714
aV\u7cbd\u5b50
p715
aV\u9171\u6cb9
p716
aV\u603b\u51a0\u519b
p717
aV\u4eac\u6caa
p718
aV\u848b\u516c
p719
aVV3
p720
aV\u671f\u672b
p721
aV\u62e5\u62b1
p722
aV\u4e0d\u505c
p723
aV\u65e5\u5fd7
p724
aV\u4e00\u8fb9
p725
aV\u8eab\u4efd
p726
aV\u65e9\u70b9
p727
aV\u4ece\u672a
p728
aV\u6ca1\u60f3\u5230
p729
aV\u5728\u7ebf
p730
aV\u8c22\u8c22
p731
aV\u524d\u9762
p732
aV\u641e\u7b11
p733
aV\u9519\u8fc7
p734
aV\u81f3\u4eca
p735
aVVS
p736
aVidea
p737
aV\u53d1\u70e7
p738
aV\u998b\u5634
p739
aV\u65e5\u665a
p740
aV\u793e\u5de5
p741
aV\u5149\u5934
p742
aV\u5931\u8e2a
p743
aVthu
p744
aV\u590d\u6742
p745
aV\u6c34\u5e73
p746
aV\u81ea\u4ece
p747
aV\u5199\u4e2a
p748
aV800
p749
aV\u5de8\u4eba
p750
aV\u7075\u611f
p751
aV\u6b63\u786e
p752
aV\u624b\u673a
p753
aV\u63a7\u5236
p754
aV\u6709\u592a\u591a
p755
aV\u5305\u5305
p756
aV\u624b\u672f
p757
aV\u4fdd\u7f57
p758
aV\u5b63\u540e\u8d5b
p759
aV\u667a\u80fd
p760
aV\u5ffd\u60a0
p761
aV\u7b49\u4e8e
p762
aV\u76f4\u89c6
p763
aV\u7b80\u5386
p764
aV\u513f\u7ae5
p765
aV\u56f4\u89c2
p766
aV\u5192\u4e2a
p767
aV\u9644\u8fd1
p768
aV\u8bfa\u57fa\u4e9a
p769
aV\u610f\u4e49
p770
aV\u7ed3\u679c
p771
aV\u6f02\u4eae
p772
aV\u5317\u4eac
p773
aV\u7b11\u8bdd
p774
aV\u5929\u6c14
p775
aV\u656c\u4f69
p776
aV\u8d5e\u52a9
p777
aV\u6109\u5feb
p778
aV\u75db\u82e6
p779
aV\u611f\u52a8
p780
aV\u6392\u540d
p781
aV\u4f18\u9177
p782
aV\u5bbe\u9986
p783
aV\u504f\u504f
p784
aV\u592a\u96be
p785
aV\u540c\u6b65
p786
aV\u80cc\u5d29\u4e61
p787
aV\u5f53\u505a
p788
aV\u5f81\u7a0b
p789
aV\u7a0d\u5fae
p790
aV\u7535\u8111
p791
aV\u884c\u4e1a
p792
aV\u6c34\u7ecf\u6ce8
p793
aV\u7ebd\u7ea6
p794
aV\u5b89\u500d
p795
aV\u7f8e\u597d
p796
aV\u675c\u5170\u7279
p797
aV\u6539\u540d
p798
aV\u7f8e\u5973
p799
aV\u7ec8\u5c06
p800
aV\u4e0d\u53bb
p801
aV\u6df1\u6df1
p802
aV\u65e0\u5fc3
p803
aV\u50bb\u7b11
p804
aV\u5f00\u5b66
p805
aV58
p806
aV\u6d77\u6dc0
p807
aV55
p808
aV\u5de5\u79d1
p809
aV\u4e00\u65e9
p810
aV\u7535\u5f71\u9662
p811
aV\u60ca\u73b0
p812
aV50
p813
aV\u8282\u76ee
p814
aV4G
p815
aV\u9738\u6c14
p816
aV\u90ae\u4ef6
p817
aV\u59ff\u52bf
p818
aV\u53d1\u73b0
p819
aV\u5feb\u8981
p820
aV\u65f6\u4ee3
p821
aV\u5929\u6d25
p822
aVHR
p823
aV\u767b\u673a
p824
aV\u8d85\u8fc7
p825
aV\u7b14\u8bb0\u672c
p826
aV\u5efa\u8bae
p827
aV\u65b9\u821f\u5b50
p828
aV\u8fd8\u4f1a
p829
aV\u6807\u51c6
p830
aV\u6709\u6728\u6709
p831
aV\u4f1a\u5458
p832
aV\u4fe1\u53f7
p833
aV\u4f7f\u7528
p834
aV\u62a5\u540d
p835
aV\u770b\u89c1
p836
aV\u66f4\u597d
p837
aV\u6821\u5185
p838
aV\u5fc3\u4e2d
p839
aV\u57fa\u53cb
p840
aV\u6ca1\u6709
p841
aV\u5f97\u4e0d\u5230
p842
aV\u76f8\u9047
p843
aV\u611f\u5230
p844
aV\u7f8e\u5999
p845
aVHi
p846
aV\u73a9\u800d
p847
aV\u6cd5\u5f8b
p848
aV\u5348\u996d
p849
aV\u75d8\u75d8
p850
aV\u4e1c\u8def
p851
aV\u8f66\u4e0a
p852
aV\u5927\u7b11
p853
aV\u997a\u5b50
p854
aV\u957f\u6c5f\u8def
p855
aV\u6253\u51fb
p856
aV\u6e7e\u533a
p857
aV\u5404\u79cd
p858
aV\u62bd\u5230
p859
aV\u6d88\u505c
p860
aV\u563b\u563b
p861
aV\u4e0a\u7f51
p862
aV\u5b8c\u5168
p863
aV\u592a\u9633
p864
aV\u5c31\u8981
p865
aV\u5e2e\u5fd9
p866
aV\u57f9\u517b
p867
aV\u968f\u673a
p868
aV\u98ce\u4e91
p869
aV\u660e\u5e74
p870
aV\u5468\u65e5
p871
aV\u6458\u81ea
p872
aV\u652f\u4ed8\u5b9d
p873
aV\u4ff1\u4e50\u90e8
p874
aV\u88c5\u4fee
p875
aV\u7ed3\u675f
p876
aV\u547d\u8fd0
p877
aV\u62a5\u544a
p878
aV\u76f8\u4f3c
p879
aVwww
p880
aV\u7a0b\u5e8f
p881
aV\u672c\u5468
p882
aV\u795e\u5668
p883
aV\u5927\u7ed3\u5c40
p884
aV\u51c9\u5feb
p885
aV\u773c\u795e
p886
aV\u4e07\u6e90
p887
aV\u6c38\u6052
p888
aV\u4e2b\u5934
p889
aV\u4f46\u662f
p890
aV\u5546\u5b66\u9662
p891
aV\u88e4\u5b50
p892
aV\u51b3\u8d5b
p893
aV\u5a31\u4e50
p894
aV\u7eaa\u5f55\u7247
p895
aV\u8bfb\u4e66\u7b14\u8bb0
p896
aV\u51cf\u80a5
p897
aV\u8d70\u8d70
p898
aV\u8ff7\u832b
p899
aV\u4e00\u9996\u6b4c
p900
aV\u5927\u8f6c\u76d8
p901
aV\u600e\u4e48\u6837
p902
aV\u51e0\u6b21
p903
aV\u6b63\u597d
p904
aVppt
p905
aV\u71ac\u591c
p906
aV\u9178\u5976
p907
aV\u65e0\u7ebf
p908
aV\u660e\u5fb7
p909
aV\u6ce8\u5b9a
p910
aV\u89e3\u91ca
p911
aV\u4e0a\u7ebf
p912
aV\u5a1c\u59d0
p913
aV\u9009\u8bfe
p914
aV\u5976\u8336
p915
aV\u597d\u4e45\u4e0d\u89c1
p916
aV\u4e0b\u5348
p917
aV\u51ac\u5929
p918
aV\u5b89\u5168
p919
aV\u6700\u7231
p920
aV\u4e0b\u5355
p921
aVNBA
p922
aV\u8868\u6001
p923
aV\u6570\u636e
p924
aV\u9a91\u884c
p925
aVhappy
p926
aV\u89c6\u9891
p927
aVAppleWatch
p928
aV\u56f0\u5f97
p929
aVoffer
p930
aV\u611f\u53d7
p931
aV\u5931\u671b
p932
aV\u6210\u957f
p933
aV\u4fbf\u662f
p934
aV\u6324\u773c
p935
aV\u60b2\u54c0
p936
aV\u9a97\u5b50
p937
aV\u89e3\u51b3
p938
aV\u5f3a\u70c8
p939
aV\u65b0\u7248
p940
aV\u656c\u4e1a
p941
aV\u70ed\u706b
p942
aV\u5669\u68a6
p943
aV\u5929\u874e\u5ea7
p944
aV\u611f\u53f9
p945
aV\u6709\u94b1
p946
aV\u5e78\u798f\u611f
p947
aV\u662f\u4e0d\u662f
p948
aV\u810a\u67f1
p949
aV\u8b66\u5bdf
p950
aV\u5218\u5f3a
p951
aV\u5929\u8d4b
p952
aV3.5
p953
aV\u751f\u5feb
p954
aV\u4e00\u8d77
p955
aV\u6674\u5929
p956
aV\u8ddf\u4e0d\u4e0a
p957
aV\u8111\u888b
p958
aV\u773c\u955c
p959
aV\u6280\u80fd
p960
aV\u5e26\u8d70
p961
aV\u4e0a\u5e1d
p962
aV\u6bcf\u4e2a
p963
aV\u7f51\u8d37
p964
aV\u6821\u56ed\u5361
p965
aV\u6740\u624b
p966
aV\u667a\u6167
p967
aV\u4e0b\u73ed
p968
aV\u8fd9\u4e48\u665a
p969
aV\u9ebb\u70e6
p970
aV\u5b69\u7eb8
p971
aV\u4e94\u5929
p972
aV\u5730\u4e0a
p973
aV\u5357\u4eac\u5927\u5c60\u6740
p974
aV\u65e0\u5e38
p975
aV\u5e26\u611f
p976
aV\u7f51\u8d2d
p977
aV\u4e00\u8d9f
p978
aV\u5218\u7fd4
p979
aV\u5c0f\u9f99\u867e
p980
aV\u6211\u9519
p981
aVxkl
p982
aVnb
p983
aV\u8868\u767d
p984
aV\u5fd8\u5e26
p985
aV\u52a9\u624b
p986
aV\u8c03\u67e5
p987
aV\u513f\u5b50
p988
aV\u65e0\u6240\u8c13
p989
aV\u6587\u5b66
p990
aV\u73a9\u610f
p991
aVtest
p992
aV\u5e72\u676f
p993
aV\u9f3b\u5c4e
p994
aVJOJO
p995
aV\u9ad8\u6548
p996
aV\u5bb3\u7f9e
p997
aV\u4e5d\u6b7b\u4e0d\u6094
p998
aV\u4e0d\u7231
p999
aV\u80af\u5b9a
p1000
aV\u4e0d\u723d
p1001
aV\u96f7\u9635\u96e8
p1002
aV\u6765\u5230
p1003
aV\u9996\u90fd\u56fd\u9645\u673a\u573a
p1004
aV99
p1005
aV\u8054\u901a
p1006
aV\u5c3c\u6cca\u5c14
p1007
aV\u8650\u5fc3
p1008
aV\u4e09\u5929
p1009
aV\u6027\u611f
p1010
aV\u7684\u8bdd
p1011
aV\u4e92\u8054\u7f51
p1012
aV\u4f53\u91cd
p1013
aV\u7f8e\u98df
p1014
aVpush
p1015
aV\u6bd4\u5982
p1016
aV\u6625\u8fd0
p1017
aV\u8868\u60c5
p1018
aV\u58a8\u8ff9
p1019
aV\u61d2\u60f0
p1020
aV\u770b\u6765
p1021
aV90
p1022
aV\u9001\u7ed9
p1023
aV1http
p1024
aV\u5207\u514b
p1025
aV\u6f47\u6d12
p1026
aV\u4e09\u56fd
p1027
aV\u53f7\u7801
p1028
aV\u73b0\u573a
p1029
aV\u901a\u77e5
p1030
aV\u4e00\u822c
p1031
aV\u5f53\u4e0b
p1032
aV\u5168\u7a0b
p1033
aV\u901a\u8baf\u5f55
p1034
aV\u59d4\u5c48
p1035
aV\u9762\u819c
p1036
aVFacebook
p1037
aV\u73b0\u5728
p1038
aV\u6253\u5f00
p1039
aV\u53ef\u7231
p1040
aV\u521a\u624d
p1041
aV\u670d\u52a1
p1042
aV\u6c14\u6b7b
p1043
aV\u8bb0\u5f55
p1044
aV\u70e6\u6b7b
p1045
aV\u868a\u5b50
p1046
aV\u5fc3\u60c5
p1047
aVanyway
p1048
aV\u897f\u8def
p1049
aV\u9ed8\u9ed8
p1050
aV\u5927\u53d4
p1051
aV\u8981\u8bf4
p1052
aV\u8089\u5305
p1053
aV\u6ca1\u89c1
p1054
aVdin
p1055
aV\u98a0\u8986
p1056
aV\u5feb\u6765
p1057
aV\u5f02\u5e38
p1058
aV\u5e73\u53f0
p1059
aV\u5bb6\u91cc
p1060
aV\u7984\u53e3
p1061
aVnozuonodie
p1062
aV\u4f9d\u65e7
p1063
aV\u6211\u6821
p1064
aV\u610f\u5927\u5229
p1065
aV\u8f6c\u94b1
p1066
aV\u8001\u4eba
p1067
aV2015
p1068
aV\u8bb8\u613f
p1069
aV\u8868\u8fbe
p1070
aV\u8bb0\u5f97
p1071
aV\u4e00\u628a
p1072
aVsigh
p1073
aV\u5fc3\u6001
p1074
aV\u4f24\u4e0d\u8d77
p1075
aV\u4e0a\u8f88\u5b50
p1076
aV\u6218\u80dc
p1077
aV\u8f6c\u53d1
p1078
aV\u9707\u60ca
p1079
aV\u897f\u8d21
p1080
aV\u8ddf\u7740
p1081
aV\u5b64\u72ec
p1082
aV\u505c\u8f66
p1083
aV\u624d\u884c
p1084
aV\u7761\u4e00\u89c9
p1085
aV\u68d2\u5b50
p1086
aV\u5348\u591c
p1087
aV\u6c34\u5229\u7cfb
p1088
aV\u8bdd\u8d39
p1089
aV\u597d\u591a\u5e74
p1090
aV\u540d\u5b57
p1091
aV\u5fb7\u6bd4
p1092
aV\u6298\u817e
p1093
aV\u5348\u7761
p1094
aV\u96f7\u519b
p1095
aV\u4eba\u6765
p1096
aV\u6c11\u4e3b
p1097
aV\u4e27\u5fc3\u75c5\u72c2
p1098
aV\u90a3\u53e5
p1099
aV\u5fc3\u7d2f
p1100
aV\u4e0b\u534a\u573a
p1101
aV\u7ed9\u529b
p1102
aV\u6f20\u6657\u6db5
p1103
aV\u8bb0\u5fc6
p1104
aVMr
p1105
aV\u603b\u662f
p1106
aV\u591a\u5c11
p1107
aV\u6700\u5927
p1108
aV\u6211\u5011
p1109
aVMD
p1110
aV\u505c\u4e0b\u6765
p1111
aV\u60f3\u60f3
p1112
aV\u5f00\u95e8
p1113
aV\u7236\u6bcd
p1114
aV\u7eb8\u724c
p1115
aV\u8fd9\u8fb9
p1116
aV\u6cea\u6d41\u6ee1\u9762
p1117
aV\u5e74\u7eaa
p1118
aV\u5783\u573e
p1119
aV\u90e8\u95e8
p1120
aV\u540c\u610f
p1121
aV\u5e74\u5ea6
p1122
aV\u63a8\u9001
p1123
aV\u6253\u5370
p1124
aV\u771f\u5b9e
p1125
aV\u9019\u500b
p1126
aV\u8bdd\u7b52
p1127
aV\u8fc7\u53bb
p1128
aV\u9a6c\u6765\u897f\u4e9a
p1129
aV\u9ad8\u7ea7
p1130
aV\u604b\u7231
p1131
aV\u7535\u5b50\u7cfb
p1132
aV\u5c5e\u4e8e
p1133
aV\u7ea2\u7c73
p1134
aV\u5973\u751f
p1135
aV\u5357\u4eac\u7ad9
p1136
aV\u7238\u5988
p1137
aV\u521b\u65b0
p1138
aV\u51ac\u7720
p1139
aV\u6307\u6570
p1140
aV\u6751\u5b98
p1141
aV\u897f\u74dc
p1142
aV\u597d\u6000\u5ff5
p1143
aV\u5012\u65f6\u5dee
p1144
aV\u98ce\u91c7
p1145
aV\u4e00\u5927\u5806
p1146
aV\u5317\u5927\u8857
p1147
aV\u6c5f\u82cf\u7701
p1148
aViphone
p1149
aV\u5b9e\u4e60
p1150
aV\u534f\u4f1a
p1151
aV\u795e\u79d8
p1152
aV\u6559\u6388
p1153
aV\u975e\u8bda
p1154
aV\u6b63\u5728
p1155
aV\u7c89\u4e1d
p1156
aV\u5b89\u5168\u611f
p1157
aV\u590f\u5929
p1158
aV\u65e9\u5c31
p1159
aV\u963f\u68ee\u7eb3
p1160
aV\u79d1\u5e7b
p1161
aV\u4e00\u9635
p1162
aV\u6d41\u91cf
p1163
aV\u5934\u53d1
p1164
aV\u996e\u6599
p1165
aV\u656c\u8bf7\u671f\u5f85
p1166
aV\u51fa\u6e38
p1167
aV\u4e3b\u697c
p1168
aV\u51e4\u51f0
p1169
aV\u4e3b\u8bb2\u4eba
p1170
aV\u8fd9\u4e2a
p1171
aV\u53d1\u5c55
p1172
aV\u51fa\u56fd
p1173
aV\u6210\u719f
p1174
aV\u91cd\u6e29
p1175
aV\u4e2d\u56fd\u8054\u901a
p1176
aV\u5706\u6ee1
p1177
aV\u5173\u95e8
p1178
aV\u597d\u4e45\u6ca1
p1179
aV\u5b8c\u7ed3
p1180
aV\u6c38\u8fdc
p1181
aV\u7b2c\u4e8c\u5b63
p1182
aV\u820d\u53cb
p1183
aV\u4e8b\u5b9e
p1184
aV\u5c31\u662f
p1185
aV\u6c89\u9ed8
p1186
aV\u90a3\u4e00\u523b
p1187
aV\u7fbd\u6bdb\u7403
p1188
aV\u5b66\u751f\u516c\u5bd3
p1189
aV\u4e0b\u5b9a\u51b3\u5fc3
p1190
aViPhone6
p1191
aV\u54ea\u5bb6
p1192
aV\u4ece\u6b64
p1193
aV\u65b0\u9c9c
p1194
aV\u5b9e\u51b5
p1195
aV\u56de\u4e8b
p1196
aV\u6676\u6676
p1197
aV\u660e\u513f
p1198
aV\u626c\u5dde
p1199
aV\u653f\u6cbb
p1200
aV\u5b89\u5fc3
p1201
aV\u60ca\u5446
p1202
aV\u4f11\u606f
p1203
aV\u6e29\u5ea6
p1204
aV\u4e00\u70b9
p1205
aV\u5df4\u897f
p1206
aV\u591c\u6df1\u4eba\u9759
p1207
aV\u6709\u7a7a
p1208
aVIrisLee
p1209
aV\u6709\u7528
p1210
aVget
p1211
aV\u7f8e\u7684
p1212
aV\u4e61\u9053
p1213
aV\u53bb\u8fc7
p1214
aV\u5173\u952e
p1215
aV\u8fdb\u6b65
p1216
aV\u6c34\u5229
p1217
aV\u559c\u6b22
p1218
aVTHU
p1219
aV\u6eda\u86cb
p1220
aV\u7238\u7238\u5988\u5988
p1221
aV\u9884\u6d4b
p1222
aV\u534a\u5c0f\u65f6
p1223
aV\u9ebb\u9ebb
p1224
aV\u56de\u7b54
p1225
aV\u542c\u4e0d\u61c2
p1226
aV\u540e\u4f1a\u65e0\u671f
p1227
aV\u597d\u597d\u5b66\u4e60
p1228
aV\u52a8\u4f5c
p1229
aV\u518d\u6709
p1230
aV\u8fd9\u4e9b
p1231
aV\u7f8e\u56fd
p1232
aV\u63d0\u4ea4
p1233
aV\u4e24\u70b9
p1234
aV\u5e74\u9f84
p1235
aV\u592a\u5927
p1236
aV\u77e5\u8db3
p1237
aV\u795e\u5947
p1238
aV\u505a\u996d
p1239
aV\u9152\u5e97
p1240
aV\u7cbe\u795e
p1241
aV\u57ce\u5e02
p1242
aV\u597d\u591a\u597d\u591a
p1243
aV\u65e9\u4e0a\u597d
p1244
aV\u672c\u4eba
p1245
aV\u767e\u5408
p1246
aV\u597d\u8bc4
p1247
aV\u4e00\u77ac\u95f4
p1248
aV\u8bc4\u8bba
p1249
aV\u6d4b\u8bd5
p1250
aV\u4e0a\u706b
p1251
aVsb
p1252
aV\u603b\u6709
p1253
aV\u5357\u6c60\u5b50
p1254
aV\u542c\u542c
p1255
aV\u597d\u6837
p1256
aV\u5b9d\u5b9d
p1257
aV\u79ef\u5206
p1258
aV\u4fe1\u79d1
p1259
aV\u5206\u949f
p1260
aV\u66a7\u6627
p1261
aV\u5d07\u62dc
p1262
aV\u6709\u79cd
p1263
aV\u526a\u8f91
p1264
aV\u5408\u9002
p1265
aV\u7ee7\u7eed
p1266
aV\u809a\u5b50
p1267
aV\u5973\u4eba
p1268
aV\u77e5\u4e4e
p1269
aVRP
p1270
aV\u5ba4\u53cb
p1271
aV\u4e0a\u53bb
p1272
aV\u4e0d\u5fcd
p1273
aV\u4eba\u6587
p1274
aV\u5c3c\u739b
p1275
aV\u7968\u9009
p1276
aVWTF
p1277
aV\u5f00\u573a
p1278
aV\u4e00\u5bb6
p1279
aV\u54fc\u54fc
p1280
aV\u624b\u6709\u4f59\u9999
p1281
aV\u575a\u51b3
p1282
aV\u65c5\u884c
p1283
aV\u5f00\u7740
p1284
aV\u673a\u7968
p1285
aV\u4e0a\u534a\u573a
p1286
aV\u65e9\u7761\u65e9\u8d77
p1287
aV\u4eac\u4e1c
p1288
aV\u50bb\u773c
p1289
aV\u5199\u7ed9
p1290
aV\u5934\u50cf
p1291
aV\u9006\u5929
p1292
aV\u63a8\u649e
p1293
aV\u8fd9\u8f88\u5b50
p1294
aV\u8bc1\u660e
p1295
aV\u6628\u5929
p1296
aVdown
p1297
aV\u827e\u739b
p1298
aV\u5929\u5929\u5f00\u5fc3
p1299
aV\u6708\u997c
p1300
aV\u5e86\u5e78
p1301
aV\u8f6f\u5de5
p1302
aV\u8fd9\u8d27
p1303
aV\u8d70\u8def
p1304
aV\u79bb\u804c
p1305
aV\u4e0a\u73ed
p1306
aV\u9053\u6b49
p1307
aV12306
p1308
aV25
p1309
aV\u4e00\u6574\u5929
p1310
aV\u5f88\u60f3
p1311
aV\u5e73\u51e1
p1312
aV\u6559\u80b2
p1313
aV85
p1314
aV13521425356
p1315
aV\u9b54\u9b3c
p1316
aV\u602a\u517d
p1317
aV\u7537\u670b\u53cb
p1318
aV\u68a6\u60f3
p1319
aV\u5f81\u96c6
p1320
aV\u6211\u7279
p1321
aV\u8ffd\u5c3e
p1322
aV\u6700\u7f8e
p1323
aV\u5317\u4eac\u897f\u7ad9
p1324
aV\u4efb\u52a1
p1325
aV\u6e05\u660e
p1326
aV\u4fe1\u5ff5
p1327
aVP2P
p1328
aV\u5916\u5356
p1329
aV\u6d6a\u6f2b
p1330
aV\u4eba\u53bb
p1331
aV\u8868\u6f14
p1332
aV\u5c0f\u8bf4
p1333
aV\u4e24\u5e74
p1334
aV\u8fdb\u884c
p1335
aV\u5973\u4e3b
p1336
aV\u9084\u662f
p1337
aV\u5927\u534a\u591c
p1338
aV\u91cd\u5e86
p1339
aV\u518d\u89c1
p1340
aV\u9ed1\u6697
p1341
aV\u53f0\u98ce
p1342
aV\u6a21\u578b
p1343
aV\u9ad8\u6821
p1344
aV\u7edd\u5bf9
p1345
aV\u5b9e\u8df5
p1346
aV\u6625\u8282
p1347
aV\u806a\u660e
p1348
aV\u8ba1\u5212
p1349
aV\u98df\u7269
p1350
aV\u591a\u5e74
p1351
aV\u5413\u4eba
p1352
aV\u54e5\u54e5
p1353
aV\u7f16\u7a0b
p1354
aVorz
p1355
aV\u559d\u9152
p1356
aV\u513f\u7ae5\u8282
p1357
aV\u8bbe\u8ba1\u5e08
p1358
aV\u8bdd\u9898
p1359
aV\u552f\u4e00
p1360
aV\u52a8\u6f2b
p1361
aV\u4e0a\u5348
p1362
aV\u8fc7\u654f
p1363
aV\u897f\u5b89
p1364
aVYES
p1365
aV\u4e00\u5207\u987a\u5229
p1366
aV\u5217\u8f66
p1367
aV\u672b\u65e5
p1368
aV\u521b\u9020
p1369
aV\u6e29\u5dde
p1370
aV\u5c24\u6587
p1371
aV\u6211\u521a
p1372
aV\u5458\u5de5
p1373
aV\u5355\u4f4d
p1374
aV\u4e00\u60f3
p1375
aV\u4e94\u89d2\u573a
p1376
aV\u795e\u9a6c
p1377
aV\u6253\u7535\u8bdd
p1378
aV\u75b2\u60eb
p1379
aV\u4e8b\u5b9e\u8bc1\u660e
p1380
aV1000
p1381
aV\u793e\u533a
p1382
aVxi
p1383
aV\u8054\u7cfb
p1384
aV\u51bb\u6b7b
p1385
aV\u65e0\u52a9
p1386
aV\u6d6a\u8d39
p1387
aVxx
p1388
aV\u9700\u8981
p1389
aV\u8f9e\u804c
p1390
aV\u6b64\u523b
p1391
aV\u5355\u8eab
p1392
aV\u975e\u8981
p1393
aV\u62f3\u5934
p1394
aVios7
p1395
aV\u6211\u53d1
p1396
aV\u4e4b\u4e00
p1397
aV\u6cd5\u5219
p1398
aV\u8fd9\u70b9
p1399
aV23
p1400
aV\u8001\u5a46
p1401
aV\u60a3\u8005
p1402
aV\u5c0f\u59d1\u5a18
p1403
aV\u6821\u533a
p1404
aV##
p1405
aV\u7b2c\u4e8c\u5929
p1406
aV\u4e16\u95f4
p1407
aV\u5927\u6982
p1408
aV\u65e0\u529b
p1409
aV\u653e\u5f03
p1410
aV\u54b1\u4eec
p1411
aV\u8111\u6d77
p1412
aV\u8ba8\u8bba
p1413
aV\u5403\u706b\u9505
p1414
aV\u7efd\u653e
p1415
aV\u8611\u83c7
p1416
aV\u788e\u89c9
p1417
aV\u5356\u840c
p1418
aV\u62a2\u7ea2\u5305
p1419
aV\u5feb\u6a02
p1420
aV\u884c\u52a8
p1421
aV\u672c\u79d1
p1422
aV\u7f8e\u5473
p1423
aV\u516d\u6559
p1424
aV\u5916\u52a0
p1425
aV10
p1426
aV13
p1427
aV12
p1428
aV\u51e0\u96c6
p1429
aV14
p1430
aV\u65b0\u5e74
p1431
aV16
p1432
aV19
p1433
aV18
p1434
aV\u4e00\u500b
p1435
aV\u76f4\u64ad
p1436
aV\u7a81\u7834
p1437
aV\u4e0d\u540c
p1438
aV\u7889\u5821
p1439
aV\u5c0f\u670b\u53cb
p1440
aV\u82f1\u8bed
p1441
aVMM
p1442
aV\u8dea\u6c42
p1443
aV\u5207\u5c14\u897f
p1444
aV\u827e\u7279
p1445
aV\u53e3\u7f69
p1446
aVDJ
p1447
aV\u897f\u6e38
p1448
aV\u62db\u8058
p1449
aV\u524d\u5929
p1450
aV\u65e5\u672c
p1451
aV\u90a3\u70b9
p1452
aVstyle
p1453
aV\u7f3a\u70b9
p1454
aV\u6211\u52d2\u4e2a
p1455
aV\u79fb\u52a8
p1456
aV\u5361\u897f
p1457
aV\u5b66\u672f
p1458
aV\u7126\u8651
p1459
aV\u8881\u5cb3
p1460
aV\u5b66\u671f
p1461
aV\u897f\u4e09\u73af
p1462
aV\u9178\u75db
p1463
aV\u60b2\u5267
p1464
aV\u7537\u4e3b
p1465
aV\u771f\u8bda
p1466
aV\u7537\u795e
p1467
aV\u5931\u8bef
p1468
aV\u7403\u738b
p1469
aV200
p1470
aV\u4e2d\u6587
p1471
aV\u624b\u673a\u53f7
p1472
aV\u6536\u5de5
p1473
aV\u627e\u5230
p1474
aV\u6700\u7ec8
p1475
aV\u4e2a\u8d5e
p1476
aV\u62dc\u6258
p1477
aV\u56fe\u4e66\u9986
p1478
aV\u70b9\u534a
p1479
aV\u521a\u521a
p1480
aV\u4f5c\u54c1
p1481
aV\u5973\u53cb
p1482
aV\u771f\u597d
p1483
aV\u613f\u671b
p1484
aV\u897f\u6e56
p1485
aV\u7ec3\u4e60
p1486
aV\u6bcf\u4efd
p1487
aV\u8fdf\u5230
p1488
aV\u897f\u76f4\u95e8
p1489
aV\u9664\u4e86
p1490
aV\u4e3b\u6301
p1491
aV\u4e7e\u5e0c
p1492
aV\u9634\u9669
p1493
aV\u521a\u5230
p1494
aV\u539f\u56e0
p1495
aV\u4e0d\u77e5
p1496
aV\u540e\u6eaa
p1497
aVQAQ
p1498
aV\u56fd\u8db3
p1499
aV\u5fc3\u7406\u5b66
p1500
aV\u6d66\u4e1c
p1501
aV\u62dc\u4ec1
p1502
aV\u5927\u4eba
p1503
aV\u6c99\u9f99
p1504
aV\u624b\u8d31
p1505
aV\u7403\u5458
p1506
aV\u65e9\u996d
p1507
aV\u53cc\u9c7c
p1508
aV\u5357\u95e8
p1509
aV\u672c\u5ea7
p1510
aV\u78b0\u5230
p1511
aV\u6d3b\u52a8
p1512
aV\u6700\u4f73\u96c7\u4e3b
p1513
aV\u83b7\u53d6
p1514
aV\u6807\u7b7e
p1515
aV\u5730\u65b9
p1516
aV\u813e\u6c14
p1517
aV\u5b89\u9038
p1518
aVv3
p1519
aV\u654f\u611f
p1520
aV\u8bb2\u5ea7
p1521
aV\u65c5\u6e38
p1522
aV\u5927\u4e8c
p1523
aV\u5927\u4e8b
p1524
aV\u53ea\u597d
p1525
aV\u6ee1\u5929\u661f
p1526
aV\u5f3a\u5927
p1527
aV\u4e91\u6735
p1528
aV\u60ca\u8273
p1529
aV\u7b11\u50b2\u6c5f\u6e56
p1530
aV\u79cb\u88e4
p1531
aV\u822a\u7ad9\u697c
p1532
aV\u5f3a\u8feb\u75c7
p1533
aV\u8f6c\u5708
p1534
aV\u5b89\u606f
p1535
aV\u534e\u4e3a
p1536
aV\u597d\u4e66
p1537
aV\u7ec4\u4f1a
p1538
aV\u534e\u4e3d
p1539
aV\u79d1\u5b66
p1540
aV\u4e00\u665a
p1541
aV\u53d1\u7968
p1542
aV\u8003\u7814
p1543
aV\u4e13\u4e1a
p1544
aV\u8fd0\u6c14
p1545
aV\u534a\u573a
p1546
aV\u4e0d\u5982
p1547
aV\u8fd9\u6b21
p1548
aV\u65e9\u9910
p1549
aV\u5b89\u7a33
p1550
aV\u6279\u8bc4
p1551
aV\u53ea\u8981
p1552
aV\u597d\u4e45
p1553
aV\u5c0f\u8d1d
p1554
aV\u6728\u6709
p1555
aV\u8303\u513f
p1556
aV\u5e02\u573a
p1557
aV\u6bd4\u5206
p1558
aV\u5fae\u535a\u4e0a
p1559
aV\u8f6c\u773c
p1560
aV\u76f4\u63a5
p1561
aV\u6700\u597d
p1562
aV\u7535\u8bdd
p1563
aV\u6b27\u8036
p1564
aV\u5468\u8fb9
p1565
aV\u5ba3\u8bb2\u4f1a
p1566
aV\u5367\u69fd
p1567
aV\u5165\u5b66
p1568
aV\u56fd\u8d38
p1569
aV\u597d\u4eba
p1570
aV\u65e0\u8bba
p1571
aV\u4e0d\u597d
p1572
aV\u5fae\u7b11
p1573
aV\u516c\u4ea4\u8f66
p1574
aVweibo
p1575
aV\u7f51\u6613
p1576
aV\u597d\u5f00\u5fc3
p1577
aV\u9ad8\u4e2d
p1578
aV\u670b\u53cb
p1579
aV\u771f\u4e0d\u9519
p1580
aV\u6253\u7b97
p1581
aV\u6d17\u4e2a
p1582
aV\u6210\u5e9c
p1583
aVMIT
p1584
aV\u786c\u4ef6
p1585
aV\u4e5d\u4e61
p1586
aV\u4f53\u9a8c
p1587
aV\u8d8a\u6765\u8d8a
p1588
aV\u8bc4\u4ef7
p1589
aV\u5965\u7279\u66fc
p1590
aV\u597d\u4e8b
p1591
aV\u4e2d\u5927\u5956
p1592
aV\u670d\u88c5
p1593
aV\u5e73\u9759
p1594
aV\u4f4d\u7f6e
p1595
aV\u5012\u6570
p1596
aV\u5148\u751f
p1597
aV\u9879\u76ee
p1598
aV\u65b0\u6625\u5feb\u4e50
p1599
aV\u5bf9\u9762
p1600
aV26
p1601
aV\u4e0d\u592a
p1602
aV77
p1603
aV\u6076\u5fc3
p1604
aV\u800c\u5df2
p1605
aV\u66f2\u5947
p1606
aV\u6b23\u6170
p1607
aV\u4e09\u5206
p1608
aV\u52a9\u6559
p1609
aV\u8282\u65e5
p1610
aV\u751f\u547d
p1611
aV\u706b\u8f66
p1612
aV\u5b63\u8282
p1613
aV\u4ece\u4e0d
p1614
aV\u9707\u64bc
p1615
aV\u592a\u5c11
p1616
aV\u6bd5\u4e1a\u5178\u793c
p1617
aV\u62a5\u8868
p1618
aV\u592a\u5c0f
p1619
aV\u6392\u7ec3
p1620
aV\u4e0d\u591f
p1621
aV\u6587\u5b57
p1622
aV\u5357\u4eac\u5927\u5b66
p1623
aV\u5976\u5976
p1624
aV\u6545\u4e8b
p1625
aV150
p1626
aV\u623f\u4ef7
p1627
aV\u7761\u4e0d\u7740
p1628
aV\u6295\u8d44
p1629
aV60
p1630
aV\u592a\u5dee
p1631
aV\u6bd5\u8bbe
p1632
aV\u82f1\u8d85
p1633
aV3000
p1634
aV\u6c14\u6e29
p1635
aV\u5f00\u901a
p1636
aV\u51e0\u70b9
p1637
aV\u4e00\u671f
p1638
aV\u4ee3\u7801
p1639
aV\u6210\u7ee9
p1640
aV\u5929\u671d
p1641
aV\u570b\u7acb
p1642
aV\u957f\u6c99
p1643
aV\u91cd\u590d
p1644
aV\u59d1\u5a18
p1645
aV\u6025\u9700
p1646
aV\u4e00\u672c
p1647
aVmark
p1648
aV\u5de5\u4f5c
p1649
aV\u5370\u8c61
p1650
aV\u6ce8\u518c
p1651
aV\u624b\u6c14
p1652
aV\u518d\u4e5f
p1653
aV\u5bb6\u957f
p1654
aV\u8eab\u4f53\u5065\u5eb7
p1655
aV500
p1656
aV\u56fe\u7247
p1657
aV\u7206\u53d1
p1658
aV\u80d6\u5b50
p1659
aV\u9ad8\u4e2d\u540c\u5b66
p1660
aV\u5e86\u795d
p1661
aV\u7f8e\u5267
p1662
aV077
p1663
aV\u7b14\u8bb0
p1664
aV\u4e2d\u67aa
p1665
aV\u6050\u6016
p1666
aV\u751f\u75c5
p1667
aV40
p1668
aV\u771f\u5fc3
p1669
aV\u4e22\u4eba
p1670
aV\u660e\u4fe1\u7247
p1671
aV\u62b1\u62b1
p1672
aV\u4e00\u6761
p1673
aV\u86cb\u86cb
p1674
aV\u5927\u8fde
p1675
aV\u4e00\u676f
p1676
aV\u7406\u89e3
p1677
aV\u5931\u8d25
p1678
aV\u804a\u5929
p1679
aV\u751f\u5b58
p1680
aV\u5929\u874e
p1681
aV\u66f4\u52a0
p1682
aV\u4eca\u665a
p1683
aV\u903c\u683c
p1684
aV\u53d8\u8001
p1685
aV\u5e74\u8f7b\u4eba
p1686
aV\u6708\u5e95
p1687
aV\u5f69\u7968
p1688
aV\u4e2d\u56fd\u79fb\u52a8
p1689
aV\u4f60\u5bb6
p1690
aV\u5e26\u6765
p1691
aV\u4e00\u679a
p1692
aV\u6076\u610f
p1693
aV\u521b\u610f
p1694
aVeveryday
p1695
aV\u8f6c\u76d8
p1696
aV\u4e0d\u987a
p1697
aV\u5927\u4f17
p1698
aV\u9a6c\u822a
p1699
aV\u66fc\u8054
p1700
aV\u62bd\u5956
p1701
aV\u68c0\u67e5
p1702
aV\u5b59\u6960
p1703
aVXXX
p1704
aV\u5927\u4f1a
p1705
aV\u5468\u4e94
p1706
aV\u592a\u5751
p1707
aV\u591a\u597d
p1708
aV\u6295\u8bc9
p1709
aV\u5468\u4e8c
p1710
aV\u7d20\u8d28
p1711
aV\u6253\u724c
p1712
aV\u714e\u71ac
p1713
aV\u5f62\u8c61
p1714
aV\u5165\u804c
p1715
aV\u8bf7\u95ee
p1716
aV\u592a\u597d\u4e86
p1717
aV\u5bc6\u7801
p1718
aV\u592a\u7d2f
p1719
aV\u591a\u591a
p1720
aV\u5404\u4f4d\u670b\u53cb
p1721
aV\u6211\u7528
p1722
aV\u65e0\u8bed
p1723
aV\u4eba\u8270
p1724
aV\u5bb9\u6613
p1725
aV\u4ed9\u6797
p1726
aV\u82f1\u683c\u5170
p1727
aV\u4eba\u624d
p1728
aV\u623f\u4e1c
p1729
aV\u9ad8\u6f6e
p1730
aV\u591a\u5929
p1731
aV\u597d\u6d88\u606f
p1732
aV\u6fc0\u52a8
p1733
aV\u5220\u6389
p1734
aV\u8270\u96be
p1735
aV\u81ea\u4e60\u5ba4
p1736
aV\u7b2c\u4e00\u6761
p1737
aV\u5e72\u6d3b
p1738
aV\u613f\u610f
p1739
aV\u4e86\u89e3
p1740
aV\u52c7\u6562
p1741
aV\u5357\u4eac\u5e02
p1742
aV\u6c42\u95ee
p1743
aV\u5c0f\u533a
p1744
aV\u98ce\u96e8
p1745
aV\u6210\u5c31
p1746
aV\u53d1\u5e03\u4f1a
p1747
aV\u4e94\u70b9
p1748
aV\u5c71\u4e1c
p1749
aV\u603b\u80fd
p1750
aV\u5409\u4ed6
p1751
aV\u5fc3\u8840\u6765\u6f6e
p1752
aV\u624d\u80fd
p1753
aV\u770b\u4e0d\u4e0b\u53bb
p1754
aV\u8bf4\u8bdd
p1755
aV\u5f52\u6765
p1756
aV\u51fa\u53bb\u73a9
p1757
aV\u6b4c\u58f0
p1758
aV\u76f8\u58f0
p1759
aV\u6881\u535a
p1760
aV\u6628\u665a
p1761
aV\u6291\u90c1
p1762
aV\u4e24\u5468
p1763
aV8s6EShF
p1764
aV\u4e00\u5982\u65e2\u5f80
p1765
aV\u53cd\u800c
p1766
aV\u770b\u4e00\u904d
p1767
aV\u7136\u540e
p1768
aV\u9009\u62e9
p1769
aV\u6295\u884c
p1770
aV\u73ab\u7470
p1771
aV\u4eca\u65e9
p1772
aV\u53cd\u601d
p1773
aV\u4eca\u65e5
p1774
aV\u7280\u5229
p1775
aV\u9a84\u50b2
p1776
aV75
p1777
aV\u653e\u7a7a
p1778
aV\u9ed1\u8272
p1779
aV\u4e0d\u7ba1
p1780
aV\u597d\u610f\u601d
p1781
aV\u65e0\u77e5
p1782
aV\u4ece\u6ca1
p1783
aV\u7b49\u4f60\u62ff
p1784
aV\u968f\u4fbf
p1785
aV\u6210\u529f
p1786
aV\u54cd\u8d77
p1787
aV\u6c7d\u8f66
p1788
aV\u7403\u961f
p1789
aV\u7855\u58eb
p1790
aV\u5957\u9910
p1791
aVmoc
p1792
aV\u6548\u7387
p1793
aV\u521d\u604b
p1794
aV\u4e09\u70b9
p1795
aV\u62db\u65b0
p1796
aV\u5929\u4f7f
p1797
aV\u53cb\u60c5
p1798
aV\u95f9\u5fc3
p1799
aV\u540e\u77e5\u540e\u89c9
p1800
aV\u56f0\u96be
p1801
aV\u5355\u8bcd
p1802
aV\u542c\u8bf4
p1803
aV\u80a0\u80c3
p1804
aV\u5723\u8bde\u5feb\u4e50
p1805
aV\u6625\u665a
p1806
aV\u4f55\u5fc5
p1807
aV\u65c5\u7a0b
p1808
aV\u771f\u662f\u592a
p1809
aV\u9a6c\u523a
p1810
aV\u8fc7\u8282
p1811
aV\u5f55\u53d6
p1812
aV\u4e5d\u70b9
p1813
aV\u4f18\u79c0
p1814
aV\u529e\u6cd5
p1815
aV\u89c9\u5f97
p1816
aVMark
p1817
aV\u6e29\u99a8
p1818
aV\u9009\u624b
p1819
aV\u4e13\u6ce8
p1820
aV\u5750\u8f66
p1821
aV\u6d59\u6c5f
p1822
aV\u6e05\u695a
p1823
aV\u53f7\u7ebf
p1824
aV\u7535\u89c6
p1825
aV\u5341\u51e0\u5e74
p1826
aV\u89c4\u5f8b
p1827
aV\u6ca1\u53d1
p1828
aV\u5916\u9762
p1829
aV\u5e7f\u4e1c
p1830
aV\u54c8\u54c8\u54c8\u54c8
p1831
aV\u6e38\u620f
p1832
aV\u5c4f\u5e55
p1833
aV\u732a\u732a
p1834
aV\u804c\u4f4d
p1835
aV\u7532\u65b9
p1836
aV\u6781\u7aef
p1837
aV\u83ab\u975e
p1838
aV\u5bf9\u9519
p1839
aV\u95ed\u5634
p1840
aV\u503c\u5f97\u7eaa\u5ff5
p1841
aV\u610f\u5916
p1842
aV\u73a9\u610f\u513f
p1843
aV\u73b0\u91d1
p1844
aV\u901b\u8857
p1845
aV\u521a\u770b
p1846
aV\u56f4\u8116
p1847
aV\u542c\u6b4c
p1848
aV\u6e05\u534e\u5927\u5b66
p1849
aVT3
p1850
aV\u952e\u76d8
p1851
aV\u79d8\u5bc6
p1852
aV\u5f00\u53d1
p1853
aV\u660e\u767d
p1854
aV\u5468\u56f4
p1855
aV\u9898\u76ee
p1856
aV\u793e\u56e2
p1857
aV\u987a\u4e30
p1858
aV\u611a\u4eba\u8282
p1859
aV\u5386\u53f2
p1860
aVok
p1861
aV\u6d17\u6fa1
p1862
aV\u5426\u5219
p1863
aV\u7761\u89c9
p1864
aV\u65e9\u5b89
p1865
aV\u8bfb\u61c2
p1866
aV\u540c\u684c
p1867
aV\u540c\u4e8b
p1868
aV\u676f\u5177
p1869
aV\u8ba4\u4e3a
p1870
aV\u4f01\u8fbe
p1871
aV\u5174\u8da3
p1872
aV\u4e0a\u9762
p1873
aV\u4e0d\u5230
p1874
aV\u5413\u6b7b
p1875
aV\u6b4c\u8bcd
p1876
aV\u53c2\u89c2
p1877
aV\u8e81\u72c2\u75c7
p1878
aV\u9493\u9c7c\u5c9b
p1879
aV\u8ba2\u7968
p1880
aV\u96c5\u601d
p1881
aV\u4e0b\u53bb
p1882
aV\u5b57\u5e55
p1883
aV\u6bcf\u65e5
p1884
aV\u592a\u5feb
p1885
aV\u7a7a\u95f4
p1886
aV\u6ca1\u4eba
p1887
aV\u5531\u6b4c
p1888
aV\u51fa\u884c
p1889
aV\u5934\u75bc
p1890
aV\u624b\u4e00
p1891
aV\u5b89\u597d
p1892
aV\u79d1\u7814
p1893
aV\u4eb2\u4eb2
p1894
aV\u7ea0\u7ed3
p1895
aV\u5f71\u54cd
p1896
aV\u6ca1\u4e8b
p1897
aV\u4f24\u5bb3
p1898
aV\u5468\u4e09
p1899
aVlow
p1900
aV\u5706\u68a6
p1901
aV\u9ad8\u8003
p1902
aV\u9884\u7ea6
p1903
aV\u5c0f\u79d8\u4e66
p1904
aV\u6bcf\u5929
p1905
aV\u70ed\u60c5
p1906
aVproject
p1907
aV\u5934\u75db
p1908
aV\u5fae\u98ce
p1909
aV\u7ecf\u6d4e
p1910
aV\u6253\u6e38\u620f
p1911
aV\u7eff\u706f
p1912
aV\u9192\u6765
p1913
aV\u987a\u4fbf
p1914
aV\u6bcf\u6b21
p1915
aV\u5927\u8def
p1916
aV\u7231\u4e0a
p1917
aV\u6050\u60e7
p1918
aV\u5468\u4e00
p1919
aV\u4f60\u597d
p1920
aV\u5145\u5b9e
p1921
aV\u793e\u79d1
p1922
aV\u5475\u5475
p1923
aV\u732b\u54aa
p1924
aV\u96f6\u4e0b
p1925
aV\u7b56\u5212
p1926
aV\u4e0d\u820d
p1927
aV\u5b66\u6e23
p1928
aV\u5f20\u56fd\u8363
p1929
aV\u4eb2\u4eec
p1930
aV\u561f\u561f
p1931
aV\u8fd9\u6837
p1932
aV\u4e00\u9897
p1933
aV\u5c11\u5973
p1934
aV\u6211\u4f1a
p1935
aV600
p1936
aV\u6c5f\u5357style
p1937
aV\u5883\u754c
p1938
aV\u62a5\u9500
p1939
aV\u6027\u683c
p1940
aV\u51b0\u6dc7\u6dcb
p1941
aV\u4e00\u8def
p1942
aV\u6d17\u6d17
p1943
aV\u597d\u4e0d\u5bb9\u6613
p1944
aV\u88ab\u76d7
p1945
aV\u5dee\u8ddd
p1946
aV\u805a\u4f1a
p1947
aV\u53d8\u6210
p1948
aV\u4f60\u59b9
p1949
aV\u5065\u8eab\u623f
p1950
aV\u4e0a\u763e
p1951
aV\u8bf4\u597d
p1952
aV\u8fd8\u662f
p1953
aV\u901d\u53bb
p1954
aV\u6062\u590d
p1955
aV\u5357\u56ed
p1956
aV\u77e5\u8bc6
p1957
aV\u4e0d\u77e5\u4e0d\u89c9
p1958
aV\u884c\u4e14
p1959
aV1111
p1960
aV\u540e\u9057\u75c7
p1961
aV\u94a5\u5319
p1962
aV\u5077\u7b11
p1963
aV\u95ed\u773c
p1964
aV\u62bd\u7b4b
p1965
aV\u5927\u6d77
p1966
aV\u6587\u5316
p1967
aV\u5927\u6e05\u65e9
p1968
aV\u6ca1\u610f\u601d
p1969
aV\u5fd9\u788c
p1970
aV\u4e24\u4ef6\u4e8b
p1971
aV\u8003\u5b8c
p1972
aV\u65e5\u8d77
p1973
aV\u592a\u5f31
p1974
aV\u7eff\u8272
p1975
aV\u7237\u7237
p1976
aV\u7537\u751f
p1977
aV\u7ec6\u8282
p1978
aV\u5c0f\u4eba
p1979
aV\u8865\u8d34
p1980
aV\u9e22\u5c3e
p1981
aV\u4e38\u5b50
p1982
aV\u4f34\u7740
p1983
aV\u63d0\u9ad8
p1984
aV\u843d\u6795
p1985
aV\u59b9\u59b9
p1986
aV\u5c0f\u4e8b
p1987
aV\u65b9\u5f0f
p1988
aV\u559c\u7231
p1989
aV\u5927\u8d5e
p1990
aV\u51b0\u96f9
p1991
aV\u5927\u8d5b
p1992
aV\u76f8\u5904
p1993
aV\u7535\u68af
p1994
aV\u5730\u94c1
p1995
aV\u8bba\u575b
p1996
aV\u6587\u732e
p1997
aV\u6dd8\u6c70
p1998
aV\u804c\u4e1a
p1999
aV\u5b57\u73ed
p2000
aV\u53cc\u9f99
p2001
aV\u8fc7\u5f97
p2002
aV\u5fc3\u788e
p2003
aVali
p2004
aV\u597d\u723d
p2005
aV\u5f80\u4e8b
p2006
aV\u7cdf\u7cd5
p2007
aV\u901a\u8fc7
p2008
aV\u5343\u4e07
p2009
aV\u6e05\u5c0f\u534e
p2010
aV\u51cc\u6668
p2011
aV\u65e2\u7136
p2012
aV.....
p2013
aV\u6b4c\u66f2
p2014
aV\u78b0\u4e0a
p2015
aV15
p2016
aVgo
p2017
aVTAT
p2018
aV\u6ee1\u8840
p2019
aV\u7ecf\u9a8c
p2020
aV\u7814\u4f1a
p2021
aV\u5206\u6570
p2022
aV\u7403\u8863
p2023
aV\u9996\u90fd\u673a\u573a
p2024
aV\u56fd\u5185
p2025
aV\u4f3c\u7684
p2026
aVtm
p2027
aV\u5609\u56ed
p2028
aV\u5929\u6c14\u9884\u62a5
p2029
aV\u5357\u697c
p2030
aVpresentation
p2031
aV\u9006\u88ad
p2032
aV\u5168\u660e\u661f
p2033
aVta
p2034
aV\u98ce\u6247
p2035
aV\u5f31\u5f31
p2036
aV\u62cd\u7167
p2037
aV\u5404\u4f4d
p2038
aV\u4fee\u597d
p2039
aV\u4e0d\u65ad
p2040
aV\u6211\u80fd
p2041
aV\u8282\u594f
p2042
aV\u52a0\u5fae
p2043
aVHello
p2044
aVWindowsPhone8
p2045
aV\u4f59\u989d
p2046
aV\u51fa\u573a
p2047
aV\u795d\u798f
p2048
aV\u611f\u5174\u8da3
p2049
aV\u5e78\u8fd0
p2050
aV\u5dee\u522b
p2051
aV______________________#
p2052
aV\u7f51\u7ad9
p2053
aV\u4e3b\u9898
p2054
aV\u4eba\u5fc3
p2055
aV\u5b9e\u5728
p2056
aV\u8fd9\u573a
p2057
aV\u5bf9\u8bdd
p2058
aV\u60f3\u8c61
p2059
aV\u6838\u5fc3
p2060
aV\u6539\u6210
p2061
aV\u52c7\u58eb
p2062
aV\u542c\u95fb
p2063
aV\u5927\u7237
p2064
aV\u5267\u900f\u614e\u5165
p2065
aV\u6c49\u53e3\u8def
p2066
aV\u4e3b\u9875
p2067
aV\u4e0d\u6562
p2068
aV\u5751\u7239
p2069
aV\u6dd8\u5b9d
p2070
aV\u964d\u6e29
p2071
aV\u4e70\u70b9
p2072
aV\u65e9\u65e9
p2073
aV\u964d\u4e34
p2074
aV\u4e94\u4e2a
p2075
aV\u4e8c\u5341\u5e74
p2076
aV\u65e9\u65e5
p2077
aV\u90a3\u6bb5
p2078
aV\u83ab\u8fc7\u4e8e
p2079
aV\u6562\u4e0d\u6562
p2080
aV\u770b\u8d77\u6765
p2081
aV\u6709\u611f
p2082
aV\u4f55\u4ee5\u582a
p2083
aV\u97e9\u5bd2
p2084
aV\u592a\u7ed9\u529b
p2085
aV\u53cd\u5e94
p2086
aV\u6700\u65b0
p2087
aV\u770b\u6210
p2088
aV\u5143\u5bb5\u8282
p2089
aV\u724c\u5b50
p2090
aV\u6837\u5b50
p2091
aV\u65c1\u8fb9
p2092
aV\u6ca1\u6cd5
p2093
aV\u5d29\u6e83
p2094
aV\u5510\u840c\u840c
p2095
aV\u6349\u6025
p2096
aV\u4e94\u4e00
p2097
aV\u72af\u56f0
p2098
aV\u52a8\u753b
p2099
aV\u6559\u7a0b
p2100
aV5000
p2101
aV\u9884\u544a
p2102
aV\u7559\u8a00
p2103
aV\u4e16\u4e0a
p2104
aV\u5348\u4f11
p2105
aV\u96be\u770b
p2106
aV\u8bf4\u660e
p2107
aV\u98ce\u683c
p2108
aV\u5fc3\u585e
p2109
aV\u8bbe\u7f6e
p2110
aV\u8377\u5170
p2111
aV\u4e0d\u89c1\u4e0d\u6563
p2112
aV\u4e00\u7ad9
p2113
aV\u5c31\u522b
p2114
aV\u5c0f\u51b0
p2115
aV\u6b63\u4e8b
p2116
aV\u53f8\u673a
p2117
aV\u5c0f\u718a
p2118
aV\u5feb\u5feb
p2119
aV\u70b9\u5f00
p2120
aV\u8d76\u4e0a
p2121
aV\u5927\u725b
p2122
aV\u6e29\u67d4
p2123
aV\u6211\u64cd
p2124
aV\u83b7\u5f97
p2125
aV\u8e0f\u5b9e
p2126
aV\u6682\u65f6
p2127
aV\u4e09\u4e2a
p2128
aV\u5370\u5ea6
p2129
aV\u8f9b\u82e6
p2130
aV\u8fd8\u597d
p2131
aV\u6b66\u6c49
p2132
aV\u6bd5\u4e1a\u8bba\u6587
p2133
aV.......
p2134
aV\u8d81\u7740
p2135
aVvia
p2136
aV\u6625\u5929
p2137
aV\u4e5f\u597d
p2138
aV\u4f5c\u4e1a
p2139
aV\u60c5\u6000
p2140
aV\u7ecf\u7ba1
p2141
aVNike
p2142
aV\u5927\u53a6
p2143
aV\u6a31\u6843
p2144
aV\u9ea6\u5f53\u52b3
p2145
aV\u5e72\u51c0
p2146
aV\u7f8e\u4e3d
p2147
aV\u4e00\u7b14
p2148
aV\u5c0f\u5077
p2149
aV\u672a\u77e5
p2150
aV\u539f\u8c05
p2151
aV\u4ef7\u503c
p2152
aV\u7761\u8fc7\u53bb
p2153
aV\u56fe\u4e66
p2154
aV\u66b4\u529b
p2155
aV\u6298\u78e8
p2156
aV\u671d\u9633
p2157
aV\u4f5c\u4e3a
p2158
aV\u4e4b\u540e
p2159
aV\u96be\u5f97
p2160
aV\u8fc7\u5ea6
p2161
aV\u6885\u897f
p2162
aV\u8bfb\u7814
p2163
aV\u822a\u73ed
p2164
aV\u82f9\u679c
p2165
aV\u68a6\u9b47
p2166
aV\u7741\u773c
p2167
aV\u8981\u6b7b
p2168
aV\u5835\u8f66
p2169
aV\u9a9a\u6270
p2170
aV\u5395\u6240
p2171
aV\u5927\u7231
p2172
aV\u7a76\u7adf
p2173
aV\u751f\u7269\u949f
p2174
aV\u6350\u94b1
p2175
aV\u5f71\u5b50
p2176
aV\u7247\u5b50
p2177
aV\u5fc5\u8981
p2178
aV\u7a0b\u5ea6
p2179
aV\u5149\u534e\u8def
p2180
aV\u540e\u53f0
p2181
aVG15
p2182
aV\u67e5\u6536
p2183
aV\u79d1\u666e
p2184
aV\u96be\u5fd8
p2185
aV\u9e21\u8840
p2186
aV\u903b\u8f91
p2187
aV\u62b5\u8fbe
p2188
aV\u6765\u770b
p2189
aV\u8001\u5b50
p2190
aV\u8fdb\u53bb
p2191
aV\u4e3b\u6301\u4eba
p2192
aV\u5145\u6ee1
p2193
aV\u6559\u5ba4
p2194
aV\u4f46\u613f
p2195
aV\u6211\u8981
p2196
aV\u4e2b\u4e2b
p2197
aV\u5b98\u65b9
p2198
aV\u7761\u5f97
p2199
aV\u6216\u8bb8
p2200
aVSB
p2201
aV\u5fc3\u60f3\u4e8b\u6210
p2202
aV\u5176\u5b9e
p2203
aV\u7279\u5956
p2204
aV\u65e5\u8bed
p2205
aV\u7b97\u4e86
p2206
aV\u5fae\u535a\u53f7
p2207
aVIBM
p2208
aV\u4e2d\u5fc3
p2209
aV\u65b0\u5e74\u5feb\u4e50
p2210
aV\u4e09\u4f53
p2211
aV\u75af\u72c2
p2212
aVApphttp
p2213
aV\u8fd9\u96c6
p2214
aV\u533b\u9662
p2215
aV\u91cd\u65b0
p2216
aV\u652f\u6559
p2217
aV\u7d27\u5f20
p2218
aV\u4e00\u5b9a
p2219
aV\u518d\u6b21
p2220
aV\u597d\u73a9
p2221
aV\u5317\u5927
p2222
aV\u7406\u7531
p2223
aV\u5e08\u59b9
p2224
aV\u5317\u4eac\u5730\u94c1
p2225
aV\u56fd\u5b66
p2226
aV\u540c\u5fd7
p2227
aV\u9a6c\u8def
p2228
aV\u820d\u4e0d\u5f97
p2229
aV\u5154\u5b50
p2230
aV\u6e29\u6696
p2231
aV\u738b\u9053
p2232
aV\u81f4\u656c
p2233
aV\u68a6\u5883
p2234
aV\u679c\u679c
p2235
aV\u5f88\u7d2f
p2236
aV\u66fe\u7ecf
p2237
aV\u563f\u563f
p2238
aV\u51b3\u5b9a
p2239
aV\u540e\u536b
p2240
aV\u6f14\u51fa
p2241
aV\u4e00\u7bc7
p2242
aV\u5fae\u535a\u53bb
p2243
aV\u76f8\u7ea6
p2244
aV\u5e08\u59d0
p2245
aV\u6240\u6709
p2246
aV\u73af\u5883
p2247
aV\u5965\u65af\u5361
p2248
aV\u661f\u5df4\u514b
p2249
aV\u76f8\u673a
p2250
aV\u666e\u901a
p2251
aV\u4e00\u4e0a\u5348
p2252
aV\u521d\u5fc3
p2253
aV\u964c\u751f
p2254
aV\u8f66\u7968
p2255
aV\u96f6\u70b9
p2256
aV\u65e5\u8bb0
p2257
aV\u590d\u6d3b
p2258
aV\u4e25\u91cd
p2259
aV\u8fc7\u5e74
p2260
aV\u56de\u56fd
p2261
aV\u56fd\u9053
p2262
aV\u7b2c\u4e00\u5b63
p2263
aV\u77ac\u95f4
p2264
aV\u8fd9\u4f1a
p2265
aV\u5076\u5c14
p2266
aV\u62a5\u9053
p2267
aV\u5757\u94b1
p2268
aV\u957f\u5047
p2269
aVfacebook
p2270
aV\u4e00\u5bf9
p2271
aV\u6bd4\u8f83
p2272
aV\u597d\u53cb
p2273
aV\u4e00\u5806
p2274
aV\u8def\u4e0a
p2275
aV\u5904\u7406
p2276
aV\u4ec0\u4e48
p2277
aV\u592a\u592a
p2278
aV\u5fae\u8584
p2279
aV\u4f20\u8bf4
p2280
aV\u6635\u79f0
p2281
aVpaper
p2282
aV\u5173\u4e8e
p2283
aV\u5f00\u4f1a
p2284
aV\u7761\u61d2\u89c9
p2285
aV\u8003\u8651
p2286
aV\u7535\u5546
p2287
aV\u53d8\u5f97
p2288
aV\u542f\u53d1
p2289
aV\u7528\u6765
p2290
aV24
p2291
aV\u6587\u4ef6
p2292
aV\u98de\u673a
p2293
aV27
p2294
aV20
p2295
aV21
p2296
aV22
p2297
aV\u6bd5\u4e1a
p2298
aV\u5e95\u7ebf
p2299
aV\u79bb\u5a5a
p2300
aV28
p2301
aV29
p2302
aV\u8bb0\u4f4f
p2303
aV\u5f69\u86cb
p2304
aV\u53ea\u6709
p2305
aV\u864e\u5b50
p2306
aVpad
p2307
aV\u5fd8\u8bb0
p2308
aV\u53d1\u5e03
p2309
aV\u51b2\u52a8
p2310
aV\u6fb3\u7f51
p2311
aV\u6ce8\u610f
p2312
aV\u57fa\u672c
p2313
aV\u5b9c\u5bb6
p2314
aVgood
p2315
aV\u5c0f\u732b
p2316
aV\u5c0f\u732a
p2317
aV\u7cbe\u82f1
p2318
aV\u96e8\u58f0
p2319
aV\u9a6c\u4e0a
p2320
aV\u53d1\u5fae\u535a
p2321
aV\u4e24\u6b21
p2322
aV\u53d1\u6761
p2323
aV\u53d1\u6765
p2324
aVtsinghua
p2325
aV2B
p2326
aV\u5468\u516d
p2327
aV\u9762\u5bf9
p2328
aV\u9002\u5e94
p2329
aV\u4e0a\u8bfe
p2330
aV\u5f00\u8f66
p2331
aV\u8863\u670d
p2332
aV\u5077\u61d2
p2333
aV\u94f6\u884c\u5361
p2334
aV\u8f66\u7ad9
p2335
aV\u793c\u62dc
p2336
aV\u4f4e\u8c03
p2337
aV\u771f\u60f3
p2338
aV\u70df\u82b1
p2339
aVbless
p2340
aV\u6ca1\u52b2
p2341
aV\u5723\u8bde
p2342
aV\u65e0\u6bd4
p2343
aV\u5267\u900f
p2344
aV\u4e00\u9879
p2345
aV\u4e00\u987f
p2346
aVRvtNRlR
p2347
aV\u4e0d\u6765
p2348
aV\u5730\u7b11
p2349
aV\u51fa\u95e8
p2350
aV\u590d\u4e60
p2351
aV\u89d2\u8272
p2352
aV\u6b65\u6b65
p2353
aV\u63a5\u4e0b\u6765
p2354
aV\u4e00\u584c\u7cca\u6d82
p2355
aV\u6df1\u591c
p2356
aV\u5185\u5fc3
p2357
aV\u5ef6\u8bef
p2358
aV\u5565\u65f6\u5019
p2359
aV\u5361\u5361
p2360
aV\u4e00\u7897
p2361
aV\u4f26\u6566
p2362
aV\u7279\u4e48
p2363
aV\u63d0\u95ee
p2364
aV\u8f93\u5165
p2365
aV\u8fdc\u4e1c
p2366
aV\u8292\u679c
p2367
aV\u7535\u5b50\u8bcd\u5178
p2368
aV\u80fd\u591f
p2369
aV01
p2370
aV\u505a\u9b3c\u8138
p2371
aV\u732e\u7231\u5fc3
p2372
aV\u6d3b\u7740
p2373
aV\u9635\u96e8
p2374
aV\u8282\u64cd
p2375
aV\u5929\u624d
p2376
aV\u7ade\u6807
p2377
aV\u4e0a\u6b21
p2378
aV\u81ea\u5982
p2379
aV\u4eca\u591c
p2380
aV\u7f51\u9875
p2381
aV\u987a\u5229
p2382
aV\u6162\u6162
p2383
aV\u6c49\u5b50
p2384
aV\u5c3e\u5df4
p2385
aV\u6c49\u5b57
p2386
aV\u95ee\u9898
p2387
aV\u5b8c\u6574
p2388
aV\u597d\u70e6
p2389
aV\u8fd8\u6709
p2390
aV\u9a6c\u4e91
p2391
aV\u6d3b\u5728
p2392
aV\u547c\u5438
p2393
aV\u4e2d\u79cb\u8282
p2394
aV\u5927\u9053
p2395
aV\u6d66\u53e3
p2396
aV\u5e1d\u90fd
p2397
aV\u4e07\u8fbe
p2398
aV\u533b\u751f
p2399
aV\u53d8\u6001
p2400
aV\u5dee\u70b9
p2401
aV\u4e00\u58f0
p2402
aV\u660e\u5a9a
p2403
aV\u9762\u5b50
p2404
aV\u4eca\u5929
p2405
aV\u597d\u50cf
p2406
aV\u65f6\u901f
p2407
aV\u662f\u56e0\u4e3a
p2408
aV\u91d1\u5c1a
p2409
aV\u4e0b\u6765
p2410
aV\u964c\u751f\u4eba
p2411
aV\u7167\u987e
p2412
aV\u8349\u8393
p2413
aV\u5ba3\u4f20
p2414
aV\u5929\u5929
p2415
aV\u65e9\u6668
p2416
aV\u53ea\u662f
p2417
aV\u6211\u8be5
p2418
aV\u6d41\u6cea
p2419
aV\u7ecf\u5178
p2420
aV\u5de5\u5177
p2421
aV\u90a3\u6837
p2422
aV\u5496\u5561
p2423
aV\u4e00\u591c
p2424
aV\u5c11\u5e74
p2425
aV\u8bb0\u5f55\u672c
p2426
aV\u8fd9\u5468
p2427
aV\u5b58\u5728
p2428
aV\u4e00\u5927
p2429
aV\u5f00\u4e2a
p2430
aV\u4e00\u5929
p2431
aV\u94f6\u884c
p2432
aVID
p2433
aV\u8fc7\u671f
p2434
aV\u5c0f\u725b
p2435
aV\u6691\u5047
p2436
aV\u65b0\u6625
p2437
aV\u6b27\u6d32\u676f
p2438
aV\u53d1\u660e
p2439
aV\u6012\u9a82
p2440
aV\u653e\u677e
p2441
aV\u5927\u9152\u5e97
p2442
aV\u9547\u6c5f
p2443
aV\u8fd9\u7403
p2444
aV\u8fce\u6765
p2445
aVXX
p2446
aV\u6052\u5927
p2447
aV\u90ae\u7bb1
p2448
aV\u6574\u7406
p2449
aV\u5373\u4f7f
p2450
aV\u597d\u8fd0
p2451
aV\u4e0d\u5403
p2452
aV\u542f\u52a8
p2453
aV\u54c8\u54c8
p2454
aV\u4eba\u548c\u4e8b
p2455
aV\u8bb8\u4e45
p2456
aV\u5f88\u5feb
p2457
aV\u5305\u5bb9
p2458
aV\u670b\u53cb\u5708
p2459
aV\u8ba8\u538c
p2460
aV\u538b\u529b
p2461
aV\u8d77\u98de
p2462
aV\u6f14\u5531\u4f1a
p2463
aV\u9a6c\u5230\u6210\u529f
p2464
aV\u5929\u5802
p2465
aV\u55d3\u5b50
p2466
aV\u664b\u7ea7
p2467
aV\u653b\u7565
p2468
aV\u5c55\u793a
p2469
aV\u51e0\u4e2a
p2470
aV888
p2471
aV\u715e\u7b14
p2472
aV\u5143\u65e6
p2473
aV\u6ca1\u5230
p2474
aV\u9633\u5149
p2475
aV\u4e00\u9996
p2476
aV\u544a\u8bc9
p2477
aV\u5982\u679c
p2478
aV\u9632\u5b88
p2479
aV\u5305\u5b50
p2480
aV\u8138\u4e0a
p2481
aV\u7fbd\u7ed2\u670d
p2482
aV\u4eb2\u7231
p2483
aV\u5341\u5927
p2484
aV\u5341\u5929
p2485
aV\u56f0\u6b7b
p2486
aV\u667a\u5546
p2487
aV\u5b66\u5f1f
p2488
aV\u5347\u7ea7
p2489
aV\u53d6\u6d88
p2490
aV\u6709\u4e2a
p2491
aV\u9875\u5ca9
p2492
aV\u8fdb\u5165
p2493
aV\u4f1f\u5927
p2494
aV\u5e08\u5085
p2495
aV\u8bfb\u4e66\u4f1a
p2496
aV\u4e00\u4e2a\u6708
p2497
aV\u56de\u53bb
p2498
aV\u8d26\u6237
p2499
aV\u8def\u8fc7
p2500
aV\u8fc7\u5c71\u8f66
p2501
aV\u4e0d\u662f
p2502
aV\u4e60\u60ef
p2503
aV\u4e00\u79cd
p2504
aV\u5ffd\u7565
p2505
aV\u7b97\u6cd5
p2506
aV\u5faa\u73af
p2507
aV70
p2508
aV\u8f66\u5b50
p2509
aV\u5bfc\u6f14
p2510
aVGoogle
p2511
aV\u751f\u6b7b
p2512
aV\u4e00\u4e2a\u591a
p2513
aV\u91ca\u7136
p2514
aV\u54ea\u4f4d
p2515
aV\u51e0\u4e4e
p2516
aV\u4e07\u4eba
p2517
aVkm
p2518
aV\u6536\u85cf
p2519
aV\u8010\u5fc3
p2520
aV\u5e74\u85aa
p2521
aV\u8d77\u4e0d\u6765
p2522
aV\u53d1\u77ed\u4fe1
p2523
aV\u5934\u6761
p2524
aV\u5c0f\u5b66\u751f
p2525
aV\u65b0\u5b66\u671f
p2526
aV\u611f\u609f
p2527
aV\u4e3a\u4ec0\u4e48
p2528
aV\u8bf4\u8d70\u5c31\u8d70
p2529
aV\u6c14\u573a
p2530
aV\u81ea\u5f3a
p2531
aV\u4e8e\u662f
p2532
aV\u771f\u5feb
p2533
aV\u6559\u7ec3
p2534
aV\u4e07\u4e00
p2535
aV\u7948\u7977
p2536
aV\u9886\u5148
p2537
aV\u76ee\u6d4b
p2538
aV\u5168\u662f
p2539
aV\u5e78\u597d
p2540
aV\u6237\u53e3
p2541
aV\u4eba\u5bb6
p2542
aVipad
p2543
aV\u955c\u5934
p2544
aV\u672c\u79d1\u751f
p2545
aV\u5f53\u521d
p2546
aV\u5de5\u7a0b\u5e08
p2547
aV\u7edd\u4e0d
p2548
aV\u6821\u533b\u9662
p2549
aV\u8f6c\u8f6c
p2550
aV\u516c\u796d
p2551
aV\u6c47\u603b
p2552
aV\u6c61\u67d3
p2553
aVPM2
p2554
aV\u8fc7\u5ba2
p2555
aV\u9605\u8bfb
p2556
aV\u4e00\u6b3e
p2557
aV520
p2558
aV\u5b55\u5987
p2559
aV\u77e5\u9053
p2560
aV\u5e2e\u52a9
p2561
aV\u9b45\u65cf
p2562
aV\u540c\u4e00\u4e2a
p2563
aV\u5065\u8eab
p2564
aV\u5927\u56fe
p2565
aV\u4f55\u65f6
p2566
aV\u6c6a\u5cf0
p2567
aVBI
p2568
aV\u5988\u86cb
p2569
aV\u786e\u5b9a
p2570
aV\u6e38\u6cf3\u9986
p2571
aV\u786e\u5b9e
p2572
aV\u95e8\u53e3
p2573
aV\u611f\u60c5
p2574
aV\u5927\u96ea
p2575
aV\u8d44\u6e90
p2576
aV\u5927\u96e8
p2577
aV\u5317\u4eac\u7ad9
p2578
aV\u5df2\u7136
p2579
aV\u793c\u5802
p2580
aV\u53c2\u52a0
p2581
aV\u809a\u5b50\u75bc
p2582
aV\u6f14\u5458
p2583
aV\u91d1\u878d
p2584
aV\u8fd0\u8425
p2585
aV\u6750\u6599
p2586
aV\u611f\u60f3
p2587
aV\u7f51\u7edc
p2588
aV\u5e74\u4ee3
p2589
aV\u53d6\u7968
p2590
aV\u65b0\u52a0\u5761
p2591
aV\u535a\u58eb\u751f
p2592
aV\u641c\u7d22
p2593
aV\u5e26\u7ed9
p2594
aV\u4e00\u5e74
p2595
aV\u5929\u7a7a
p2596
aV\u65f6\u5c1a
p2597
aV\u8b66\u62a5
p2598
aV\u6e05\u534e
p2599
aV\u96c5\u5b89
p2600
aV\u6c14\u8d28
p2601
aV\u6ca1\u7528
p2602
aV\u8868\u73b0
p2603
aV\u751f\u6c14
p2604
aV315
p2605
aV\u90a3\u8fb9
p2606
aV\u4fdd\u6696
p2607
aV\u6ca1\u7535
p2608
aV\u7ecf\u5e38
p2609
aV\u606d\u559c
p2610
aV2.1
p2611
aV\u786c\u76d8
p2612
aV\u524d\u4e00\u5929
p2613
aV\u9009\u9879
p2614
aV\u8111\u5b50
p2615
aV\u4e16\u754c\u672b\u65e5
p2616
aV\u5fd0\u5fd1
p2617
aV\u989c\u8272
p2618
aV\u597d\u65e5\u5b50
p2619
aV\u4e4b\u5185
p2620
aV\u82cf\u5dde
p2621
aV\u5357\u8def
p2622
aV\u8fd9\u53e5
p2623
aV\u6b4c\u624b
p2624
aV\u706b\u8f66\u7ad9
p2625
aV\u771f\u662f
p2626
aV\u5b66\u5802
p2627
aV\u6587\u6863
p2628
aV\u6731\u4ee4
p2629
aV\u9910\u5385
p2630
aV\u6ca1\u9519
p2631
aV\u8212\u670d
p2632
aV\u51fa\u53d1
p2633
aV\u8bfb\u5b8c
p2634
aV\u8fc7\u4e2a
p2635
aV\u7559\u4e0b
p2636
aV\u67d0\u4eba
p2637
aV\u597d\u56f0
p2638
aV\u5c31\u7b97
p2639
aV\u96f7\u9706
p2640
aV\u6551\u52a9\u8005
p2641
aV\u8270\u8f9b
p2642
aV\u6f14\u8bb2
p2643
aV\u4e8b\u662f
p2644
aV\u62c5\u5fc3
p2645
aV\u7ec8\u4e8e
p2646
aV\u9053\u7406
p2647
aVkindle
p2648
aV\u51fa\u73b0
p2649
aV\u60c5\u4eba\u8282
p2650
aV\u771f\u8ba9\u4eba
p2651
aV\u79c1\u4fe1
p2652
aV\u505c\u4e0d\u4e0b\u6765
p2653
aV\u6cbb\u7597
p2654
aV\u5e78\u798f
p2655
aV\u7801\u519c
p2656
aV\u9633\u9633
p2657
aV\u5730\u94c1\u7ad9
p2658
aV\u6012\u8d5e
p2659
aV\u4e0a\u6d77
p2660
aV\u5947\u8ff9
p2661
aV\u7206\u70b8
p2662
aV\u8d56\u5e8a
p2663
aV\u516d\u70b9\u534a
p2664
aV\u5341\u5e74
p2665
aV\u611f\u6069
p2666
aV\u8001\u7238
p2667
aV\u6de1\u5b9a
p2668
aV\u90a3\u4e2a
p2669
aV\u6cd5\u56fd
p2670
aV\u665a\u5b89
p2671
aV\u7d2f\u89c9
p2672
aV\u5b66\u59b9
p2673
aV\u89c4\u5219
p2674
aV\u70ed\u7231
p2675
aV\u4fe1\u606f
p2676
aV\u73a9\u73a9
p2677
aV\u6545\u969c
p2678
aV\u96c6\u4f53
p2679
aVTMD
p2680
aV\u72b6\u51b5
p2681
aV\u4e0d\u60f3
p2682
aV\u4e0d\u80fd
p2683
aV\u642c\u5bb6
p2684
aV\u4e00\u5f20
p2685
aV\u4e2d\u5b66
p2686
aVjava
p2687
aV\u5bf9\u4e8e
p2688
aV\u56de\u5230
p2689
aV\u6caa\u84c9
p2690
aV\u819d\u76d6
p2691
aV\u5230\u8fbe
p2692
aV\u8d77\u5e8a
p2693
aV\u82cf\u5b81
p2694
aV\u8461\u8404\u7259
p2695
aV\u751f\u6daf
p2696
aV\u9065\u8fdc
p2697
aV\u6d77\u5e95
p2698
aV\u9762\u524d
p2699
aV\u5728\u4e4e
p2700
aV\u846b\u82a6\u5a03
p2701
aVNJU
p2702
aV\u6df1\u5ea6
p2703
aV\u89d2\u843d
p2704
aV\u53e3\u6c34
p2705
aV\u592a\u5e73
p2706
aV\u7325\u7410
p2707
aV\u597d\u770b
p2708
aV\u63d0\u524d
p2709
aV\u4e13\u573a
p2710
aV\u9e21\u6c64
p2711
aV\u5408\u4f5c
p2712
aV\u5a1c\u5a1c
p2713
aV\u7f18\u5206
p2714
aV\u5267\u573a
p2715
aV\u516c\u53f8
p2716
aV\u8d23\u4efb
p2717
aV\u53d7\u4f24
p2718
aV\u673a\u667a
p2719
aV\u60c5\u8282
p2720
aV\u5fcd\u4f4f
p2721
aV\u4e0d\u5f97\u4e0d
p2722
aV\u4e66\u5355
p2723
aV\u5b66\u59d0
p2724
aV\u6709\u610f\u601d
p2725
aV\u90a3\u4e48
p2726
aV\u603b\u7b97
p2727
aV\u600e\u4e48\u56de\u4e8b
p2728
aV\u6b8b\u7c89
p2729
aV\u5403\u8d27
p2730
aV\u4e94\u9053\u53e3
p2731
aV\u90a3\u91cc
p2732
aV33
p2733
aV\u5f71\u9662
p2734
aV\u5f88\u4e45\u6ca1
p2735
aV\u534a\u4e2a
p2736
aV\u65e0\u6cd5
p2737
aV\u6709\u610f\u8005
p2738
aV\u795d\u613f
p2739
aV\u5f88\u591a
p2740
aV\u8d28\u7591
p2741
aV\u719f\u6089
p2742
aV\u67f4\u9759
p2743
aV\u5e72\u4ec0\u4e48
p2744
aV\u5c0f\u54e5
p2745
aV\u62fc\u547d
p2746
aV\u60ca\u6050
p2747
aV\u65f6\u5dee
p2748
aV\u63a5\u7740
p2749
aV\u56db\u516d\u7ea7
p2750
aV\u7701\u9053
p2751
aV\u6000\u7591
p2752
aV35
p2753
aV\u771f\u6709
p2754
aV\u6536\u83b7
p2755
aV\u5927\u793c\u5802
p2756
aV\u5fb7\u56fd
p2757
aV\u8fc7\u7a0b
p2758
aV\u679c\u771f
p2759
aV\u5973\u513f
p2760
aV\u4e00\u7fa4
p2761
aV\u67d0\u67d0
p2762
aV\u4eca\u5e74
p2763
aV\u53d4\u53d4
p2764
aV\u522b\u7684
p2765
aV\u8fc7\u6765
p2766
aV\u90a3\u4e9b
p2767
aV\u79d1\u6280
p2768
aV\u6781\u81f4
p2769
aV\u5b8c\u6210
p2770
aV\u5c81\u6708
p2771
aV\u4fee\u70bc
p2772
aV\u5f88\u5927
p2773
aV\u53ea\u80fd
p2774
aV\u6b63\u5e38
p2775
aV\u5b9e\u529b
p2776
aV\u65e0\u9521
p2777
aV\u7b2c\u4e09\u6b21
p2778
aV\u540e\u9762
p2779
aV\u5b89\u6392
p2780
aV\u5b66\u597d
p2781
aV\u4e2d\u5173\u6751
p2782
aV\u53ea\u60f3
p2783
aV\u4f3c\u4e4e
p2784
aV\u6ee1\u8db3
p2785
aV\u4e00\u5e2e
p2786
aV\u97e9\u7ea2
p2787
aV\u597d\u5927
p2788
aV\u661f\u9645
p2789
aV\u672c\u6765
p2790
aV\u7b2c\u4e00\u5929
p2791
aV\u7740\u6025
p2792
aV\u51e1\u4e8b
p2793
aV\u6d41\u6d6a
p2794
aV\u5c45\u7136
p2795
aV\u64cd\u86cb
p2796
aV\u8d44\u8baf
p2797
aV\u4e0d\u6015
p2798
aV\u5269\u4e0b
p2799
aV\u5728\u4e8e
p2800
aV\u611f\u6168
p2801
aV\u4e09\u6b21
p2802
aV\u4e24\u573a
p2803
aV\u6821\u62db
p2804
aV\u722c\u8d77\u6765
p2805
aV\u5b66\u4f1a
p2806
aV\u4e00\u4e0d\u5c0f\u5fc3
p2807
aV\u89c6\u89d2
p2808
aV\u6253\u8138
p2809
aV\u793e\u4f1a\u5b66
p2810
aV\u8fd9\u4e48
p2811
aV\u623f\u95f4
p2812
aV\u6bcf\u5929\u665a\u4e0a
p2813
aV\u674e\u5065
p2814
aV\u6b32\u671b
p2815
aV\u70e7\u70e4
p2816
aV\u7edd\u6740
p2817
aV\u89c6\u89c9
p2818
aV\u4e0d\u597d\u610f\u601d
p2819
aV\u7ea7\u522b
p2820
aV\u6211\u4eec
p2821
aV\u770b\u597d
p2822
aV\u9677\u5165
p2823
aV\u4e24\u4f4d
p2824
aV\u601d\u5ff5
p2825
aV\u8d77\u6765
p2826
aV\u8eab\u4f53
p2827
aV\u6709\u65f6
p2828
aV\u963f\u91cc
p2829
aV\u61d2\u89c9
p2830
aV\u597d\u5403
p2831
aV\u7537\u7bee
p2832
aV\u6293\u72c2
p2833
aV\u4e70\u7968
p2834
aV\u8fc7\u8282\u8d39
p2835
aV\u4e00\u5c42
p2836
aV...
p2837
aV\u6d17\u5b8c
p2838
aV\u7206\u68da
p2839
aV\u9ad8\u94c1
p2840
aV\u7edd\u671b
p2841
aV\u8fd9\u91cc
p2842
aV\u5927\u54e5
p2843
aV\u653f\u5e9c
p2844
aV\u82f1\u96c4
p2845
aV\u625b\u4e0d\u4f4f
p2846
aV\u5927\u54ed
p2847
aV\u6e05\u9192
p2848
aV\u4e8c\u5341\u5206\u949f
p2849
aV\u5403\u4e2a
p2850
aV\u8be1\u5f02
p2851
aVOK
p2852
aV\u7f8a\u5e74
p2853
aV\u6709\u70b9\u50cf
p2854
aV\u82f1\u56fd
p2855
aV\u7535\u89c6\u5267
p2856
aV\u5355\u53cd
p2857
aV\u9690\u79c1
p2858
aV\u8fd9\u513f
p2859
aV\u522b\u4eba
p2860
aV\u5e73\u6de1
p2861
aV\u6124\u6012
p2862
aV\u8bd5\u7528
p2863
aV\u6ee1\u6ee1
p2864
aV\u5c1d\u8bd5
p2865
aVgoogle
p2866
aVJava
p2867
aV\u770b\u4e0d\u61c2
p2868
aV\u706b\u9505
p2869
aV\u519c\u6751
p2870
aV\u4f53\u80b2
p2871
aV\u6d88\u8017
p2872
aV\u81ea\u62cd
p2873
aVCSDN
p2874
aV\u516c\u5bd3
p2875
aV\u7b14\u8bd5
p2876
aV\u793e\u4ea4
p2877
aV\u5de8\u5927
p2878
aV\u600e\u6837
p2879
aV\u679c\u9177
p2880
aV\u8a79\u59c6\u65af
p2881
aV\u8bfe\u4e0a
p2882
aV\u76f8\u805a
p2883
aVCoventry
p2884
aV\u6c47\u62a5
p2885
aV\u978b\u5b50
p2886
aV\u5c0f\u76c6\u53cb
p2887
aV\u963f\u6839\u5ef7
p2888
aV\u5bb6\u4f19
p2889
aV\u5929\u5929\u5411\u4e0a
p2890
aV\u4e0a\u4f20
p2891
aV\u5927\u5409
p2892
aV\u5ef6\u8fdf
p2893
aVSAEPA
p2894
aV\u65e0\u8da3
p2895
aV\u58f0\u97f3
p2896
aV300
p2897
aVbm
p2898
aV\u79bb\u7ebf
p2899
aV\u81ea\u5df1
p2900
aV\u5e72\u561b
p2901
aV\u8fdb\u7403
p2902
aV\u94b1\u5305
p2903
aV\u4f5c\u6587
p2904
aV\u5750\u5728
p2905
aV\u804c\u573a
p2906
aV\u9ad8\u5cf0
p2907
aV\u4e3b\u5e2d
p2908
aV\u63d0\u9192
p2909
aV\u4e00\u79d2
p2910
aV\u6d51\u8eab
p2911
aV\u6beb\u65e0
p2912
aV\u8d8a\u6765\u8d8a\u5c11
p2913
aV\u52e4\u594b
p2914
aV\u822a\u7a7a
p2915
aV\u9e2d\u68a8
p2916
aV\u7a7a\u8c03
p2917
aV\u4e03\u70b9
p2918
aV\u70b9\u591a
p2919
aV\u5185\u5bb9
p2920
aV\u6d88\u606f
p2921
aV\u9f13\u638c
p2922
aV\u7a7a\u6c14
p2923
aV\u4e0a\u8f66
p2924
aV\u821c\u5929
p2925
aV\u6bcf\u5f53
p2926
aV\u5dc5\u5cf0
p2927
aV\u6ca1\u5f97
p2928
aV\u5b66\u5230
p2929
aV\u571f\u8c6a
p2930
aV\u5e08\u5f1f
p2931
aV\u5047\u671f
p2932
aV\u800c\u662f
p2933
aV\u81f3\u5c11
p2934
aV\u4eba\u7c7b
p2935
aV\u6e05\u534e\u56ed
p2936
aV\u5c4f\u853d
p2937
aV\u4e2d\u5956
p2938
aV\u5bb6\u4eba
p2939
aV\u4e09\u89c2
p2940
aV\u7b49\u5f85
p2941
aV\u597d\u7528
p2942
aV\u706b\u8f66\u7968
p2943
aV\u6c47\u6dfb\u5bcc
p2944
aVA\u80a1
p2945
aV\u7efc\u5408\u75c7
p2946
aV\u793e\u4f1a
p2947
aV..
p2948
aV\u89c1\u5230
p2949
aV\u521b\u4e1a
p2950
aV\u5b89\u6170
p2951
aV\u98ce\u666f
p2952
aV\u6301\u7eed
p2953
aV\u60c5\u7eea
p2954
aV\u820c\u5c16
p2955
aV\u70e6\u8e81
p2956
aV\u5171\u9e23
p2957
aV\u4e00\u95e8
p2958
aV\u597d\u51e0\u4e2a
p2959
aV\u7f9e\u55d2
p2960
aV\u5f98\u5f8a
p2961
aV\u592a\u8fc7
p2962
aV\u4e24\u4e2a
p2963
aV\u7ec4\u5408
p2964
aV\u987f\u65f6
p2965
aV\u826f\u5fc3
p2966
aV\u7528\u6237
p2967
aV\u8d85\u5e02
p2968
aV\u4e45\u8fdd
p2969
aV\u62bd\u98ce
p2970
aV\u5b9a\u671f
p2971
aV\u6613\u8d2d
p2972
aV\u6b8b\u9177
p2973
aV\u6218\u6597
p2974
aV\u4e89\u53d6
p2975
aVGDP
p2976
aV\u52a8\u529b
p2977
aV\u738b\u529b\u5b8f
p2978
aV\u61d2\u5f97
p2979
aV\u4efb\u4f55
p2980
aV\u80cc\u540e
p2981
aV\u592b\u5b50\u5e99
p2982
aV\u56db\u70b9
p2983
aV\u4e5f\u8bb8
p2984
aV....
p2985
aV\u7231\u5fc3
p2986
aV\u4e4b\u524d
p2987
aV\u4ed8\u51fa
p2988
aV\u5931\u7720
p2989
aV\u79bb\u5f00
p2990
aV\u79cd\u5b50
p2991
aV\u86cb\u7cd5
p2992
aV\u62d6\u5ef6
p2993
aVOyoung
p2994
aV\u8d35\u6821
p2995
aV\u5931\u53bb
p2996
aV\u5730\u9707
p2997
aV\u9700\u6c42
p2998
aV\u6982\u7387
p2999
aV\u754c\u9762
p3000
aV\u5e7f\u573a
p3001
aV\u73a9\u513f
p3002
aV\u5c0f\u96e8
p3003
aV\u6559\u5e08\u8282
p3004
aV\u6b7b\u673a
p3005
aV\u5168\u65b0
p3006
aV\u4e0d\u80fd\u4e0d\u8981
p3007
aV\u8fd9\u4e0b
p3008
aV\u4e2d\u79cb
p3009
aV\u84dd\u9cb8
p3010
aV\u6210\u5c31\u611f
p3011
aV\u52a8\u7269
p3012
aV\u8bf4\u5b9e\u8bdd
p3013
aV\u91d1\u9675
p3014
aV\u803d\u8bef
p3015
aV\u6350\u7269
p3016
aV\u665a\u9910
p3017
aV\u6c99\u7530\u533a
p3018
aV\u5168\u4e16\u754c
p3019
aV\u957f\u5fae\u535a
p3020
aV\u6821\u53cb\u4f1a
p3021
aV\u4e8b\u6545
p3022
aV\u597d\u559d
p3023
aVTT
p3024
aV\u6307\u5bfc
p3025
aV\u7231\u56fd
p3026
aV\u53cd\u9988
p3027
aV\u4e8c\u6708
p3028
aV\u4ea4\u6d41
p3029
aV\u9707\u611f
p3030
aV\u5c34\u5c2c
p3031
aVTM
p3032
aV\u7d2f\u6b7b
p3033
aV\u70b8\u9e21
p3034
aV\u542c\u5230
p3035
aV\u8bb2\u8bdd
p3036
aV\u6652\u592a\u9633
p3037
aV\u7403\u8ff7
p3038
aV\u7f8e\u9662
p3039
aVTA
p3040
aV\u5bb6\u4e61
p3041
aV\u957f\u767d
p3042
aV\u90c1\u95f7
p3043
aV\u77eb\u60c5
p3044
aV\u5bf9\u8c61
p3045
aV\u4e2d\u534e
p3046
aVT2
p3047
aV\u8f85\u8def
p3048
aV\u652f\u6301
p3049
aVT1
p3050
aV\u55f7\u55f7
p3051
aV\u5931\u843d
p3052
aV\u627e\u4e2a
p3053
aV\u5bbd\u5e26
p3054
aV\u4e0d\u7b97
p3055
aV\u6bcf\u5e74
p3056
aV\u884c\u4e3a
p3057
aV\u6709\u65f6\u5019
p3058
aV\u7f3a\u4e4f
p3059
aV\u5b66\u5b50
p3060
aV\u665a\u996d
p3061
aV\u62dc\u5e74
p3062
aV\u6709\u6ca1\u6709
p3063
aV\u54b3\u55fd
p3064
aV\u8e22\u7403
p3065
aV\u8bd5\u8bd5
p3066
aV\u6311\u6218
p3067
aV\u8d85\u7ea7
p3068
aV\u5357\u4eac
p3069
aV\u6d17\u8863\u670d
p3070
aV\u60f3\u5ff5
p3071
aV\u56fd\u9645
p3072
aV2000
p3073
aV\u4e00\u5207\u90fd\u662f
p3074
aV\u9ad8\u5174
p3075
aV\u5b8c\u7f8e
p3076
aV\u8f93\u7403
p3077
aV2008
p3078
aV\u8bc6\u522b
p3079
aV\u9006\u8f6c
p3080
aV\u679c\u7136
p3081
aV\u6211\u60f3
p3082
aV\u4e00\u5206
p3083
aV\u4e00\u5207
p3084
aV\u5220\u9664
p3085
aV\u53bb\u5e74
p3086
aV\u4e71\u4e03\u516b\u7cdf
p3087
aV\u62a2\u7968
p3088
aV\u53f8\u6cd5\u8003\u8bd5
p3089
aV\u65e9\u8d77
p3090
aV\u7a33\u5b9a\u6027
p3091
aV\u4eca\u5929\u4e0b\u5348
p3092
aV\u7a0b\u5e8f\u5458
p3093
aV\u53d1\u8d22
p3094
aV\u4efb\u6027
p3095
aV\u53d1\u8d27
p3096
aV\u624b\u5934
p3097
aV\u54a8\u8be2
p3098
aV\u5ffd\u7136
p3099
aV\u6c42\u5a5a
p3100
aV\u770b\u5f97
p3101
aV\u770b\u7740
p3102
aV\u4e91\u5357
p3103
aV\u6240\u4ee5
p3104
aV\u505a\u68a6
p3105
aV\u6765\u81ea
p3106
aV\u7535\u5f71
p3107
aV\u706b\u7bad
p3108
aV\u5c0f\u5c0f
p3109
aV\u4e00\u5230
p3110
aV\u8d8a\u662f
p3111
aV\u8981\u4e48
p3112
aV\u4e00\u523b
p3113
aV\u56e2\u961f
p3114
aV\u5f00\u653e
p3115
aV\u5e0c\u671b
p3116
aV\u9ed1\u7ebf
p3117
aV\u4e3a\u4f55
p3118
aV\u68a6\u5230
p3119
aV\u4e1c\u5317
p3120
aV\u4fdd\u4f51
p3121
aV\u4e00\u7247
p3122
aV\u9a82\u4eba
p3123
aV\u56de\u5f52
p3124
aV\u5bb3\u6015
p3125
aV\u5f53\u5e74
p3126
aV\u756a\u8304
p3127
aV\u8dd1\u6b65
p3128
aV\u7948\u798f
p3129
aV\u5237\u65b0
p3130
aV\u76f8\u4eb2
p3131
aV\u6253\u8f66
p3132
aV\u540c\u5b66\u4f1a
p3133
aV\u6536\u5230
p3134
aV\u7ea2\u706f\u7b3c
p3135
aV\u9ad8\u7aef
p3136
aV\u6001\u5ea6
p3137
aV\u770b\u770b
p3138
aV\u5fae\u4fe1
p3139
aV\u9b54\u5492
p3140
aV\u65b0\u6c14\u8c61
p3141
aV\u5e74\u524d
p3142
aV\u624b\u5957
p3143
aV\u554a\u554a\u554a
p3144
aV\u65b0\u6d6a
p3145
aV\u65f6\u5019
p3146
aV\u8bfe\u5802
p3147
aV\u9875\u9762
p3148
aV\u661f\u671f
p3149
aV\u5403\u60ca
p3150
aV\u601d\u8003
p3151
aV\u8089\u5939\u998d
p3152
aV\u996e\u98df
p3153
aV\u575a\u6301
p3154
aV\u8bbf\u95ee
p3155
aV\u4e0d\u8d77
p3156
aV\u4eab\u53d7
p3157
aV\u5927\u6c14
p3158
aVzz
p3159
aV\u6bcd\u4eb2
p3160
aV\u957f\u5927
p3161
aV\u4e00\u529b
p3162
aV\u8d25\u5bb6
p3163
aV\u514d\u8d39
p3164
aV3D
p3165
aV\u56fd\u5916
p3166
aV\u6295\u7ed9
p3167
aV\u8003\u9a8c
p3168
aV\u5730\u513f
p3169
aV\u623f\u5b50
p3170
aV\u7ffb\u8bd1\u6210
p3171
aV\u4e2d\u56fd
p3172
aV\u6574\u4e2a
p3173
aV\u64cd\u573a
p3174
aV\u611f\u8c22
p3175
aV\u5565\u610f\u601d
p3176
aV\u5c0f\u59d0
p3177
aV\u60f3\u4e0d\u8d77\u6765
p3178
aV\u4e07\u4e8b\u5982\u610f
p3179
aVlee
p3180
aV\u4e09\u661f
p3181
aV\u753b\u753b
p3182
aV\u8001\u5e08
p3183
aV\u5927\u5e45
p3184
aVCCTV
p3185
aV\u4f60\u4eec
p3186
aV\u7ad9\u5e86
p3187
aV\u9ebb\u8fa3
p3188
aV\u5047\u88c5
p3189
aV\u5fe7\u4f24
p3190
aV\u5230\u624b
p3191
aV\u56de\u5fc6
p3192
aV\u7535\u95ea\u96f7\u9e23
p3193
aV\u8bfe\u9898
p3194
aV\u5783\u573e\u6876
p3195
aV39
p3196
aV38
p3197
aV\u6211\u6015
p3198
aV\u76ae\u76ae
p3199
aV\u5fae\u8f6f
p3200
aV\u5b66\u5458
p3201
aV32
p3202
aV31
p3203
aV30
p3204
aV36
p3205
aV\u591a\u8c22
p3206
aV\u6d77\u5357
p3207
aV\u91cd\u88c5
p3208
aV\u4e00\u4f1a\u513f
p3209
aV\u4e2d\u5956\u7387
p3210
aV\u6109\u60a6
p3211
aV\u6797\u5fd7\u70ab
p3212
aV\u5fc3\u7075
p3213
aV\u56ed\u5b50
p3214
aV\u5206\u6790
p3215
aV\u5927\u5bb6
p3216
aV\u590d\u65e6
p3217
aV\u592a\u597d
p3218
aV\u7533\u8bf7
p3219
aVapp
p3220
aV\u76f8\u4fe1
p3221
aV\u8981\u6c42
p3222
aV\u6253\u4e2a
p3223
aV\u5929\u732b
p3224
aV\u738b\u83f2
p3225
aV\u5fc3\u810f
p3226
aV\u62ef\u6551
p3227
aVFM
p3228
aV\u97e9\u5267
p3229
aV\u4f53\u4f1a
p3230
aV\u53cd\u7701
p3231
aV\u5e74\u8f7b
p3232
aV\u6570\u636e\u6316\u6398
p3233
aV\u7b97\u662f
p3234
aV\u65f6\u5149
p3235
aV\u840c\u840c
p3236
aV\u5730\u70b9
p3237
aV\u8fdc\u79bb
p3238
aV\u80fd\u529b
p3239
aV\u7167\u7247
p3240
aV\u88c5\u903c
p3241
aV\u539f\u5219
p3242
aV\u9ad8\u901f
p3243
aV\u5e7f\u544a
p3244
aV\u5f97\u5230
p3245
aV\u540c\u5b66
p3246
aV\u7834\u4ea7
p3247
aV\u7b2c\u4e8c\u6b21
p3248
aV\u7d2f\u6210
p3249
aV\u7fbd\u6cc9
p3250
aV\u5f20\u6c5f
p3251
aV\u79c1\u623f
p3252
aV\u95ee\u5377
p3253
aV\u5c3d\u5934
p3254
aV\u60a0\u60a0
p3255
aV\u5e74\u4f1a
p3256
aV\u5176\u4ed6
p3257
aV\u5fc3\u91cc
p3258
aV\u4e00\u534a
p3259
aV\u9002\u5408
p3260
aV\u5b87\u5b99
p3261
aV\u7537\u5b69
p3262
aV\u4fee\u8eab
p3263
aV\u4e4b\u7c7b
p3264
aV\u53f7\u697c
p3265
aV\u5e08\u5144
p3266
aVhigh
p3267
aV\u4f1a\u8bae
p3268
aV\u9984\u9968
p3269
aV\u8fd9\u5e2e
p3270
aV\u8bb2\u8bfe
p3271
aV\u7384\u6b66\u6e56
p3272
aV\u7535\u5b50
p3273
aV\u6ee1\u610f
p3274
aV\u65cb\u5f8b
p3275
aV\u6c5f\u5357
p3276
aV\u8bed\u97f3
p3277
aV\u4f5c\u54c1\u5c55
p3278
aV\u8f6f\u4ef6
p3279
aV\u54c8\u54c8\u54c8
p3280
aV\u4e2d\u573a
p3281
aV\u661f\u661f
p3282
aV\u5b66\u751f\u8bc1
p3283
aV\u56de\u9f99\u89c2
p3284
aV\u80af\u5fb7\u57fa
p3285
aV\u9999\u9505
p3286
aVYY
p3287
aV\u667a\u9f7f
p3288
aV\u81ea\u52a8
p3289
aV\u81ea\u52a9
p3290
aV\u8001\u7f57
p3291
aV\u8d35\u7cfb
p3292
aV\u65e0\u803b
p3293
aV\u8c8c\u4f3c
p3294
aV\u4e1c\u65b9
p3295
aV\u805a\u9910
p3296
aV\u591c\u91cc
p3297
aV\u4ee5\u540e
p3298
aV\u7761\u7740
p3299
aV\u574f\u4e8b
p3300
aV\u8ba1\u7b97\u673a
p3301
aV\u8857\u821e
p3302
aV\u7f16\u5267
p3303
aV\u8fc7\u763e
p3304
aV\u6df1\u523b
p3305
aV\u505c\u6c34
p3306
aV\u5b66\u751f
p3307
aV\u504f\u6267
p3308
aV\u8c46\u74e3
p3309
aV\u4e94\u6708
p3310
aV\u4e00\u4e2a\u534a
p3311
aV\u4e00\u74f6
p3312
aV\u7687\u9a6c
p3313
aV\u5409\u7965
p3314
aV\u773c\u770b
p3315
aV\u5927\u591a\u6570
p3316
aV\u96f6\u98df
p3317
aV\u7761\u7720
p3318
aVde
p3319
aV\u5979\u4eec
p3320
aV\u7a79\u9876
p3321
aV\u4e00\u8f88\u5b50
p3322
aV\u4e13\u5bb6
p3323
aV\u5b66\u957f
p3324
aV\u5927\u5b66
p3325
aV\u51fa\u7ebf
p3326
aV\u515a\u5458
p3327
aV\u820d\u5f97
p3328
aV\u9047\u89c1
p3329
aV\u73cd\u60dc
p3330
aV\u9a7e\u6821
p3331
aV\u90a3\u82f1
p3332
aV\u676d\u5dde
p3333
aV\u56db\u5929
p3334
aV\u5306\u5306
p3335
aV\u50f5\u5c38
p3336
aV\u9752\u5965\u4f1a
p3337
aV\u4e00\u53e3
p3338
aV\u5bf9\u624b
p3339
aV\u4f20\u64ad\u5b66\u9662
p3340
aV\u4e00\u53e5
p3341
aV\u65e0\u804a
p3342
aV\u6821\u5e86
p3343
aV\u9886\u5bfc
p3344
aV\u665a\u7761
p3345
aV\u5bdd\u5ba4
p3346
aV\u4e00\u53f0
p3347
aV\u5fc3\u9178
p3348
aV\u4e00\u53f7
p3349
aV\u66b4\u96e8
p3350
aV\u7406\u8bba
p3351
aV\u771f\u6b63
p3352
aV\u7279\u522b
p3353
aV\u5149\u68cd\u8282
p3354
aV\u4e8c\u53f7\u7ebf
p3355
aV\u5c0f\u5b69
p3356
aV\u5c0f\u5b66
p3357
aV\u674e\u8001\u5e08
p3358
aV\u54ea\u6837
p3359
aV\u540c\u5b66\u805a\u4f1a
p3360
aV\u56db\u5ddd
p3361
aV\u53ef\u601c
p3362
aV\u5174\u594b
p3363
aV\u652f\u4ed8
p3364
aV\u53ef\u6015
p3365
aV\u767d\u5929
p3366
aV\u5065\u5eb7
p3367
aV\u88d9\u5b50
p3368
aV\u623f\u79df
p3369
aV\u503c\u5f97
p3370
aV\u4e0d\u8fc7
p3371
aV\u5f88\u96be
p3372
aV\u611f\u4eba
p3373
aV\u53ea\u4f1a
p3374
aV\u91c7\u8bbf
p3375
aV\u5730\u53bb
p3376
aV\u60f3\u5230
p3377
aV\u5e08\u7236
p3378
aV\u5f39\u7434
p3379
aVlt
p3380
aV\u653e\u4e0b
p3381
aV\u5207\u6362
p3382
aV\u66fc\u57ce
p3383
aV\u56de\u4eac
p3384
aV\u53ef\u4e50
p3385
aV\u56fd\u5b89
p3386
aV2010
p3387
aV2013
p3388
aV2012
p3389
aV\u4f11\u5047
p3390
aV\u6548\u679c
p3391
aVpython
p3392
aV\u4e0b\u4e2a
p3393
aV\u5c31\u591f
p3394
aV\u7537\u5b50
p3395
aV\u771f\u68d2
p3396
aV\u4e00\u904d
p3397
aV\u59b9\u7eb8
p3398
aV\u8282\u65e5\u5feb\u4e50
p3399
aV\u7cfb\u5217\u8bb2\u5ea7
p3400
aViPhone
p3401
aV\u76f8\u5f53
p3402
aV\u79bb\u522b
p3403
aV\u65f6\u523b
p3404
aV\u591a\u4e91
p3405
aV\u4e07\u6709
p3406
aV\u6d3b\u5f97
p3407
aV\u5acc\u5f03
p3408
aV\u771f\u4e0d\u77e5\u9053
p3409
aV\u7f57\u672c
p3410
aV\u5173\u6389
p3411
aV\u66f4\u65b0
p3412
aV\u5c0f\u7ec4
p3413
aV\u6700\u4f73
p3414
aV\u8bfe\u7a0b
p3415
aV\u6253\u8d4f
p3416
aV\u9080\u8bf7
p3417
aV\u591a\u4eba
p3418
aV\u4fbf\u5b9c
p3419
aV\u51cc\u4e71
p3420
aV\u5927\u98ce
p3421
aV\u80fd\u91cf
p3422
aV\u5b64\u5355
p3423
aV\u5564\u9152
p3424
aV\u4e4b\u5149
p3425
aV\u6bcd\u4eb2\u8282
p3426
aV\u51fa\u5dee
p3427
aVcry
p3428
aV\u591a\u4e48
p3429
aV\u6cea\u70b9
p3430
aV\u6ca1\u5173\u7cfb
p3431
aV\u5927\u56db
p3432
aV\u5c0f\u65f6\u5019
p3433
aV\u4f5c\u6b7b
p3434
aV\u753b\u9762
p3435
aV82
p3436
aV\u8def\u7531\u5668
p3437
aV80
p3438
aV81
p3439
aV86
p3440
aV87
p3441
aV84
p3442
aVout
p3443
aV\u8106\u5f31
p3444
aV\u56f0\u6270
p3445
aV\u516c\u77e5
p3446
aV\u5b58\u50a8
p3447
aVCEO
p3448
aV\u7b49\u5230
p3449
aV\u4e0d\u4f4f
p3450
aV\u8f6c\u81ea
p3451
aV\u7f51\u901f
p3452
aV\u600e\u53ef\u5c11
p3453
aV\u7701\u94b1
p3454
aV\u4e2d\u56fd\u961f
p3455
aV\u5c4b\u5b50
p3456
aV\u6b22\u4e50
p3457
aV\u96be\u5403
p3458
aV\u6f2b\u957f
p3459
aV\u5408\u80a5
p3460
aV\u4fe1\u7528\u5361
p3461
aV\u6216\u8005
p3462
aV\u60ec\u610f
p3463
aV\u9ad8\u5bcc\u5e05
p3464
aV\u7f62\u4e86
p3465
aV\u6240\u8c13
p3466
aV\u5b66\u9662
p3467
aV\u6700\u8fd1
p3468
aV\u60c6\u6005
p3469
aV\u82b1\u56ed\u8def
p3470
aV\u901a\u5bb5
p3471
aV\u6587\u660e
p3472
aV\u5927\u5b78
p3473
aV\u5927\u59e8\u5988
p3474
aV\u94fe\u63a5
p3475
aV\u5176\u4ed6\u4eba
p3476
aV\u601d\u7ef4
p3477
aV\u529f\u80fd
p3478
aV\u4eca\u513f
p3479
aV\u627e\u56de
p3480
aV\u4e09\u6708
p3481
aV\u524d\u884c
p3482
aV\u4e00\u90e8
p3483
aV\u5927\u9646
p3484
aVmac
p3485
aV\u53ef\u80fd
p3486
aV\u6bd4\u8d5b
p3487
aV\u8ffd\u6c42
p3488
aV\u5fd7\u613f
p3489
aV\u6885\u82b1
p3490
aVNB
p3491
aV\u4e0d\u4f1a
p3492
aV\u540e\u5929
p3493
aV\u9646\u6052
p3494
aV\u8fd9\u5c4a
p3495
aV\u4e0b\u8f66
p3496
aV\u5bf9\u4e0d\u8d77
p3497
aV\u5f7b\u5e95
p3498
aV\u8377\u6e05\u8def
p3499
aV\u602a\u4e0d\u5f97
p3500
aV\u7231\u4eba
p3501
aV\u77ed\u8896
p3502
aV\u51e0\u5e74
p3503
aV\u5355\u7eaf
p3504
aV\u53d1\u4e2a
p3505
aV\u8fd0\u52a8
p3506
aV\u4e0b\u8f7d
p3507
aV\u5403\u836f
p3508
aV\u68d2\u68d2
p3509
aV\u62d2\u7edd
p3510
aV\u6b22\u8fce
p3511
aV\u91cd\u8981
p3512
aV\u8425\u9500
p3513
aV\u597d\u591a
p3514
aV\u597d\u5904
p3515
aV\u54f2\u5b66
p3516
aV\u610f\u5fd7\u529b
p3517
aV\u6570\u5b66
p3518
aV\u9664\u5915
p3519
aV\u5947\u602a
p3520
aV\u5927\u5988
p3521
aV\u597d\u96be
p3522
aV\u770b\u5427
p3523
aV\u9152\u4e95
p3524
aV\u597d\u597d
p3525
aV\u4e3a\u5565
p3526
aV\u97f3\u4e50
p3527
aV\u6bb5\u65f6\u95f4
p3528
aV\u76ee\u6807
p3529
aV\u4e50\u8da3
p3530
aV\u73ed\u8f66
p3531
aV\u610f\u601d
p3532
aV\u817e\u8baf
p3533
aV\u53eb\u505a
p3534
aV\u672c\u547d\u5e74
p3535
aV\u534a\u51b3\u8d5b
p3536
aV\u770b\u7403
p3537
aV\u6c5f\u4e1c
p3538
aV\u4e0d\u4e86
p3539
aV\u5546\u5bb6
p3540
aV\u8eab\u4e0a
p3541
aV\u5927\u59d0
p3542
aV\u80c3\u53e3
p3543
aV\u4eba\u54c1
p3544
aVbed
p3545
aV\u592a\u591a
p3546
aV\u4e00\u53ea
p3547
aV\u597d\u5947
p3548
aV\u4e00\u5171
p3549
aV\u8bb2\u89e3
p3550
aV2015.4
p3551
aV\u54ea\u4e9b
p3552
aV1.5
p3553
aV\u843d\u53f6
p3554
aV\u5b66\u9738
p3555
aV\u671d\u9c9c
p3556
aV\u6709\u70b9\u7d2f
p3557
aV\u5927\u793c
p3558
aV\u516c\u76ca
p3559
aV\u773c\u775b
p3560
aV\u5927\u5927
p3561
aV\u4fe1\u4ef0
p3562
aV\u8001\u8001\u5b9e\u5b9e
p3563
aV\u4e0d\u4e70
p3564
aV\u5e94\u7528
p3565
aV\u5c0f\u65f6
p3566
aV\u8fc7\u540e
p3567
aV\u4fe1\u4efb
p3568
aV\u5df2\u7ecf
p3569
aV\u4e92\u52a8
p3570
aV\u843d\u5730
p3571
aV\u5173\u673a
p3572
aV\u82b1\u5fc3
p3573
aV\u526a\u5934\u53d1
p3574
aV\u6211\u7231\u4f60
p3575
aV\u505a\u597d
p3576
aV4000
p3577
aV\u5b69\u5b50
p3578
aV\u63a8\u8350
p3579
aV\u516c\u56ed
p3580
aV\u4e60\u4e60
p3581
aV\u9ad8\u5927
p3582
aV\u5a5a\u793c
p3583
aV\u653f\u7b56
p3584
aV\u53d1\u4e86
p3585
aV\u4e0d\u5c11
p3586
aV\u68a6\u91cc
p3587
aV\u4f20\u7edf
p3588
aV\u80e1\u5f66\u658c
p3589
aV02
p3590
aV\u5403\u6389
p3591
aV\u505a\u8fc7
p3592
aV\u95ed\u5173
p3593
aV\u5531\u5f97
p3594
aV\u72b6\u6001
p3595
aV\u732a\u5934
p3596
aV\u4e0b\u5b66\u671f
p3597
aV\u5927\u597d
p3598
aV\u8f7b\u677e
p3599
aV\u5f00\u5f00\u5fc3\u5fc3
p3600
aV\u5435\u9192
p3601
aV\u89c2\u4f17
p3602
aV\u5199\u4f5c
p3603
aV\u64e6\u64e6
p3604
aV\u56db\u4e2a
p3605
aV\u5171\u52c9
p3606
aV\u5e05\u6c14
p3607
aV\u601d\u8def
p3608
aV07
p3609
aV\u6a31\u82b1
p3610
aV\u5927\u5956
p3611
aV\u505a\u6210
p3612
aV\u574f\u6389
p3613
aV\u4eba\u80fd
p3614
aV\u5927\u795e
p3615
aV\u70b9\u7403
p3616
aV\u4e0d\u4e0a
p3617
aV\u53d1\u7ea2\u5305
p3618
aV\u7248\u672c
p3619
aV\u5c71\u5be8
p3620
aV\u5c4c\u4e1d
p3621
aV\u6821\u56ed
p3622
aV08
p3623
aV\u7a7f\u7740
p3624
aV\u6c34\u679c
p3625
aV\u57f9\u8bad
p3626
aV\u6c9f\u901a
p3627
aV\u9f13\u697c
p3628
aV\u6210\u4e3a
p3629
aV\u656c\u754f
p3630
aV\u865a\u62df\u673a
p3631
aV\u5584\u5f85
p3632
aV\u4e00\u6b65\u4e4b\u9065
p3633
aV\u52a0\u73ed
p3634
aV\u4e54\u5e03\u65af
p3635
aV\u6587\u4ef6\u5939
p3636
aV\u8d3a\u7535
p3637
aV\u4e8b\u4ef6
p3638
aV\u54ea\u4e2a
p3639
aV\u9ad8\u4e09
p3640
aV\u7535\u4fe1
p3641
aV\u6e05\u534e\u5927\u5b66\u7f8e\u672f\u5b66\u9662
p3642
aV\u53ef\u662f
p3643
aV\u7fa4\u91cc
p3644
aV\u98de\u5e38\u51c6
p3645
aV\u4e0d\u89c1
p3646
aV\u88c1\u5224
p3647
aV\u9ad8\u6653\u677e
p3648
aV\u77db\u76fe
p3649
aV\u535a\u5ba2
p3650
aV\u6cf0\u56fd
p3651
aV\u597d\u5e05
p3652
aV\u5f97\u610f
p3653
aV\u4e94\u5206\u949f
p3654
aVMeMeDahttp
p3655
aV\u673a\u4f1a
p3656
aV\u516c\u5171
p3657
aV\u793c\u8c8c
p3658
aVnikeplus
p3659
aV\u65b9\u6cd5
p3660
aV\u81ea\u7136
p3661
aV\u4e4b\u591c
p3662
aV\u6253\u6b7b
p3663
aV\u4e66\u5e97
p3664
aV\u7ed3\u5a5a
p3665
aV\u575a\u5f3a
p3666
aV\u7aef\u5348
p3667
aV\u7b2c\u4e00\u96c6
p3668
aV\u5546\u4e1a
p3669
aV\u9634\u5929
p3670
aV\u771f\u4e0d\u5bb9\u6613
p3671
aV\u8fce\u63a5
p3672
aV\u8d39\u5f5d\u6c11
p3673
aV120
p3674
aV\u4f30\u8ba1
p3675
aV\u6539\u4e3a
p3676
aV\u961f\u53cb
p3677
aV\u601d\u5bc6\u8fbe
p3678
aV\u53d1\u73b0\u81ea\u5df1
p3679
aV\u7537\u4eba
p3680
aV\u7075\u9b42
p3681
aVqq
p3682
aV\u4ece\u6765\u4e0d
p3683
aV\u4e0d\u8981
p3684
aV\u56db\u5e74
p3685
aV\u7b97\u4e0d\u7b97
p3686
aV\u535a\u58eb
p3687
aV\u8c22\u8c22\u4f60\u4eec
p3688
aV\u8981\u662f
p3689
aV\u95fa\u871c
p3690
aV\u5b8c\u6bd5
p3691
aV\u674e\u5a1c
p3692
aV\u5fc5\u987b
p3693
aVshi
p3694
aV\u63a5\u53d7
p3695
aV\u843d\u540e
p3696
aV\u7956\u56fd
p3697
aViPad
p3698
aV\u591a\u529f\u80fd\u5385
p3699
aV\u6bcf\u5230
p3700
aV\u72d7\u8840
p3701
aV\u5b9d\u8d1d
p3702
aV\u7eaa\u5ff5
p3703
aV\u516c\u91cc
p3704
aV\u593a\u51a0
p3705
aV\u5fc3\u7406
p3706
aV\u6c5f\u82cf
p3707
aV\u5168\u8eab
p3708
aVPassion
p3709
aV\u8425\u4e1a\u5385
p3710
aV\u5149\u660e
p3711
aV\u586b\u5199
p3712
aV\u6606\u660e
p3713
aVgmail
p3714
aV\u975e\u5e38
p3715
aVPS
p3716
aV\u6df1\u5733
p3717
aV\u4f9d\u7136
p3718
aV\u6821\u56ed\u884c
p3719
aV\u7ba1\u7406
p3720
aV\u7089\u77f3
p3721
aV\u8c37\u6b4c
p3722
aV\u7761\u524d
p3723
aV\u6362\u4e58
p3724
aV\u56de\u5bb6
p3725
aV\u5f62\u5bb9
p3726
aV\u60b2\u4f24
p3727
aV\u5efa\u7b51\u5bb6
p3728
aV\u6bd5\u4e1a\u751f
p3729
aV\u8d28\u91cf
p3730
aV\u6c34\u6728
p3731
aV\u80a1\u7968
p3732
aV\u6240\u6709\u4eba
p3733
aV\u56de\u4e0d\u53bb
p3734
aV\u5f00\u6e90
p3735
aVPM
p3736
aV\u4e00\u96c6
p3737
aV\u53f0\u5317
p3738
aV\u798f\u5229
p3739
aV\u54c8\u767b
p3740
aV\u7b7e\u5230
p3741
aV\u5934\u6655
p3742
aV\u6696\u548c
p3743
aV\u65e0\u6570
p3744
aV\u5915\u9633
p3745
aV\u5076\u7136
p3746
aV\u6cb3\u897f
p3747
aV\u5206\u624b
p3748
aV\u4e00\u56de
p3749
aV\u82b1\u75f4
p3750
aV\u672c\u4e66
p3751
aV\u53d1\u90ae\u4ef6
p3752
aV\u5e73\u677f
p3753
aV\u79d1\u6bd4
p3754
aV\u7ae5\u978b
p3755
aV\u7cfb\u7edf
p3756
aV\u65e0\u654c
p3757
aV\u6216\u662f
p3758
aV\u4fdd\u62a4
p3759
aV\u706b\u5f71
p3760
aV\u6821\u53f2
p3761
aV\u60f3\u6765
p3762
aV\u4e00\u76f4
p3763
aV\u4e8b\u4e1a
p3764
aV\u773c\u524d
p3765
aV\u4ea4\u6613
p3766
aV\u5357\u65b9
p3767
aV\u5bfc\u81f4
p3768
aV\u6253\u9ebb\u5c06
p3769
aVcn
p3770
aV\u5bfc\u5e08
p3771
aV\u533a\u522b
p3772
aV\u4e00\u770b
p3773
aV\u4e00\u5708
p3774
aV\u51fa\u53bb
p3775
aV\u4e2d\u5348
p3776
aV\u7d2b\u64cd
p3777
aV\u975e\u5f97
p3778
aV\u4f5c\u8005
p3779
aV3G
p3780
aV\u5c0f\u9c7c
p3781
aV\u4e00\u5c81
p3782
aV\u6b27\u51a0
p3783
aV\u65e0\u80fd\u4e3a\u529b
p3784
aV\u671f\u5f85
p3785
aV\u6309\u65f6
p3786
aV\u5c0f\u7c73
p3787
aV\u751f\u65e5\u5feb\u4e50
p3788
aV\u89e3\u8bf4
p3789
aV\u4ee5\u524d
p3790
aV\u8f93\u7ed9
p3791
aV\u8981\u6765
p3792
aV\u5927\u5b66\u751f
p3793
aV\u8bba\u6587
p3794
aV\u5e73\u5b89\u591c
p3795
aV\u5feb\u5230
p3796
aV\u62ff\u4e0b
p3797
aV\u6536\u62fe
p3798
aV\u5317\u56db\u73af
p3799
aV\u5fc3\u75bc
p3800
aV\u4e00\u573a
p3801
aV\u672c\u5b66\u671f
p3802
aV\u4e00\u5927\u65e9
p3803
aV\u8d5a\u94b1
p3804
aV\u4e00\u773c
p3805
aV\u660e\u65e9
p3806
aV\u6709\u4e9b
p3807
aV\u4eba\u6027
p3808
aV\u5fe7\u6851
p3809
aV\u7f8e\u5e1d
p3810
aV\u51b3\u5fc3
p3811
aV\u5bfb\u627e
p3812
aV\u5468\u5e74
p3813
aV\u953b\u70bc
p3814
aV\u6625\u8282\u5feb\u4e50
p3815
aV\u5f00\u673a
p3816
aV\u6709\u4e8b
p3817
aV\u770b\u5230
p3818
aV\u4fdd\u6301
p3819
aV\u4e00\u5757
p3820
aV\u611f\u89c9
p3821
aV2014
p3822
aV\u67d0\u4e2a
p3823
aV\u53d1\u8868
p3824
aV\u8fd9\u4e48\u4e45
p3825
aV\u8d8b\u52bf
p3826
aV\u5b66\u751f\u4f1a
p3827
aV\u8981\u4e0d\u7136
p3828
aV\u4e00\u9762
p3829
aV\u5e7f\u5dde
p3830
aV\u50b2\u9aa8
p3831
aV\u6709\u4eba
p3832
aV\u77ed\u4fe1
p3833
aV\u9f20\u6807
p3834
aV\u8111\u5b50\u91cc
p3835
aV\u5609\u5bbe
p3836
aV\u4f1a\u8ba1\u5b66
p3837
aV2011
p3838
aV\u4e00\u5768
p3839
aV\u4ecb\u7ecd
p3840
aV\u96be\u53d7
p3841
aV\u4f24\u611f
p3842
aV\u8857\u5934
p3843
aV\u8001\u5bb6
p3844
aV\u51a0\u519b
p3845
aV\u751f\u65e5
p3846
aVRvSl6rG
p3847
aV\u53ef\u4ee5
p3848
aV\u8bf7\u6559
p3849
aVTheClassic
p3850
aV\u5343\u4e07\u522b
p3851
aV\u70c2\u7247
p3852
aV\u97e9\u56fd
p3853
aV\u7ed3\u5c3e
p3854
aV\u889c\u5b50
p3855
aV\u7ec4\u7ec7
p3856
aV\u79cb\u5929
p3857
aV\u5dee\u4e0d\u591a
p3858
aV\u5730\u7403
p3859
aVvs
p3860
aV\u65f6\u95f4
p3861
aV\u5403\u665a\u996d
p3862
aV\u7a7a\u6c14\u8d28\u91cf
p3863
aV\u592a\u8d5e
p3864
aV\u597d\u542c
p3865
aV\u5341\u53f7
p3866
aV\u5076\u9047
p3867
aV\u4e0d\u884c
p3868
aV\u4e07\u80fd
p3869
aVMBA
p3870
aV\u5fcd\u4e0d\u4f4f
p3871
aVPPP
p3872
aV\u6708\u4eae
p3873
aV\u7b2c\u4e00\u573a
p3874
aVPPT
p3875
aV\u4e13\u5fc3
p3876
aVandroid
p3877
aV\u600e\u4e48\u529e
p3878
aV\u8d1f\u8d23
p3879
aV\u4fc4\u7f57\u65af
p3880
aV\u80dc\u5229
p3881
aV\u6050\u60e7\u75c7
p3882
aV0.1
p3883
aV\u5973\u795e
p3884
aV\u6bcf\u5468
p3885
aV\u5473\u9053
p3886
aVios
p3887
aV\u4e2d\u5c71\u8def
p3888
aV\u7acb\u9a6c
p3889
aV\u5c31\u8ba9
p3890
aV\u9884\u795d
p3891
aV\u5b9e\u9a8c
p3892
aV\u5fae\u535a\u7fa4
p3893
aV\u70b9\u5230
p3894
aV\u725b\u8089
p3895
aV\u8179\u808c
p3896
aV\u529e\u516c\u5ba4
p3897
aV\u5357\u5317
p3898
aV\u8d44\u672c
p3899
aV\u95ee\u95ee
p3900
aV\u5c0f\u7c89
p3901
aV\u67d0\u4e9b
p3902
aV\u7ffb\u76d8
p3903
aV\u523a\u6fc0
p3904
aV\u65b0\u5e74\u597d
p3905
aV\u8ddd\u79bb
p3906
aV\u9003\u79bb
p3907
aV\u5229\u76ca
p3908
aV\u5230\u6765
p3909
aV\u9057\u61be
p3910
aV\u7ed3\u5c40
p3911
aV\u5b9e\u73b0
p3912
aV\u4e0d\u8be5
p3913
aV\u6539\u9769
p3914
aV\u6d88\u5931
p3915
aV\u6bcd\u6821
p3916
aV\u505a\u4e8b
p3917
aV\u69b4\u83b2
p3918
aV\u8ba4\u77e5
p3919
aV\u591c\u665a
p3920
aV\u81ea\u7531
p3921
aV\u4e00\u540d
p3922
aV\u5bf9\u65b9
p3923
aV\u65e0\u610f
p3924
aV\u6b7b\u4ea1
p3925
aV\u623f\u5730\u4ea7
p3926
aV\u56de\u590d
p3927
aV\u65b0\u95fb\u8054\u64ad
p3928
aV\u963f\u59e8
p3929
aV\u5c24\u5176
p3930
aV\u6765\u8bf4
p3931
aV\u5954\u6ce2
p3932
aV\u9047\u4e0a
p3933
aV\u86cb\u75bc
p3934
aViOS
p3935
aV\u6284\u88ad
p3936
aV\u75b2\u52b3
p3937
aV\u957f\u5f97
p3938
aV\u5168\u6c11
p3939
aV\u56de\u5934
p3940
aV\u8fd1\u671f
p3941
aVVictoria
p3942
aV\u8d8a\u72f1
p3943
aV\u665a\u70b9
p3944
aV\u505a\u4eba
p3945
aV\u5956\u54c1
p3946
aV\u6839\u672c
p3947
aV\u63d0\u793a
p3948
aV\u6d6e\u8e81
p3949
aV\u545c\u545c
p3950
aV\u4e0d\u8ba9
p3951
aV\u90b1\u52c7
p3952
aV\u83ab\u540d
p3953
aV\u611f\u5192
p3954
aV\u597d\u4e0d\u597d
p3955
aV\u5c0a\u91cd
p3956
aV\u5c0f\u5f3a
p3957
aV\u6d6e\u4e91
p3958
aV\u6253\u8d25
p3959
aV\u5185\u5b58
p3960
aV\u4ed6\u4eba
p3961
aV\u9752\u6625
p3962
aV\u63cf\u8ff0
p3963
aV\u8fd9\u5929
p3964
aV\u6768\u5b97\u7eac
p3965
aV\u53cc\u6e05
p3966
aV\u5fc3\u76ee
p3967
aV\u4e0a\u6620
p3968
aV\u4e00\u5468
p3969
aV\u5e7c\u7a1a
p3970
aV\u5e73\u65f6
p3971
aV\u4e00\u80a1
p3972
aVedu
p3973
aV\u5c0f\u7f16
p3974
aV\u6709\u8da3
p3975
aV\u9694\u58c1
p3976
aVCS
p3977
aV\u6ee1\u6ee1\u7684
p3978
aV\u59cb\u7ec8
p3979
aV\u8fd9\u79cd
p3980
aV\u5e8a\u4e0a
p3981
aV\u52a0\u5165
p3982
aV\u9053\u5fb7
p3983
aV\u8ba1\u7b97\u673a\u7cfb
p3984
aV\u56de\u9996
p3985
aV\u63d0\u5347
p3986
aV\u8eab\u4efd\u8bc1
p3987
aV\u6742\u5fd7
p3988
aV\u897f\u96c5\u56fe
p3989
aV\u660e\u663e
p3990
aV\u5b89\u68c0
p3991
aV\u788e\u7247
p3992
aV\u53d8\u5316
p3993
aV\u5373\u5c06
p3994
aV\u5927\u524d\u5e74
p3995
aV\u6765\u5f97\u53ca
p3996
aV\u660e\u660e
p3997
aV\u5f88\u723d
p3998
aV\u884c\u674e
p3999
aV\u7ecf\u7406
p4000
aV\u5343\u91cc
p4001
aV\u5c0f\u5fc3
p4002
aV\u6587\u827a
p4003
aV\u60c5\u4fa3
p4004
aV\u661f\u7403\u5927\u6218
p4005
aV\u51fa\u79df
p4006
aV\u5230\u5904
p4007
aV\u660e\u661f
p4008
aV\u592a\u4e45
p4009
aV\u5dee\u8bc4
p4010
aV\u516d\u70b9
p4011
aV\u5012\u9709
p4012
aV\u4e1c\u95e8
p4013
aV\u5728\u610f
p4014
aV\u5bf9\u5f97\u8d77
p4015
aV\u997f\u6b7b
p4016
aVps
p4017
aV\u4e00\u5468\u5e74
p4018
aV\u544a\u522b
p4019
aV\u62db\u751f
p4020
aV\u7070\u7070
p4021
aV\u4f4e\u843d
p4022
aV\u5730\u5740
p4023
aV\u70b9\u513f
p4024
aV\u51c6\u5907
p4025
aV\u571f\u8c46
p4026
aV\u4e1c\u738b\u5e84
p4027
aV\u6807\u9898
p4028
aV\u6765\u5f97
p4029
aVchrome
p4030
aV\u6cb3\u4e1c\u8def
p4031
aV\u767b\u5f55
p4032
aV\u7cbe\u5f69
p4033
aV\u70ed\u95f9
p4034
aV\u96be\u9053
p4035
aV\u6c88\u6d77
p4036
aV\u8ba4\u771f
p4037
aV\u660e\u665a
p4038
aV\u5bc2\u5bde
p4039
aV\u65f6\u9694
p4040
aV\u8be6\u60c5
p4041
aV\u8868\u793a
p4042
aV\u4e0a\u6765
p4043
aV\u8721\u70db
p4044
aV\u4f53\u68c0
p4045
aV\u8f93\u5165\u6cd5
p4046
aV\u5435\u67b6
p4047
aV\u6307\u5357
p4048
aV\u5b9a\u4f4d
p4049
aV\u6570\u5b57
p4050
aV\u53e3\u8bed
p4051
aV\u6bb5\u5b50
p4052
aV\u8001\u5916
p4053
aV\u62dc\u62dc
p4054
aV\u72ec\u7acb
p4055
aV\u9ed1\u591c
p4056
aV\u5feb\u9012
p4057
aV\u81ea\u4fe1
p4058
aV\u9000\u4f11
p4059
aV\u6295\u7968
p4060
aV\u897f\u73ed\u7259
p4061
aV\u4eba\u7528
p4062
aV\u597d\u7d2f
p4063
aV\u627f\u8ba4
p4064
aV\u4e00\u751f
p4065
aV\u603b\u51b3\u8d5b
p4066
aV\u7d2b\u8346
p4067
aV\u53d1\u9001
p4068
aV\u5929\u751f
p4069
aV\u5954\u8dd1
p4070
aV\u4e3b\u52a8
p4071
aV\u800c\u4e14
p4072
aV\u56fd\u5e86
p4073
aV\u4e50\u89c6
p4074
aV\u591a\u4e45
p4075
aV\u901f\u5ea6
p4076
aV\u5feb\u8239
p4077
aV\u4e0b\u6b21
p4078
aV\u5927\u5df4
p4079
aV\u51fa\u79df\u8f66
p4080
aV\u4e2a\u4eba
p4081
aV\u7184\u706f
p4082
aVhr
p4083
aV\u8001\u5988
p4084
aV\u524d\u8def
p4085
aV\u5341\u70b9
p4086
aV\u5927\u5e08
p4087
aV\u7eaf\u6d01
p4088
aV\u70b9\u70b9
p4089
aV\u6b21\u6570
p4090
aV\u65b9\u4fbf
p4091
aV\u8d44\u6599
p4092
aV\u4f55\u4ee5
p4093
aV\u60f3\u7740
p4094
aVbug
p4095
aV\u4e03\u5915
p4096
aV\u5982\u6b64
p4097
aV\u4e03\u5929
p4098
aV\u54ea\u6015
p4099
aV\u53d1\u8868\u6587\u7ae0
p4100
aV\u9a8c\u8bc1
p4101
aV\u5c0f\u4f19\u4f34
p4102
aV\u5730\u56fe
p4103
aVG42
p4104
aV\u8fdc\u65b9
p4105
aV\u5076\u50cf
p4106
aV\u5bbf\u820d
p4107
aV\u7761\u9192
p4108
aV\u6628\u5929\u665a\u4e0a
p4109
aV\u4eba\u6c11\u65e5\u62a5
p4110
aV\u4f5c\u606f
p4111
aV\u697c\u4e0a
p4112
aV\u697c\u4e0b
p4113
aV\u5947\u8469
p4114
aV\u8349\u6ce5\u9a6c
p4115
aV\u767b\u673a\u53e3
p4116
aV\u7f51\u7533
p4117
aVwifi
p4118
aV\u6d4f\u89c8\u5668
p4119
aV\u7535\u6c60
p4120
aV\u714e\u997c
p4121
aV\u6ca1\u5e26
p4122
aV\u517b\u6d3b
p4123
aV\u62a4\u7167
p4124
aV\u827a\u672f
p4125
aV\u4e66\u5446\u5b50
p4126
aV\u6211\u6765
p4127
aV\u81ea\u6211
p4128
aVCCTV5
p4129
aV\u9a6c\u62c9\u677e
p4130
aVing
p4131
aV\u4e0b\u8bfe
p4132
aV\u8003\u8bd5
p4133
aV\u7591\u95ee
p4134
aV\u4e0d\u7ed9\u529b
p4135
aV\u6253\u4e0d\u5f00
p4136
aV\u53cd\u6b63
p4137
aV48
p4138
aV\u5a01\u6b66
p4139
aV46
p4140
aV\u6570\u636e\u5e93
p4141
aV\u83ab\u540d\u5176\u5999
p4142
aV\u65e0\u9650
p4143
aV\u672c\u8d28
p4144
aV\u7814\u7a76
p4145
aV\u4e00\u4e0b\u5b50
p4146
aV\u4eca\u5929\u5929\u6c14
p4147
aV\u4e00\u6bb5\u65f6\u95f4
p4148
aV\u60c5\u4eba
p4149
aV\u59b9\u5b50
p4150
aV\u5feb\u70b9
p4151
aV\u70ed\u6cea\u76c8\u7736
p4152
aV\u611f\u89e6
p4153
aV\u8fde\u63a5
p4154
aVApple
p4155
aV\u9762\u5305
p4156
aV\u4e3b\u573a
p4157
aV\u722c\u5c71
p4158
aV\u4e92\u76f8
p4159
aV\u6c99\u5c18\u66b4
p4160
aV\u9119\u89c6
p4161
aV\u6ca1\u5e72
p4162
aV\u6fc0\u60c5
p4163
aV\u4eba\u751f
p4164
aV\u62b1\u6028
p4165
aV\u6e05\u7814
p4166
aV8000
p4167
aV\u5408\u4f19\u4eba
p4168
aV\u6447\u53f7
p4169
aV\u8033\u673a
p4170
aV\u8461\u8404
p4171
aV\u8001\u5927
p4172
aV\u8001\u5929
p4173
aV\u662f\u5426
p4174
aV\u9e21\u86cb
p4175
aV\u8352\u5e9f
p4176
aV\u4ed6\u4eec
p4177
aV\u591a\u6b21
p4178
aV\u8033\u6735
p4179
aV\u5012\u8ba1\u65f6
p4180
aV\u5973\u5b69
p4181
aV\u52b3\u52a8
p4182
aV\u660e\u65e5
p4183
aV\u6000\u5ff5
p4184
aV\u795e\u7ecf\u75c5
p4185
aV\u8d76\u811a
p4186
aV\u64ad\u653e
p4187
aV\u9732\u8fbe
p4188
a.